ARM GAS  /tmp/ccqdN1ui.s 			page 1


   1              		.cpu cortex-m4
   2              		.arch armv7e-m
   3              		.fpu fpv4-sp-d16
   4              		.eabi_attribute 27, 1
   5              		.eabi_attribute 28, 1
   6              		.eabi_attribute 20, 1
   7              		.eabi_attribute 21, 1
   8              		.eabi_attribute 23, 3
   9              		.eabi_attribute 24, 1
  10              		.eabi_attribute 25, 1
  11              		.eabi_attribute 26, 1
  12              		.eabi_attribute 30, 1
  13              		.eabi_attribute 34, 1
  14              		.eabi_attribute 18, 4
  15              		.file	"communication.c"
  16              		.text
  17              	.Ltext0:
  18              		.cfi_sections	.debug_frame
  19              		.file 1 "Core/Src/modules/communication.c"
  20              		.section	.text.send_message,"ax",%progbits
  21              		.align	1
  22              		.global	send_message
  23              		.syntax unified
  24              		.thumb
  25              		.thumb_func
  27              	send_message:
  28              	.LVL0:
  29              	.LFB135:
   1:Core/Src/modules/communication.c **** #include "communication.h"
   2:Core/Src/modules/communication.c **** #include <string.h>
   3:Core/Src/modules/communication.c **** #include <usart.h>
   4:Core/Src/modules/communication.c **** 
   5:Core/Src/modules/communication.c **** void send_reg_log(HAL_StatusTypeDef status, char *reg)
   6:Core/Src/modules/communication.c **** {
   7:Core/Src/modules/communication.c ****   char* message = NULL;
   8:Core/Src/modules/communication.c **** 
   9:Core/Src/modules/communication.c ****   switch (status)
  10:Core/Src/modules/communication.c ****   {
  11:Core/Src/modules/communication.c ****     case HAL_OK:
  12:Core/Src/modules/communication.c ****       message = "OK";
  13:Core/Src/modules/communication.c ****       break;
  14:Core/Src/modules/communication.c ****     case HAL_ERROR:
  15:Core/Src/modules/communication.c ****       message = "ERROR";
  16:Core/Src/modules/communication.c ****       break;
  17:Core/Src/modules/communication.c ****     
  18:Core/Src/modules/communication.c ****     case HAL_BUSY:
  19:Core/Src/modules/communication.c ****       message = "BUSY";
  20:Core/Src/modules/communication.c ****       break;
  21:Core/Src/modules/communication.c ****     case HAL_TIMEOUT:
  22:Core/Src/modules/communication.c ****       message = "TIMEOUT";
  23:Core/Src/modules/communication.c ****       break;
  24:Core/Src/modules/communication.c **** 
  25:Core/Src/modules/communication.c ****     default:
  26:Core/Src/modules/communication.c ****       break;
  27:Core/Src/modules/communication.c ****   }
  28:Core/Src/modules/communication.c **** 
  29:Core/Src/modules/communication.c ****   char buffer[100];
ARM GAS  /tmp/ccqdN1ui.s 			page 2


  30:Core/Src/modules/communication.c ****   strcat(buffer, reg);
  31:Core/Src/modules/communication.c ****   strcat(buffer, ": ");
  32:Core/Src/modules/communication.c ****   strcat(buffer, message);
  33:Core/Src/modules/communication.c ****   strcat(buffer, "\n\r\0");
  34:Core/Src/modules/communication.c **** 
  35:Core/Src/modules/communication.c ****   send_message(buffer, PRIORITY_LOW);
  36:Core/Src/modules/communication.c **** }
  37:Core/Src/modules/communication.c **** 
  38:Core/Src/modules/communication.c **** void send_message(char *msg, Msg_Priority priority)
  39:Core/Src/modules/communication.c **** {
  30              		.loc 1 39 1 view -0
  31              		.cfi_startproc
  32              		@ args = 0, pretend = 0, frame = 0
  33              		@ frame_needed = 0, uses_anonymous_args = 0
  34              		.loc 1 39 1 is_stmt 0 view .LVU1
  35 0000 10B5     		push	{r4, lr}
  36              		.cfi_def_cfa_offset 8
  37              		.cfi_offset 4, -8
  38              		.cfi_offset 14, -4
  39 0002 0446     		mov	r4, r0
  40:Core/Src/modules/communication.c ****   HAL_UART_Transmit(&huart1, (uint8_t *)msg, strlen(msg), 0xFF);
  40              		.loc 1 40 3 is_stmt 1 view .LVU2
  41              		.loc 1 40 46 is_stmt 0 view .LVU3
  42 0004 FFF7FEFF 		bl	strlen
  43              	.LVL1:
  44              		.loc 1 40 3 discriminator 1 view .LVU4
  45 0008 FF23     		movs	r3, #255
  46 000a 82B2     		uxth	r2, r0
  47 000c 2146     		mov	r1, r4
  48 000e 0248     		ldr	r0, .L3
  49 0010 FFF7FEFF 		bl	HAL_UART_Transmit
  50              	.LVL2:
  41:Core/Src/modules/communication.c **** }
  51              		.loc 1 41 1 view .LVU5
  52 0014 10BD     		pop	{r4, pc}
  53              	.LVL3:
  54              	.L4:
  55              		.loc 1 41 1 view .LVU6
  56 0016 00BF     		.align	2
  57              	.L3:
  58 0018 00000000 		.word	huart1
  59              		.cfi_endproc
  60              	.LFE135:
  62              		.section	.rodata.send_reg_log.str1.4,"aMS",%progbits,1
  63              		.align	2
  64              	.LC0:
  65 0000 4F4B00   		.ascii	"OK\000"
  66 0003 00       		.align	2
  67              	.LC1:
  68 0004 4552524F 		.ascii	"ERROR\000"
  68      5200
  69 000a 0000     		.align	2
  70              	.LC2:
  71 000c 42555359 		.ascii	"BUSY\000"
  71      00
  72 0011 000000   		.align	2
  73              	.LC3:
ARM GAS  /tmp/ccqdN1ui.s 			page 3


  74 0014 54494D45 		.ascii	"TIMEOUT\000"
  74      4F555400 
  75              		.align	2
  76              	.LC4:
  77 001c 3A2000   		.ascii	": \000"
  78              		.section	.text.send_reg_log,"ax",%progbits
  79              		.align	1
  80              		.global	send_reg_log
  81              		.syntax unified
  82              		.thumb
  83              		.thumb_func
  85              	send_reg_log:
  86              	.LVL4:
  87              	.LFB134:
   6:Core/Src/modules/communication.c ****   char* message = NULL;
  88              		.loc 1 6 1 is_stmt 1 view -0
  89              		.cfi_startproc
  90              		@ args = 0, pretend = 0, frame = 104
  91              		@ frame_needed = 0, uses_anonymous_args = 0
   6:Core/Src/modules/communication.c ****   char* message = NULL;
  92              		.loc 1 6 1 is_stmt 0 view .LVU8
  93 0000 30B5     		push	{r4, r5, lr}
  94              		.cfi_def_cfa_offset 12
  95              		.cfi_offset 4, -12
  96              		.cfi_offset 5, -8
  97              		.cfi_offset 14, -4
  98 0002 9BB0     		sub	sp, sp, #108
  99              		.cfi_def_cfa_offset 120
   7:Core/Src/modules/communication.c **** 
 100              		.loc 1 7 3 is_stmt 1 view .LVU9
 101              	.LVL5:
   9:Core/Src/modules/communication.c ****   {
 102              		.loc 1 9 3 view .LVU10
 103 0004 0328     		cmp	r0, #3
 104 0006 03D8     		bhi	.L6
 105 0008 DFE800F0 		tbb	[pc, r0]
 106              	.L8:
 107 000c 29       		.byte	(.L12-.L8)/2
 108 000d 04       		.byte	(.L10-.L8)/2
 109 000e 25       		.byte	(.L9-.L8)/2
 110 000f 27       		.byte	(.L7-.L8)/2
 111              		.p2align 1
 112              	.L6:
 113 0010 0025     		movs	r5, #0
 114 0012 00E0     		b	.L11
 115              	.L10:
  15:Core/Src/modules/communication.c ****       break;
 116              		.loc 1 15 7 view .LVU11
 117              	.LVL6:
  16:Core/Src/modules/communication.c ****     
 118              		.loc 1 16 7 view .LVU12
  15:Core/Src/modules/communication.c ****       break;
 119              		.loc 1 15 15 is_stmt 0 view .LVU13
 120 0014 134D     		ldr	r5, .L14
 121              	.LVL7:
 122              	.L11:
  29:Core/Src/modules/communication.c ****   strcat(buffer, reg);
ARM GAS  /tmp/ccqdN1ui.s 			page 4


 123              		.loc 1 29 3 is_stmt 1 view .LVU14
  30:Core/Src/modules/communication.c ****   strcat(buffer, ": ");
 124              		.loc 1 30 3 view .LVU15
 125 0016 01AC     		add	r4, sp, #4
 126 0018 2046     		mov	r0, r4
 127              	.LVL8:
  30:Core/Src/modules/communication.c ****   strcat(buffer, ": ");
 128              		.loc 1 30 3 is_stmt 0 view .LVU16
 129 001a FFF7FEFF 		bl	strcat
 130              	.LVL9:
  31:Core/Src/modules/communication.c ****   strcat(buffer, message);
 131              		.loc 1 31 3 is_stmt 1 view .LVU17
 132 001e 2046     		mov	r0, r4
 133 0020 FFF7FEFF 		bl	strlen
 134              	.LVL10:
  31:Core/Src/modules/communication.c ****   strcat(buffer, message);
 135              		.loc 1 31 3 is_stmt 0 discriminator 1 view .LVU18
 136 0024 2218     		adds	r2, r4, r0
 137 0026 104B     		ldr	r3, .L14+4
 138 0028 1988     		ldrh	r1, [r3]	@ unaligned
 139 002a 9B78     		ldrb	r3, [r3, #2]	@ zero_extendqisi2
 140 002c 2152     		strh	r1, [r4, r0]	@ unaligned
 141 002e 9370     		strb	r3, [r2, #2]
  32:Core/Src/modules/communication.c ****   strcat(buffer, "\n\r\0");
 142              		.loc 1 32 3 is_stmt 1 view .LVU19
 143 0030 2946     		mov	r1, r5
 144 0032 2046     		mov	r0, r4
 145 0034 FFF7FEFF 		bl	strcat
 146              	.LVL11:
  33:Core/Src/modules/communication.c **** 
 147              		.loc 1 33 3 view .LVU20
 148 0038 2046     		mov	r0, r4
 149 003a FFF7FEFF 		bl	strlen
 150              	.LVL12:
  33:Core/Src/modules/communication.c **** 
 151              		.loc 1 33 3 is_stmt 0 discriminator 1 view .LVU21
 152 003e 2218     		adds	r2, r4, r0
 153 0040 0A4B     		ldr	r3, .L14+8
 154 0042 1988     		ldrh	r1, [r3]	@ unaligned
 155 0044 9B78     		ldrb	r3, [r3, #2]	@ zero_extendqisi2
 156 0046 2152     		strh	r1, [r4, r0]	@ unaligned
 157 0048 9370     		strb	r3, [r2, #2]
  35:Core/Src/modules/communication.c **** }
 158              		.loc 1 35 3 is_stmt 1 view .LVU22
 159 004a 0021     		movs	r1, #0
 160 004c 2046     		mov	r0, r4
 161 004e FFF7FEFF 		bl	send_message
 162              	.LVL13:
  36:Core/Src/modules/communication.c **** 
 163              		.loc 1 36 1 is_stmt 0 view .LVU23
 164 0052 1BB0     		add	sp, sp, #108
 165              		.cfi_remember_state
 166              		.cfi_def_cfa_offset 12
 167              		@ sp needed
 168 0054 30BD     		pop	{r4, r5, pc}
 169              	.LVL14:
 170              	.L9:
ARM GAS  /tmp/ccqdN1ui.s 			page 5


 171              		.cfi_restore_state
  19:Core/Src/modules/communication.c ****       break;
 172              		.loc 1 19 7 is_stmt 1 view .LVU24
  20:Core/Src/modules/communication.c ****     case HAL_TIMEOUT:
 173              		.loc 1 20 7 view .LVU25
  19:Core/Src/modules/communication.c ****       break;
 174              		.loc 1 19 15 is_stmt 0 view .LVU26
 175 0056 064D     		ldr	r5, .L14+12
  20:Core/Src/modules/communication.c ****     case HAL_TIMEOUT:
 176              		.loc 1 20 7 view .LVU27
 177 0058 DDE7     		b	.L11
 178              	.LVL15:
 179              	.L7:
  22:Core/Src/modules/communication.c ****       break;
 180              		.loc 1 22 7 is_stmt 1 view .LVU28
  23:Core/Src/modules/communication.c **** 
 181              		.loc 1 23 7 view .LVU29
  22:Core/Src/modules/communication.c ****       break;
 182              		.loc 1 22 15 is_stmt 0 view .LVU30
 183 005a 064D     		ldr	r5, .L14+16
  23:Core/Src/modules/communication.c **** 
 184              		.loc 1 23 7 view .LVU31
 185 005c DBE7     		b	.L11
 186              	.LVL16:
 187              	.L12:
  12:Core/Src/modules/communication.c ****       break;
 188              		.loc 1 12 15 view .LVU32
 189 005e 064D     		ldr	r5, .L14+20
 190 0060 D9E7     		b	.L11
 191              	.L15:
 192 0062 00BF     		.align	2
 193              	.L14:
 194 0064 04000000 		.word	.LC1
 195 0068 1C000000 		.word	.LC4
 196 006c 00000000 		.word	.LANCHOR0
 197 0070 0C000000 		.word	.LC2
 198 0074 14000000 		.word	.LC3
 199 0078 00000000 		.word	.LC0
 200              		.cfi_endproc
 201              	.LFE134:
 203              		.section	.rodata
 204              		.align	2
 205              		.set	.LANCHOR0,. + 0
 206              	.LC5:
 207 0000 0A0D0000 		.ascii	"\012\015\000\000"
 208              		.text
 209              	.Letext0:
 210              		.file 2 "/usr/arm-none-eabi/include/machine/_default_types.h"
 211              		.file 3 "/usr/arm-none-eabi/include/sys/_stdint.h"
 212              		.file 4 "Drivers/CMSIS/Device/ST/STM32F4xx/Include/stm32f411xe.h"
 213              		.file 5 "/usr/lib/gcc/arm-none-eabi/14.2.0/include/stddef.h"
 214              		.file 6 "Drivers/STM32F4xx_HAL_Driver/Inc/stm32f4xx_hal_def.h"
 215              		.file 7 "Drivers/STM32F4xx_HAL_Driver/Inc/stm32f4xx_hal_dma.h"
 216              		.file 8 "Drivers/STM32F4xx_HAL_Driver/Inc/stm32f4xx_hal_uart.h"
 217              		.file 9 "Core/Inc/modules/communication.h"
 218              		.file 10 "/usr/arm-none-eabi/include/string.h"
 219              		.file 11 "Core/Inc/usart.h"
ARM GAS  /tmp/ccqdN1ui.s 			page 6


 220              		.file 12 "<built-in>"
ARM GAS  /tmp/ccqdN1ui.s 			page 7


DEFINED SYMBOLS
                            *ABS*:00000000 communication.c
     /tmp/ccqdN1ui.s:21     .text.send_message:00000000 $t
     /tmp/ccqdN1ui.s:27     .text.send_message:00000000 send_message
     /tmp/ccqdN1ui.s:58     .text.send_message:00000018 $d
     /tmp/ccqdN1ui.s:63     .rodata.send_reg_log.str1.4:00000000 $d
     /tmp/ccqdN1ui.s:79     .text.send_reg_log:00000000 $t
     /tmp/ccqdN1ui.s:85     .text.send_reg_log:00000000 send_reg_log
     /tmp/ccqdN1ui.s:107    .text.send_reg_log:0000000c $d
     /tmp/ccqdN1ui.s:111    .text.send_reg_log:00000010 $t
     /tmp/ccqdN1ui.s:194    .text.send_reg_log:00000064 $d
     /tmp/ccqdN1ui.s:204    .rodata:00000000 $d

UNDEFINED SYMBOLS
strlen
HAL_UART_Transmit
huart1
strcat
