ARM GAS  /tmp/ccQ9BAu1.s 			page 1


   1              		.cpu cortex-m4
   2              		.arch armv7e-m
   3              		.fpu fpv4-sp-d16
   4              		.eabi_attribute 27, 1
   5              		.eabi_attribute 28, 1
   6              		.eabi_attribute 20, 1
   7              		.eabi_attribute 21, 1
   8              		.eabi_attribute 23, 3
   9              		.eabi_attribute 24, 1
  10              		.eabi_attribute 25, 1
  11              		.eabi_attribute 26, 1
  12              		.eabi_attribute 30, 1
  13              		.eabi_attribute 34, 1
  14              		.eabi_attribute 18, 4
  15              		.file	"main.c"
  16              		.text
  17              	.Ltext0:
  18              		.cfi_sections	.debug_frame
  19              		.file 1 "Core/Src/main.c"
  20              		.section	.text.bmp280_compensate_T_int32,"ax",%progbits
  21              		.align	1
  22              		.global	bmp280_compensate_T_int32
  23              		.syntax unified
  24              		.thumb
  25              		.thumb_func
  27              	bmp280_compensate_T_int32:
  28              	.LVL0:
  29              	.LFB137:
   1:Core/Src/main.c **** /* USER CODE BEGIN Header */
   2:Core/Src/main.c **** /**
   3:Core/Src/main.c ****   ******************************************************************************
   4:Core/Src/main.c ****   * @file           : main.c
   5:Core/Src/main.c ****   * @brief          : Main program body
   6:Core/Src/main.c ****   ******************************************************************************
   7:Core/Src/main.c ****   * @attention
   8:Core/Src/main.c ****   *
   9:Core/Src/main.c ****   * Copyright (c) 2024 STMicroelectronics.
  10:Core/Src/main.c ****   * All rights reserved.
  11:Core/Src/main.c ****   *
  12:Core/Src/main.c ****   * This software is licensed under terms that can be found in the LICENSE file
  13:Core/Src/main.c ****   * in the root directory of this software component.
  14:Core/Src/main.c ****   * If no LICENSE file comes with this software, it is provided AS-IS.
  15:Core/Src/main.c ****   *
  16:Core/Src/main.c ****   ******************************************************************************
  17:Core/Src/main.c ****   */
  18:Core/Src/main.c **** /* USER CODE END Header */
  19:Core/Src/main.c **** /* Includes ------------------------------------------------------------------*/
  20:Core/Src/main.c **** #include "main.h"
  21:Core/Src/main.c **** #include "i2c.h"
  22:Core/Src/main.c **** #include "tim.h"
  23:Core/Src/main.c **** #include "usart.h"
  24:Core/Src/main.c **** #include "gpio.h"
  25:Core/Src/main.c **** 
  26:Core/Src/main.c **** #include "communication.h"
  27:Core/Src/main.c **** #include "accelerometer.h"
  28:Core/Src/main.c **** #include "barometer.h"
  29:Core/Src/main.c **** 
ARM GAS  /tmp/ccQ9BAu1.s 			page 2


  30:Core/Src/main.c **** /* Private includes ----------------------------------------------------------*/
  31:Core/Src/main.c **** /* USER CODE BEGIN Includes */
  32:Core/Src/main.c **** #include <string.h>
  33:Core/Src/main.c **** #include <stdio.h>
  34:Core/Src/main.c **** 
  35:Core/Src/main.c **** /* USER CODE END Includes */
  36:Core/Src/main.c **** 
  37:Core/Src/main.c **** /* Private typedef -----------------------------------------------------------*/
  38:Core/Src/main.c **** /* USER CODE BEGIN PTD */
  39:Core/Src/main.c **** 
  40:Core/Src/main.c **** /* USER CODE END PTD */
  41:Core/Src/main.c **** 
  42:Core/Src/main.c **** /* Private define ------------------------------------------------------------*/
  43:Core/Src/main.c **** /* USER CODE BEGIN PD */
  44:Core/Src/main.c **** 
  45:Core/Src/main.c **** /* USER CODE END PD */
  46:Core/Src/main.c **** 
  47:Core/Src/main.c **** /* Private macro -------------------------------------------------------------*/
  48:Core/Src/main.c **** /* USER CODE BEGIN PM */
  49:Core/Src/main.c **** 
  50:Core/Src/main.c **** /* USER CODE END PM */
  51:Core/Src/main.c **** 
  52:Core/Src/main.c **** /* Private variables ---------------------------------------------------------*/
  53:Core/Src/main.c **** 
  54:Core/Src/main.c **** /* USER CODE BEGIN PV */
  55:Core/Src/main.c **** /* –ö–∞–ª–∏–±—Ä–æ–≤–æ—á–Ω—ã–µ –ø–µ—Ä–µ–º–µ–Ω–Ω—ã–µ */
  56:Core/Src/main.c **** 
  57:Core/Src/main.c **** /* –î–ª—è —Ç–µ–º–ø–µ—Ä–∞—Ç—É—Ä—ã */
  58:Core/Src/main.c **** ///uint16_t dig_T1[1];
  59:Core/Src/main.c **** uint16_t dig_T1;
  60:Core/Src/main.c **** int16_t  dig_T2;
  61:Core/Src/main.c **** int16_t  dig_T3;
  62:Core/Src/main.c **** 
  63:Core/Src/main.c **** /* –î–ª—è pressure */
  64:Core/Src/main.c **** uint16_t dig_P1;
  65:Core/Src/main.c **** int16_t  dig_P2;
  66:Core/Src/main.c **** int16_t  dig_P3;
  67:Core/Src/main.c **** int16_t  dig_P4;
  68:Core/Src/main.c **** int16_t  dig_P5;
  69:Core/Src/main.c **** int16_t  dig_P6;
  70:Core/Src/main.c **** int16_t  dig_P7;
  71:Core/Src/main.c **** int16_t  dig_P8;
  72:Core/Src/main.c **** int16_t  dig_P9;
  73:Core/Src/main.c **** 
  74:Core/Src/main.c **** int32_t actual_temp;
  75:Core/Src/main.c **** uint32_t actual_pressure;
  76:Core/Src/main.c **** 
  77:Core/Src/main.c **** /* USER CODE END PV */
  78:Core/Src/main.c **** 
  79:Core/Src/main.c **** /* Private function prototypes -----------------------------------------------*/
  80:Core/Src/main.c **** void SystemClock_Config(void);
  81:Core/Src/main.c **** /* USER CODE BEGIN PFP */
  82:Core/Src/main.c **** 
  83:Core/Src/main.c **** /* USER CODE END PFP */
  84:Core/Src/main.c **** 
  85:Core/Src/main.c **** /* Private user code ---------------------------------------------------------*/
  86:Core/Src/main.c **** /* USER CODE BEGIN 0 */
ARM GAS  /tmp/ccQ9BAu1.s 			page 3


  87:Core/Src/main.c **** 
  88:Core/Src/main.c **** // Returns temperature in DegC, resolution is 0.01 DegC. Output value of ‚Äú5123‚Äù equals 51.23 De
  89:Core/Src/main.c **** // t_fine carries fine temperature as global value
  90:Core/Src/main.c **** int32_t t_fine;
  91:Core/Src/main.c **** int32_t bmp280_compensate_T_int32(int32_t adc_T)
  92:Core/Src/main.c **** {
  30              		.loc 1 92 1 view -0
  31              		.cfi_startproc
  32              		@ args = 0, pretend = 0, frame = 0
  33              		@ frame_needed = 0, uses_anonymous_args = 0
  34              		@ link register save eliminated.
  93:Core/Src/main.c **** 	int32_t var1, var2, T;
  35              		.loc 1 93 2 view .LVU1
  94:Core/Src/main.c **** 	var1 = ((((adc_T>>3) - ((int32_t)dig_T1<<1))) * ((int32_t)dig_T2)) >> 11;
  36              		.loc 1 94 2 view .LVU2
  37              		.loc 1 94 26 is_stmt 0 view .LVU3
  38 0000 0E4B     		ldr	r3, .L2
  39 0002 1B88     		ldrh	r3, [r3]
  40              		.loc 1 94 41 view .LVU4
  41 0004 5A00     		lsls	r2, r3, #1
  42              		.loc 1 94 23 view .LVU5
  43 0006 C2EBE002 		rsb	r2, r2, r0, asr #3
  44              		.loc 1 94 51 view .LVU6
  45 000a 0D49     		ldr	r1, .L2+4
  46 000c B1F90010 		ldrsh	r1, [r1]
  47              		.loc 1 94 48 view .LVU7
  48 0010 01FB02F2 		mul	r2, r1, r2
  49              	.LVL1:
  95:Core/Src/main.c **** 	var2 = (((((adc_T>>4) - ((int32_t)dig_T1)) * ((adc_T>>4) - ((int32_t)dig_T1)))
  50              		.loc 1 95 2 is_stmt 1 view .LVU8
  51              		.loc 1 95 24 is_stmt 0 view .LVU9
  52 0014 C3EB2010 		rsb	r0, r3, r0, asr #4
  53              	.LVL2:
  54              		.loc 1 95 45 view .LVU10
  55 0018 00FB00F0 		mul	r0, r0, r0
  96:Core/Src/main.c **** 	>> 12) *
  56              		.loc 1 96 2 view .LVU11
  57 001c 0013     		asrs	r0, r0, #12
  97:Core/Src/main.c **** 	((int32_t)dig_T3)) >> 14;
  58              		.loc 1 97 3 view .LVU12
  59 001e 094B     		ldr	r3, .L2+8
  60 0020 B3F90030 		ldrsh	r3, [r3]
  96:Core/Src/main.c **** 	>> 12) *
  61              		.loc 1 96 9 view .LVU13
  62 0024 03FB00F0 		mul	r0, r3, r0
  95:Core/Src/main.c **** 	var2 = (((((adc_T>>4) - ((int32_t)dig_T1)) * ((adc_T>>4) - ((int32_t)dig_T1)))
  63              		.loc 1 95 7 view .LVU14
  64 0028 8013     		asrs	r0, r0, #14
  65              	.LVL3:
  98:Core/Src/main.c **** 	t_fine = var1 + var2;
  66              		.loc 1 98 2 is_stmt 1 view .LVU15
  67              		.loc 1 98 16 is_stmt 0 view .LVU16
  68 002a 00EBE220 		add	r0, r0, r2, asr #11
  69              	.LVL4:
  70              		.loc 1 98 9 view .LVU17
  71 002e 064B     		ldr	r3, .L2+12
  72              	.LVL5:
ARM GAS  /tmp/ccQ9BAu1.s 			page 4


  73              		.loc 1 98 9 view .LVU18
  74 0030 1860     		str	r0, [r3]
  99:Core/Src/main.c **** 	T = (t_fine * 5 + 128) >> 8;
  75              		.loc 1 99 2 is_stmt 1 view .LVU19
  76              		.loc 1 99 14 is_stmt 0 view .LVU20
  77 0032 00EB8000 		add	r0, r0, r0, lsl #2
  78              		.loc 1 99 18 view .LVU21
  79 0036 8030     		adds	r0, r0, #128
  80              	.LVL6:
 100:Core/Src/main.c **** 	return T;
  81              		.loc 1 100 2 is_stmt 1 view .LVU22
 101:Core/Src/main.c **** }
  82              		.loc 1 101 1 is_stmt 0 view .LVU23
  83 0038 0012     		asrs	r0, r0, #8
  84              	.LVL7:
  85              		.loc 1 101 1 view .LVU24
  86 003a 7047     		bx	lr
  87              	.L3:
  88              		.align	2
  89              	.L2:
  90 003c 00000000 		.word	dig_T1
  91 0040 00000000 		.word	dig_T2
  92 0044 00000000 		.word	dig_T3
  93 0048 00000000 		.word	t_fine
  94              		.cfi_endproc
  95              	.LFE137:
  97              		.section	.text.bmp280_compensate_P_int64,"ax",%progbits
  98              		.align	1
  99              		.global	bmp280_compensate_P_int64
 100              		.syntax unified
 101              		.thumb
 102              		.thumb_func
 104              	bmp280_compensate_P_int64:
 105              	.LVL8:
 106              	.LFB138:
 102:Core/Src/main.c **** 
 103:Core/Src/main.c **** // Returns pressure in Pa as unsigned 32 bit integer in Q24.8 format (24 integer bits and 8 fractio
 104:Core/Src/main.c **** // Output value of ‚Äú24674867‚Äù represents 24674867/256 = 96386.2 Pa = 963.862 hPa
 105:Core/Src/main.c **** uint32_t bmp280_compensate_P_int64(int32_t adc_P)
 106:Core/Src/main.c **** {
 107              		.loc 1 106 1 is_stmt 1 view -0
 108              		.cfi_startproc
 109              		@ args = 0, pretend = 0, frame = 0
 110              		@ frame_needed = 0, uses_anonymous_args = 0
 111              		.loc 1 106 1 is_stmt 0 view .LVU26
 112 0000 F8B5     		push	{r3, r4, r5, r6, r7, lr}
 113              		.cfi_def_cfa_offset 24
 114              		.cfi_offset 3, -24
 115              		.cfi_offset 4, -20
 116              		.cfi_offset 5, -16
 117              		.cfi_offset 6, -12
 118              		.cfi_offset 7, -8
 119              		.cfi_offset 14, -4
 107:Core/Src/main.c **** 	int64_t var1, var2, p;
 120              		.loc 1 107 2 is_stmt 1 view .LVU27
 108:Core/Src/main.c **** 	var1 = ((int64_t)t_fine) - 128000;
 121              		.loc 1 108 2 view .LVU28
ARM GAS  /tmp/ccQ9BAu1.s 			page 5


 122              		.loc 1 108 10 is_stmt 0 view .LVU29
 123 0002 664B     		ldr	r3, .L8
 124 0004 1968     		ldr	r1, [r3]
 125 0006 CB17     		asrs	r3, r1, #31
 126              		.loc 1 108 7 view .LVU30
 127 0008 B1F5FA31 		subs	r1, r1, #128000
 128 000c 43F1FF33 		adc	r3, r3, #-1
 129              	.LVL9:
 109:Core/Src/main.c **** 	var2 = var1 * var1 * (int64_t)dig_P6;
 130              		.loc 1 109 2 is_stmt 1 view .LVU31
 131              		.loc 1 109 14 is_stmt 0 view .LVU32
 132 0010 01FB03F4 		mul	r4, r1, r3
 133 0014 A1FB0126 		umull	r2, r6, r1, r1
 134 0018 06EB4406 		add	r6, r6, r4, lsl #1
 135              		.loc 1 109 23 view .LVU33
 136 001c 604C     		ldr	r4, .L8+4
 137 001e B4F90050 		ldrsh	r5, [r4]
 138 0022 EC17     		asrs	r4, r5, #31
 139              		.loc 1 109 7 view .LVU34
 140 0024 02FB04F4 		mul	r4, r2, r4
 141 0028 05FB0644 		mla	r4, r5, r6, r4
 142 002c A2FB0575 		umull	r7, r5, r2, r5
 143 0030 2C44     		add	r4, r4, r5
 144              	.LVL10:
 110:Core/Src/main.c **** 	var2 = var2 + ((var1*(int64_t)dig_P5)<<17);
 145              		.loc 1 110 2 is_stmt 1 view .LVU35
 146              		.loc 1 110 23 is_stmt 0 view .LVU36
 147 0032 5C4D     		ldr	r5, .L8+8
 148 0034 B5F900C0 		ldrsh	ip, [r5]
 149 0038 4FEAEC75 		asr	r5, ip, #31
 150              		.loc 1 110 22 view .LVU37
 151 003c 0CFB03FE 		mul	lr, ip, r3
 152 0040 01FB05EE 		mla	lr, r1, r5, lr
 153 0044 ACFB01C5 		umull	ip, r5, ip, r1
 154 0048 AE44     		add	lr, lr, r5
 155              		.loc 1 110 39 view .LVU38
 156 004a 4FEA4E4E 		lsl	lr, lr, #17
 157 004e 4EEADC3E 		orr	lr, lr, ip, lsr #15
 158 0052 4FEA4C4C 		lsl	ip, ip, #17
 159              		.loc 1 110 7 view .LVU39
 160 0056 1CEB070C 		adds	ip, ip, r7
 161 005a 44EB0E04 		adc	r4, r4, lr
 162              	.LVL11:
 111:Core/Src/main.c **** 	var2 = var2 + (((int64_t)dig_P4)<<35);
 163              		.loc 1 111 2 is_stmt 1 view .LVU40
 164              		.loc 1 111 18 is_stmt 0 view .LVU41
 165 005e 524D     		ldr	r5, .L8+12
 166 0060 B5F90050 		ldrsh	r5, [r5]
 167              		.loc 1 111 7 view .LVU42
 168 0064 04EBC504 		add	r4, r4, r5, lsl #3
 169              	.LVL12:
 112:Core/Src/main.c **** 	var1 = ((var1 * var1 * (int64_t)dig_P3)>>8) + ((var1 * (int64_t)dig_P2)<<12);
 170              		.loc 1 112 2 is_stmt 1 view .LVU43
 171              		.loc 1 112 25 is_stmt 0 view .LVU44
 172 0068 504D     		ldr	r5, .L8+16
 173 006a B5F900E0 		ldrsh	lr, [r5]
 174 006e 4FEAEE75 		asr	r5, lr, #31
ARM GAS  /tmp/ccQ9BAu1.s 			page 6


 175              		.loc 1 112 23 view .LVU45
 176 0072 02FB05F5 		mul	r5, r2, r5
 177 0076 0EFB0655 		mla	r5, lr, r6, r5
 178 007a A2FB0E2E 		umull	r2, lr, r2, lr
 179 007e 7544     		add	r5, r5, lr
 180              		.loc 1 112 41 view .LVU46
 181 0080 120A     		lsrs	r2, r2, #8
 182 0082 42EA0562 		orr	r2, r2, r5, lsl #24
 183              		.loc 1 112 57 view .LVU47
 184 0086 4A4E     		ldr	r6, .L8+20
 185 0088 B6F900E0 		ldrsh	lr, [r6]
 186 008c 4FEAEE76 		asr	r6, lr, #31
 187              		.loc 1 112 55 view .LVU48
 188 0090 0EFB03F3 		mul	r3, lr, r3
 189              	.LVL13:
 190              		.loc 1 112 55 view .LVU49
 191 0094 01FB0633 		mla	r3, r1, r6, r3
 192 0098 AEFB01E1 		umull	lr, r1, lr, r1
 193              	.LVL14:
 194              		.loc 1 112 55 view .LVU50
 195 009c 0B44     		add	r3, r3, r1
 196              		.loc 1 112 73 view .LVU51
 197 009e 1B03     		lsls	r3, r3, #12
 198 00a0 43EA1E53 		orr	r3, r3, lr, lsr #20
 199 00a4 4FEA0E3E 		lsl	lr, lr, #12
 200              		.loc 1 112 7 view .LVU52
 201 00a8 12EB0E02 		adds	r2, r2, lr
 202 00ac 43EB2523 		adc	r3, r3, r5, asr #8
 203              	.LVL15:
 113:Core/Src/main.c **** 	var1 = (((((int64_t)1)<<47)+var1))*((int64_t)dig_P1)>>33;
 204              		.loc 1 113 2 is_stmt 1 view .LVU53
 205              		.loc 1 113 29 is_stmt 0 view .LVU54
 206 00b0 03F50043 		add	r3, r3, #32768
 207              	.LVL16:
 208              		.loc 1 113 38 view .LVU55
 209 00b4 3F49     		ldr	r1, .L8+24
 210 00b6 0D88     		ldrh	r5, [r1]
 211              		.loc 1 113 36 view .LVU56
 212 00b8 A2FB0521 		umull	r2, r1, r2, r5
 213              	.LVL17:
 214              		.loc 1 113 36 view .LVU57
 215 00bc 05FB0311 		mla	r1, r5, r3, r1
 216              		.loc 1 113 7 view .LVU58
 217 00c0 4A10     		asrs	r2, r1, #1
 218 00c2 CB17     		asrs	r3, r1, #31
 219              	.LVL18:
 114:Core/Src/main.c **** 
 115:Core/Src/main.c **** 	if (var1 == 0)
 220              		.loc 1 115 2 is_stmt 1 view .LVU59
 221              		.loc 1 115 5 is_stmt 0 view .LVU60
 222 00c4 53EA6101 		orrs	r1, r3, r1, asr #1
 223 00c8 65D0     		beq	.L6
 116:Core/Src/main.c **** 	{
 117:Core/Src/main.c **** 		return 0; // avoid exception caused by division by zero
 118:Core/Src/main.c **** 	}
 119:Core/Src/main.c **** 
 120:Core/Src/main.c **** 	p = 1048576-adc_P;
ARM GAS  /tmp/ccQ9BAu1.s 			page 7


 224              		.loc 1 120 2 is_stmt 1 view .LVU61
 225              		.loc 1 120 13 is_stmt 0 view .LVU62
 226 00ca C0F5801E 		rsb	lr, r0, #1048576
 227              	.LVL19:
 121:Core/Src/main.c **** 	p = (((p<<31)-var2)*3125)/var1;
 228              		.loc 1 121 2 is_stmt 1 view .LVU63
 229              		.loc 1 121 10 is_stmt 0 view .LVU64
 230 00ce 4FEA6E01 		asr	r1, lr, #1
 231 00d2 4FEACE7E 		lsl	lr, lr, #31
 232              	.LVL20:
 233              		.loc 1 121 15 view .LVU65
 234 00d6 BEEB0C0E 		subs	lr, lr, ip
 235 00da 61EB0404 		sbc	r4, r1, r4
 236              	.LVL21:
 237              		.loc 1 121 21 view .LVU66
 238 00de 1EEB0E0C 		adds	ip, lr, lr
 239              	.LVL22:
 240              		.loc 1 121 21 view .LVU67
 241 00e2 44EB0401 		adc	r1, r4, r4
 242 00e6 1CEB0E0C 		adds	ip, ip, lr
 243 00ea 44EB0101 		adc	r1, r4, r1
 244 00ee 8801     		lsls	r0, r1, #6
 245              	.LVL23:
 246              		.loc 1 121 21 view .LVU68
 247 00f0 40EA9C60 		orr	r0, r0, ip, lsr #26
 248 00f4 4FEA8C15 		lsl	r5, ip, #6
 249 00f8 1CEB050C 		adds	ip, ip, r5
 250 00fc 41EB0001 		adc	r1, r1, r0
 251 0100 8900     		lsls	r1, r1, #2
 252 0102 41EA9C71 		orr	r1, r1, ip, lsr #30
 253 0106 4FEA8C0C 		lsl	ip, ip, #2
 254 010a 1CEB0E0C 		adds	ip, ip, lr
 255 010e 44EB0101 		adc	r1, r4, r1
 256 0112 8900     		lsls	r1, r1, #2
 257 0114 41EA9C71 		orr	r1, r1, ip, lsr #30
 258 0118 4FEA8C00 		lsl	r0, ip, #2
 259 011c 10EB0E00 		adds	r0, r0, lr
 260              		.loc 1 121 4 view .LVU69
 261 0120 44EB0101 		adc	r1, r4, r1
 262 0124 FFF7FEFF 		bl	__aeabi_ldivmod
 263              	.LVL24:
 264              		.loc 1 121 4 view .LVU70
 265 0128 0346     		mov	r3, r0
 266              	.LVL25:
 122:Core/Src/main.c **** 	var1 = (((int64_t)dig_P9) * (p>>13) * (p>>13)) >> 25;
 267              		.loc 1 122 2 is_stmt 1 view .LVU71
 268              		.loc 1 122 11 is_stmt 0 view .LVU72
 269 012a 234A     		ldr	r2, .L8+28
 270 012c B2F90050 		ldrsh	r5, [r2]
 271 0130 EF17     		asrs	r7, r5, #31
 272              		.loc 1 122 32 view .LVU73
 273 0132 420B     		lsrs	r2, r0, #13
 274 0134 42EAC142 		orr	r2, r2, r1, lsl #19
 275 0138 4E13     		asrs	r6, r1, #13
 276              		.loc 1 122 28 view .LVU74
 277 013a 05FB06F4 		mul	r4, r5, r6
 278 013e 02FB0744 		mla	r4, r2, r7, r4
ARM GAS  /tmp/ccQ9BAu1.s 			page 8


 279 0142 A5FB0257 		umull	r5, r7, r5, r2
 280 0146 3C44     		add	r4, r4, r7
 281              		.loc 1 122 38 view .LVU75
 282 0148 02FB04F4 		mul	r4, r2, r4
 283 014c 05FB0644 		mla	r4, r5, r6, r4
 284 0150 A2FB0525 		umull	r2, r5, r2, r5
 285 0154 2C44     		add	r4, r4, r5
 286              		.loc 1 122 7 view .LVU76
 287 0156 520E     		lsrs	r2, r2, #25
 288 0158 42EAC412 		orr	r2, r2, r4, lsl #7
 289              	.LVL26:
 123:Core/Src/main.c **** 	var2 = (((int64_t)dig_P8) * p) >> 19;
 290              		.loc 1 123 2 is_stmt 1 view .LVU77
 291              		.loc 1 123 11 is_stmt 0 view .LVU78
 292 015c 174D     		ldr	r5, .L8+32
 293 015e B5F90050 		ldrsh	r5, [r5]
 294 0162 EF17     		asrs	r7, r5, #31
 295              		.loc 1 123 28 view .LVU79
 296 0164 05FB01F6 		mul	r6, r5, r1
 297 0168 07FB0060 		mla	r0, r7, r0, r6
 298              	.LVL27:
 299              		.loc 1 123 28 view .LVU80
 300 016c A5FB0356 		umull	r5, r6, r5, r3
 301 0170 3044     		add	r0, r0, r6
 302              		.loc 1 123 7 view .LVU81
 303 0172 ED0C     		lsrs	r5, r5, #19
 304 0174 45EA4035 		orr	r5, r5, r0, lsl #13
 305              	.LVL28:
 124:Core/Src/main.c **** 	p = ((p + var1 + var2) >> 8) + (((int64_t)dig_P7)<<4);
 306              		.loc 1 124 2 is_stmt 1 view .LVU82
 307              		.loc 1 124 10 is_stmt 0 view .LVU83
 308 0178 9B18     		adds	r3, r3, r2
 309              	.LVL29:
 310              		.loc 1 124 10 view .LVU84
 311 017a 41EB6461 		adc	r1, r1, r4, asr #25
 312              		.loc 1 124 17 view .LVU85
 313 017e 5B19     		adds	r3, r3, r5
 314 0180 41EBE041 		adc	r1, r1, r0, asr #19
 315              		.loc 1 124 25 view .LVU86
 316 0184 180A     		lsrs	r0, r3, #8
 317              	.LVL30:
 318              		.loc 1 124 25 view .LVU87
 319 0186 40EA0160 		orr	r0, r0, r1, lsl #24
 320              		.loc 1 124 35 view .LVU88
 321 018a 0D4B     		ldr	r3, .L8+36
 322 018c B3F90030 		ldrsh	r3, [r3]
 323              	.LVL31:
 125:Core/Src/main.c **** 	return (uint32_t)p;
 324              		.loc 1 125 2 is_stmt 1 view .LVU89
 325              		.loc 1 125 9 is_stmt 0 view .LVU90
 326 0190 00EB0310 		add	r0, r0, r3, lsl #4
 327              	.LVL32:
 328              	.L4:
 126:Core/Src/main.c **** }
 329              		.loc 1 126 1 view .LVU91
 330 0194 F8BD     		pop	{r3, r4, r5, r6, r7, pc}
 331              	.LVL33:
ARM GAS  /tmp/ccQ9BAu1.s 			page 9


 332              	.L6:
 117:Core/Src/main.c **** 	}
 333              		.loc 1 117 10 view .LVU92
 334 0196 0020     		movs	r0, #0
 335              	.LVL34:
 117:Core/Src/main.c **** 	}
 336              		.loc 1 117 10 view .LVU93
 337 0198 FCE7     		b	.L4
 338              	.L9:
 339 019a 00BF     		.align	2
 340              	.L8:
 341 019c 00000000 		.word	t_fine
 342 01a0 00000000 		.word	dig_P6
 343 01a4 00000000 		.word	dig_P5
 344 01a8 00000000 		.word	dig_P4
 345 01ac 00000000 		.word	dig_P3
 346 01b0 00000000 		.word	dig_P2
 347 01b4 00000000 		.word	dig_P1
 348 01b8 00000000 		.word	dig_P9
 349 01bc 00000000 		.word	dig_P8
 350 01c0 00000000 		.word	dig_P7
 351              		.cfi_endproc
 352              	.LFE138:
 354              		.section	.rodata.InitBmp.str1.4,"aMS",%progbits,1
 355              		.align	2
 356              	.LC0:
 357 0000 424D5020 		.ascii	"BMP 0x58 READ SUCCESSFULLY\012\015\000"
 357      30783538 
 357      20524541 
 357      44205355 
 357      43434553 
 358              		.section	.text.InitBmp,"ax",%progbits
 359              		.align	1
 360              		.global	InitBmp
 361              		.syntax unified
 362              		.thumb
 363              		.thumb_func
 365              	InitBmp:
 366              	.LFB139:
 127:Core/Src/main.c **** 
 128:Core/Src/main.c **** void InitBmp()
 129:Core/Src/main.c **** {
 367              		.loc 1 129 1 is_stmt 1 view -0
 368              		.cfi_startproc
 369              		@ args = 0, pretend = 0, frame = 32
 370              		@ frame_needed = 0, uses_anonymous_args = 0
 371 0000 30B5     		push	{r4, r5, lr}
 372              		.cfi_def_cfa_offset 12
 373              		.cfi_offset 4, -12
 374              		.cfi_offset 5, -8
 375              		.cfi_offset 14, -4
 376 0002 8DB0     		sub	sp, sp, #52
 377              		.cfi_def_cfa_offset 64
 130:Core/Src/main.c **** 	uint16_t Address_Bmp280 = 0x76 << 1; //–∏–ª–∏ 0x77 - –∞–¥—Ä–µ—Å —É—Å—Ç—Ä–æ–π—Å—Ç–≤–∞ –ø–æ –ª–∏–Ω–∏
 378              		.loc 1 130 2 view .LVU95
 379              	.LVL35:
 131:Core/Src/main.c **** 	uint16_t Register_ID = 0xD0; //–ê–¥—Ä–µ—Å —Ä–µ–≥–∏—Å—Ç—Ä–∞ –≤ –∫–æ—Ç–æ—Ä–æ–º —Ö—Ä–∞–Ω–∏—Ç—Å—è –∑–Ω
ARM GAS  /tmp/ccQ9BAu1.s 			page 10


 380              		.loc 1 131 2 view .LVU96
 132:Core/Src/main.c **** 	uint8_t Data[1]; //–ú–∞—Å—Å–∏–≤ –≤ –∫–æ—Ç–æ—Ä–æ–º –ú–´ –±—É–¥–µ–º —Ö—Ä–∞–Ω–∏—Ç—å –¥–∞–Ω–Ω—ã–µ —Å —
 381              		.loc 1 132 2 view .LVU97
 133:Core/Src/main.c **** 	uint16_t Size_ = 1; //–î–ª–∏–Ω–∞ –∑–∞–ø—Ä–∞—à–∏–≤–∞–µ–º—ã—Ö –¥–∞–Ω–Ω—ã—Ö, 1 –±–∞–π—Ç = 1 —Ä–µ–≥–∏—
 382              		.loc 1 133 2 view .LVU98
 134:Core/Src/main.c **** 	uint32_t Timeout_ = 0xFF; //–¢–∞–π–º–∞—É—Ç, 255 –º—Å
 383              		.loc 1 134 2 view .LVU99
 135:Core/Src/main.c **** 
 136:Core/Src/main.c **** 	HAL_I2C_Mem_Read(&hi2c1, Address_Bmp280, Register_ID, I2C_MEMADD_SIZE_8BIT, Data, Size_, Timeout_)
 384              		.loc 1 136 2 view .LVU100
 385 0004 FF23     		movs	r3, #255
 386 0006 0293     		str	r3, [sp, #8]
 387 0008 0123     		movs	r3, #1
 388 000a 0193     		str	r3, [sp, #4]
 389 000c 0BAA     		add	r2, sp, #44
 390 000e 0092     		str	r2, [sp]
 391 0010 D022     		movs	r2, #208
 392 0012 EC21     		movs	r1, #236
 393 0014 1348     		ldr	r0, .L15
 394 0016 FFF7FEFF 		bl	HAL_I2C_Mem_Read
 395              	.LVL36:
 137:Core/Src/main.c **** 	if (Data[0] == 0x58)
 396              		.loc 1 137 2 view .LVU101
 397              		.loc 1 137 10 is_stmt 0 view .LVU102
 398 001a 9DF82C30 		ldrb	r3, [sp, #44]	@ zero_extendqisi2
 399              		.loc 1 137 5 view .LVU103
 400 001e 582B     		cmp	r3, #88
 401 0020 13D0     		beq	.L14
 402              	.LBB4:
 138:Core/Src/main.c **** 	{
 139:Core/Src/main.c **** 		char buffer [28] = "BMP 0x58 READ SUCCESSFULLY\n\r";
 140:Core/Src/main.c **** 		send_message(buffer, PRIORITY_HIGH);
 141:Core/Src/main.c **** 	} else
 142:Core/Src/main.c **** 	{
 143:Core/Src/main.c **** 		char buffer [20] = "BMP READ ERROR\n\r";
 403              		.loc 1 143 3 is_stmt 1 view .LVU104
 404              		.loc 1 143 8 is_stmt 0 view .LVU105
 405 0022 0DF1100C 		add	ip, sp, #16
 406 0026 104C     		ldr	r4, .L15+4
 407 0028 0FCC     		ldmia	r4!, {r0, r1, r2, r3}
 408 002a ACE80F00 		stmia	ip!, {r0, r1, r2, r3}
 409 002e 2368     		ldr	r3, [r4]
 410 0030 8CF80030 		strb	r3, [ip]
 411 0034 0023     		movs	r3, #0
 412 0036 ADF82130 		strh	r3, [sp, #33]	@ unaligned
 413 003a 8DF82330 		strb	r3, [sp, #35]
 144:Core/Src/main.c **** 		send_message(buffer, PRIORITY_HIGH);
 414              		.loc 1 144 3 is_stmt 1 view .LVU106
 415 003e 0221     		movs	r1, #2
 416 0040 04A8     		add	r0, sp, #16
 417 0042 FFF7FEFF 		bl	send_message
 418              	.LVL37:
 419              	.L10:
 420              	.LBE4:
 145:Core/Src/main.c **** 
 146:Core/Src/main.c **** 	}
 147:Core/Src/main.c **** }
ARM GAS  /tmp/ccQ9BAu1.s 			page 11


 421              		.loc 1 147 1 is_stmt 0 view .LVU107
 422 0046 0DB0     		add	sp, sp, #52
 423              		.cfi_remember_state
 424              		.cfi_def_cfa_offset 12
 425              		@ sp needed
 426 0048 30BD     		pop	{r4, r5, pc}
 427              	.L14:
 428              		.cfi_restore_state
 429              	.LBB5:
 139:Core/Src/main.c **** 		send_message(buffer, PRIORITY_HIGH);
 430              		.loc 1 139 3 is_stmt 1 view .LVU108
 139:Core/Src/main.c **** 		send_message(buffer, PRIORITY_HIGH);
 431              		.loc 1 139 8 is_stmt 0 view .LVU109
 432 004a 04AC     		add	r4, sp, #16
 433 004c 074D     		ldr	r5, .L15+8
 434 004e 0FCD     		ldmia	r5!, {r0, r1, r2, r3}
 435 0050 0FC4     		stmia	r4!, {r0, r1, r2, r3}
 436 0052 95E80700 		ldm	r5, {r0, r1, r2}
 437 0056 84E80700 		stm	r4, {r0, r1, r2}
 140:Core/Src/main.c **** 	} else
 438              		.loc 1 140 3 is_stmt 1 view .LVU110
 439 005a 0221     		movs	r1, #2
 440 005c 04A8     		add	r0, sp, #16
 441 005e FFF7FEFF 		bl	send_message
 442              	.LVL38:
 443              	.LBE5:
 444 0062 F0E7     		b	.L10
 445              	.L16:
 446              		.align	2
 447              	.L15:
 448 0064 00000000 		.word	hi2c1
 449 0068 00000000 		.word	.LANCHOR0
 450 006c 00000000 		.word	.LC0
 451              		.cfi_endproc
 452              	.LFE139:
 454              		.section	.rodata.Read_Dig_Variables.str1.4,"aMS",%progbits,1
 455              		.align	2
 456              	.LC2:
 457 0000 6469675F 		.ascii	"dig_T1\000"
 457      543100
 458 0007 00       		.align	2
 459              	.LC3:
 460 0008 6469675F 		.ascii	"dig_T2\000"
 460      543200
 461 000f 00       		.align	2
 462              	.LC4:
 463 0010 6469675F 		.ascii	"dig_T3\000"
 463      543300
 464 0017 00       		.align	2
 465              	.LC5:
 466 0018 6469675F 		.ascii	"dig_P1\000"
 466      503100
 467 001f 00       		.align	2
 468              	.LC6:
 469 0020 6469675F 		.ascii	"dig_P2\000"
 469      503200
 470 0027 00       		.align	2
ARM GAS  /tmp/ccQ9BAu1.s 			page 12


 471              	.LC7:
 472 0028 6469675F 		.ascii	"dig_P3\000"
 472      503300
 473 002f 00       		.align	2
 474              	.LC8:
 475 0030 6469675F 		.ascii	"dig_P4\000"
 475      503400
 476 0037 00       		.align	2
 477              	.LC9:
 478 0038 6469675F 		.ascii	"dig_P5\000"
 478      503500
 479 003f 00       		.align	2
 480              	.LC10:
 481 0040 6469675F 		.ascii	"dig_P6\000"
 481      503600
 482 0047 00       		.align	2
 483              	.LC11:
 484 0048 6469675F 		.ascii	"dig_P7\000"
 484      503700
 485 004f 00       		.align	2
 486              	.LC12:
 487 0050 6469675F 		.ascii	"dig_P8\000"
 487      503800
 488 0057 00       		.align	2
 489              	.LC13:
 490 0058 6469675F 		.ascii	"dig_P9\000"
 490      503900
 491              		.section	.text.Read_Dig_Variables,"ax",%progbits
 492              		.align	1
 493              		.global	Read_Dig_Variables
 494              		.syntax unified
 495              		.thumb
 496              		.thumb_func
 498              	Read_Dig_Variables:
 499              	.LFB140:
 148:Core/Src/main.c **** 
 149:Core/Src/main.c **** void Read_Dig_Variables()
 150:Core/Src/main.c **** {
 500              		.loc 1 150 1 view -0
 501              		.cfi_startproc
 502              		@ args = 0, pretend = 0, frame = 0
 503              		@ frame_needed = 0, uses_anonymous_args = 0
 504 0000 70B5     		push	{r4, r5, r6, lr}
 505              		.cfi_def_cfa_offset 16
 506              		.cfi_offset 4, -16
 507              		.cfi_offset 5, -12
 508              		.cfi_offset 6, -8
 509              		.cfi_offset 14, -4
 510 0002 84B0     		sub	sp, sp, #16
 511              		.cfi_def_cfa_offset 32
 151:Core/Src/main.c ****   send_reg_log(HAL_I2C_Mem_Read(&hi2c1, 0x76 << 1, 0x88, I2C_MEMADD_SIZE_8BIT, (uint8_t *)&dig_T1, 
 512              		.loc 1 151 3 view .LVU112
 513 0004 504C     		ldr	r4, .L19
 514 0006 FF26     		movs	r6, #255
 515 0008 0296     		str	r6, [sp, #8]
 516 000a 0225     		movs	r5, #2
 517 000c 0195     		str	r5, [sp, #4]
ARM GAS  /tmp/ccQ9BAu1.s 			page 13


 518 000e 4F4B     		ldr	r3, .L19+4
 519 0010 0093     		str	r3, [sp]
 520 0012 0123     		movs	r3, #1
 521 0014 8822     		movs	r2, #136
 522 0016 EC21     		movs	r1, #236
 523 0018 2046     		mov	r0, r4
 524 001a FFF7FEFF 		bl	HAL_I2C_Mem_Read
 525              	.LVL39:
 526              		.loc 1 151 3 is_stmt 0 discriminator 1 view .LVU113
 527 001e 4C49     		ldr	r1, .L19+8
 528 0020 FFF7FEFF 		bl	send_reg_log
 529              	.LVL40:
 152:Core/Src/main.c ****   send_reg_log(HAL_I2C_Mem_Read(&hi2c1, 0x76 << 1, 0x8A, I2C_MEMADD_SIZE_8BIT, (uint8_t *)&dig_T2, 
 530              		.loc 1 152 3 is_stmt 1 view .LVU114
 531 0024 0296     		str	r6, [sp, #8]
 532 0026 0195     		str	r5, [sp, #4]
 533 0028 4A4B     		ldr	r3, .L19+12
 534 002a 0093     		str	r3, [sp]
 535 002c 0123     		movs	r3, #1
 536 002e 8A22     		movs	r2, #138
 537 0030 EC21     		movs	r1, #236
 538 0032 2046     		mov	r0, r4
 539 0034 FFF7FEFF 		bl	HAL_I2C_Mem_Read
 540              	.LVL41:
 541              		.loc 1 152 3 is_stmt 0 discriminator 1 view .LVU115
 542 0038 4749     		ldr	r1, .L19+16
 543 003a FFF7FEFF 		bl	send_reg_log
 544              	.LVL42:
 153:Core/Src/main.c ****   send_reg_log(HAL_I2C_Mem_Read(&hi2c1, 0x76 << 1, 0x8C, I2C_MEMADD_SIZE_8BIT, (uint8_t *)&dig_T3, 
 545              		.loc 1 153 3 is_stmt 1 view .LVU116
 546 003e 0296     		str	r6, [sp, #8]
 547 0040 0195     		str	r5, [sp, #4]
 548 0042 464B     		ldr	r3, .L19+20
 549 0044 0093     		str	r3, [sp]
 550 0046 0123     		movs	r3, #1
 551 0048 8C22     		movs	r2, #140
 552 004a EC21     		movs	r1, #236
 553 004c 2046     		mov	r0, r4
 554 004e FFF7FEFF 		bl	HAL_I2C_Mem_Read
 555              	.LVL43:
 556              		.loc 1 153 3 is_stmt 0 discriminator 1 view .LVU117
 557 0052 4349     		ldr	r1, .L19+24
 558 0054 FFF7FEFF 		bl	send_reg_log
 559              	.LVL44:
 154:Core/Src/main.c ****   
 155:Core/Src/main.c ****   send_reg_log(HAL_I2C_Mem_Read(&hi2c1, 0x76 << 1, 0x8E, I2C_MEMADD_SIZE_8BIT, (uint8_t *)&dig_P1, 
 560              		.loc 1 155 3 is_stmt 1 view .LVU118
 561 0058 0296     		str	r6, [sp, #8]
 562 005a 0195     		str	r5, [sp, #4]
 563 005c 414B     		ldr	r3, .L19+28
 564 005e 0093     		str	r3, [sp]
 565 0060 0123     		movs	r3, #1
 566 0062 8E22     		movs	r2, #142
 567 0064 EC21     		movs	r1, #236
 568 0066 2046     		mov	r0, r4
 569 0068 FFF7FEFF 		bl	HAL_I2C_Mem_Read
 570              	.LVL45:
ARM GAS  /tmp/ccQ9BAu1.s 			page 14


 571              		.loc 1 155 3 is_stmt 0 discriminator 1 view .LVU119
 572 006c 3E49     		ldr	r1, .L19+32
 573 006e FFF7FEFF 		bl	send_reg_log
 574              	.LVL46:
 156:Core/Src/main.c ****   send_reg_log(HAL_I2C_Mem_Read(&hi2c1, 0x76 << 1, 0x90, I2C_MEMADD_SIZE_8BIT, (uint8_t *)&dig_P2, 
 575              		.loc 1 156 3 is_stmt 1 view .LVU120
 576 0072 0296     		str	r6, [sp, #8]
 577 0074 0195     		str	r5, [sp, #4]
 578 0076 3D4B     		ldr	r3, .L19+36
 579 0078 0093     		str	r3, [sp]
 580 007a 0123     		movs	r3, #1
 581 007c 9022     		movs	r2, #144
 582 007e EC21     		movs	r1, #236
 583 0080 2046     		mov	r0, r4
 584 0082 FFF7FEFF 		bl	HAL_I2C_Mem_Read
 585              	.LVL47:
 586              		.loc 1 156 3 is_stmt 0 discriminator 1 view .LVU121
 587 0086 3A49     		ldr	r1, .L19+40
 588 0088 FFF7FEFF 		bl	send_reg_log
 589              	.LVL48:
 157:Core/Src/main.c ****   send_reg_log(HAL_I2C_Mem_Read(&hi2c1, 0x76 << 1, 0x92, I2C_MEMADD_SIZE_8BIT, (uint8_t *)&dig_P3, 
 590              		.loc 1 157 3 is_stmt 1 view .LVU122
 591 008c 0296     		str	r6, [sp, #8]
 592 008e 0195     		str	r5, [sp, #4]
 593 0090 384B     		ldr	r3, .L19+44
 594 0092 0093     		str	r3, [sp]
 595 0094 0123     		movs	r3, #1
 596 0096 9222     		movs	r2, #146
 597 0098 EC21     		movs	r1, #236
 598 009a 2046     		mov	r0, r4
 599 009c FFF7FEFF 		bl	HAL_I2C_Mem_Read
 600              	.LVL49:
 601              		.loc 1 157 3 is_stmt 0 discriminator 1 view .LVU123
 602 00a0 3549     		ldr	r1, .L19+48
 603 00a2 FFF7FEFF 		bl	send_reg_log
 604              	.LVL50:
 158:Core/Src/main.c ****   send_reg_log(HAL_I2C_Mem_Read(&hi2c1, 0x76 << 1, 0x94, I2C_MEMADD_SIZE_8BIT, (uint8_t *)&dig_P4, 
 605              		.loc 1 158 3 is_stmt 1 view .LVU124
 606 00a6 0296     		str	r6, [sp, #8]
 607 00a8 0195     		str	r5, [sp, #4]
 608 00aa 344B     		ldr	r3, .L19+52
 609 00ac 0093     		str	r3, [sp]
 610 00ae 0123     		movs	r3, #1
 611 00b0 9422     		movs	r2, #148
 612 00b2 EC21     		movs	r1, #236
 613 00b4 2046     		mov	r0, r4
 614 00b6 FFF7FEFF 		bl	HAL_I2C_Mem_Read
 615              	.LVL51:
 616              		.loc 1 158 3 is_stmt 0 discriminator 1 view .LVU125
 617 00ba 3149     		ldr	r1, .L19+56
 618 00bc FFF7FEFF 		bl	send_reg_log
 619              	.LVL52:
 159:Core/Src/main.c ****   send_reg_log(HAL_I2C_Mem_Read(&hi2c1, 0x76 << 1, 0x96, I2C_MEMADD_SIZE_8BIT, (uint8_t *)&dig_P5, 
 620              		.loc 1 159 3 is_stmt 1 view .LVU126
 621 00c0 0296     		str	r6, [sp, #8]
 622 00c2 0195     		str	r5, [sp, #4]
 623 00c4 2F4B     		ldr	r3, .L19+60
ARM GAS  /tmp/ccQ9BAu1.s 			page 15


 624 00c6 0093     		str	r3, [sp]
 625 00c8 0123     		movs	r3, #1
 626 00ca 9622     		movs	r2, #150
 627 00cc EC21     		movs	r1, #236
 628 00ce 2046     		mov	r0, r4
 629 00d0 FFF7FEFF 		bl	HAL_I2C_Mem_Read
 630              	.LVL53:
 631              		.loc 1 159 3 is_stmt 0 discriminator 1 view .LVU127
 632 00d4 2C49     		ldr	r1, .L19+64
 633 00d6 FFF7FEFF 		bl	send_reg_log
 634              	.LVL54:
 160:Core/Src/main.c ****   send_reg_log(HAL_I2C_Mem_Read(&hi2c1, 0x76 << 1, 0x98, I2C_MEMADD_SIZE_8BIT, (uint8_t *)&dig_P6, 
 635              		.loc 1 160 3 is_stmt 1 view .LVU128
 636 00da 0296     		str	r6, [sp, #8]
 637 00dc 0195     		str	r5, [sp, #4]
 638 00de 2B4B     		ldr	r3, .L19+68
 639 00e0 0093     		str	r3, [sp]
 640 00e2 0123     		movs	r3, #1
 641 00e4 9822     		movs	r2, #152
 642 00e6 EC21     		movs	r1, #236
 643 00e8 2046     		mov	r0, r4
 644 00ea FFF7FEFF 		bl	HAL_I2C_Mem_Read
 645              	.LVL55:
 646              		.loc 1 160 3 is_stmt 0 discriminator 1 view .LVU129
 647 00ee 2849     		ldr	r1, .L19+72
 648 00f0 FFF7FEFF 		bl	send_reg_log
 649              	.LVL56:
 161:Core/Src/main.c ****   send_reg_log(HAL_I2C_Mem_Read(&hi2c1, 0x76 << 1, 0x9A, I2C_MEMADD_SIZE_8BIT, (uint8_t *)&dig_P7, 
 650              		.loc 1 161 3 is_stmt 1 view .LVU130
 651 00f4 0296     		str	r6, [sp, #8]
 652 00f6 0195     		str	r5, [sp, #4]
 653 00f8 264B     		ldr	r3, .L19+76
 654 00fa 0093     		str	r3, [sp]
 655 00fc 0123     		movs	r3, #1
 656 00fe 9A22     		movs	r2, #154
 657 0100 EC21     		movs	r1, #236
 658 0102 2046     		mov	r0, r4
 659 0104 FFF7FEFF 		bl	HAL_I2C_Mem_Read
 660              	.LVL57:
 661              		.loc 1 161 3 is_stmt 0 discriminator 1 view .LVU131
 662 0108 2349     		ldr	r1, .L19+80
 663 010a FFF7FEFF 		bl	send_reg_log
 664              	.LVL58:
 162:Core/Src/main.c ****   send_reg_log(HAL_I2C_Mem_Read(&hi2c1, 0x76 << 1, 0x9C, I2C_MEMADD_SIZE_8BIT, (uint8_t *)&dig_P8, 
 665              		.loc 1 162 3 is_stmt 1 view .LVU132
 666 010e 0296     		str	r6, [sp, #8]
 667 0110 0195     		str	r5, [sp, #4]
 668 0112 224B     		ldr	r3, .L19+84
 669 0114 0093     		str	r3, [sp]
 670 0116 0123     		movs	r3, #1
 671 0118 9C22     		movs	r2, #156
 672 011a EC21     		movs	r1, #236
 673 011c 2046     		mov	r0, r4
 674 011e FFF7FEFF 		bl	HAL_I2C_Mem_Read
 675              	.LVL59:
 676              		.loc 1 162 3 is_stmt 0 discriminator 1 view .LVU133
 677 0122 1F49     		ldr	r1, .L19+88
ARM GAS  /tmp/ccQ9BAu1.s 			page 16


 678 0124 FFF7FEFF 		bl	send_reg_log
 679              	.LVL60:
 163:Core/Src/main.c ****   send_reg_log(HAL_I2C_Mem_Read(&hi2c1, 0x76 << 1, 0x9E, I2C_MEMADD_SIZE_8BIT, (uint8_t *)&dig_P9, 
 680              		.loc 1 163 3 is_stmt 1 view .LVU134
 681 0128 0296     		str	r6, [sp, #8]
 682 012a 0195     		str	r5, [sp, #4]
 683 012c 1D4B     		ldr	r3, .L19+92
 684 012e 0093     		str	r3, [sp]
 685 0130 0123     		movs	r3, #1
 686 0132 9E22     		movs	r2, #158
 687 0134 EC21     		movs	r1, #236
 688 0136 2046     		mov	r0, r4
 689 0138 FFF7FEFF 		bl	HAL_I2C_Mem_Read
 690              	.LVL61:
 691              		.loc 1 163 3 is_stmt 0 discriminator 1 view .LVU135
 692 013c 1A49     		ldr	r1, .L19+96
 693 013e FFF7FEFF 		bl	send_reg_log
 694              	.LVL62:
 164:Core/Src/main.c **** }
 695              		.loc 1 164 1 view .LVU136
 696 0142 04B0     		add	sp, sp, #16
 697              		.cfi_def_cfa_offset 16
 698              		@ sp needed
 699 0144 70BD     		pop	{r4, r5, r6, pc}
 700              	.L20:
 701 0146 00BF     		.align	2
 702              	.L19:
 703 0148 00000000 		.word	hi2c1
 704 014c 00000000 		.word	dig_T1
 705 0150 00000000 		.word	.LC2
 706 0154 00000000 		.word	dig_T2
 707 0158 08000000 		.word	.LC3
 708 015c 00000000 		.word	dig_T3
 709 0160 10000000 		.word	.LC4
 710 0164 00000000 		.word	dig_P1
 711 0168 18000000 		.word	.LC5
 712 016c 00000000 		.word	dig_P2
 713 0170 20000000 		.word	.LC6
 714 0174 00000000 		.word	dig_P3
 715 0178 28000000 		.word	.LC7
 716 017c 00000000 		.word	dig_P4
 717 0180 30000000 		.word	.LC8
 718 0184 00000000 		.word	dig_P5
 719 0188 38000000 		.word	.LC9
 720 018c 00000000 		.word	dig_P6
 721 0190 40000000 		.word	.LC10
 722 0194 00000000 		.word	dig_P7
 723 0198 48000000 		.word	.LC11
 724 019c 00000000 		.word	dig_P8
 725 01a0 50000000 		.word	.LC12
 726 01a4 00000000 		.word	dig_P9
 727 01a8 58000000 		.word	.LC13
 728              		.cfi_endproc
 729              	.LFE140:
 731              		.section	.rodata.Read_Acc.str1.4,"aMS",%progbits,1
 732              		.align	2
 733              	.LC14:
ARM GAS  /tmp/ccQ9BAu1.s 			page 17


 734 0000 4F555458 		.ascii	"OUTX_L_XL\000"
 734      5F4C5F58 
 734      4C00
 735 000a 0000     		.align	2
 736              	.LC15:
 737 000c 4F555458 		.ascii	"OUTX_H_XL\000"
 737      5F485F58 
 737      4C00
 738 0016 0000     		.align	2
 739              	.LC16:
 740 0018 4F555459 		.ascii	"OUTY_L_XL\000"
 740      5F4C5F58 
 740      4C00
 741 0022 0000     		.align	2
 742              	.LC17:
 743 0024 4F555459 		.ascii	"OUTY_H_XL\000"
 743      5F485F58 
 743      4C00
 744 002e 0000     		.align	2
 745              	.LC18:
 746 0030 4F55545A 		.ascii	"OUTZ_L_XL\000"
 746      5F4C5F58 
 746      4C00
 747 003a 0000     		.align	2
 748              	.LC19:
 749 003c 4F55545A 		.ascii	"OUTZ_H_XL\000"
 749      5F485F58 
 749      4C00
 750              		.section	.text.Read_Acc,"ax",%progbits
 751              		.align	1
 752              		.global	Read_Acc
 753              		.syntax unified
 754              		.thumb
 755              		.thumb_func
 757              	Read_Acc:
 758              	.LVL63:
 759              	.LFB141:
 165:Core/Src/main.c **** 
 166:Core/Src/main.c **** void Read_Acc(double* buffer_xyz)
 167:Core/Src/main.c **** {
 760              		.loc 1 167 1 is_stmt 1 view -0
 761              		.cfi_startproc
 762              		@ args = 0, pretend = 0, frame = 16
 763              		@ frame_needed = 0, uses_anonymous_args = 0
 764              		.loc 1 167 1 is_stmt 0 view .LVU138
 765 0000 2DE9F04F 		push	{r4, r5, r6, r7, r8, r9, r10, fp, lr}
 766              		.cfi_def_cfa_offset 36
 767              		.cfi_offset 4, -36
 768              		.cfi_offset 5, -32
 769              		.cfi_offset 6, -28
 770              		.cfi_offset 7, -24
 771              		.cfi_offset 8, -20
 772              		.cfi_offset 9, -16
 773              		.cfi_offset 10, -12
 774              		.cfi_offset 11, -8
 775              		.cfi_offset 14, -4
 776 0004 89B0     		sub	sp, sp, #36
ARM GAS  /tmp/ccQ9BAu1.s 			page 18


 777              		.cfi_def_cfa_offset 72
 778 0006 8046     		mov	r8, r0
 168:Core/Src/main.c **** 	uint8_t dev_address = 0b11010100;
 779              		.loc 1 168 2 is_stmt 1 view .LVU139
 780              	.LVL64:
 169:Core/Src/main.c ****   uint16_t raw_val[2];
 781              		.loc 1 169 3 view .LVU140
 170:Core/Src/main.c **** 
 171:Core/Src/main.c **** 	send_reg_log(HAL_I2C_Mem_Read(&hi2c1, dev_address, 0x28, I2C_MEMADD_SIZE_8BIT, (uint8_t*)raw_val, 
 782              		.loc 1 171 2 view .LVU141
 783 0008 5D4E     		ldr	r6, .L23+16
 784 000a FF27     		movs	r7, #255
 785 000c 0297     		str	r7, [sp, #8]
 786 000e 0124     		movs	r4, #1
 787 0010 0194     		str	r4, [sp, #4]
 788 0012 0DF11C0B 		add	fp, sp, #28
 789 0016 CDF800B0 		str	fp, [sp]
 790 001a 2346     		mov	r3, r4
 791 001c 2822     		movs	r2, #40
 792 001e D421     		movs	r1, #212
 793 0020 3046     		mov	r0, r6
 794              	.LVL65:
 795              		.loc 1 171 2 is_stmt 0 view .LVU142
 796 0022 FFF7FEFF 		bl	HAL_I2C_Mem_Read
 797              	.LVL66:
 798              		.loc 1 171 2 discriminator 1 view .LVU143
 799 0026 5749     		ldr	r1, .L23+20
 800 0028 FFF7FEFF 		bl	send_reg_log
 801              	.LVL67:
 172:Core/Src/main.c **** 	send_reg_log(HAL_I2C_Mem_Read(&hi2c1, dev_address, 0x29, I2C_MEMADD_SIZE_8BIT, (uint8_t*)raw_val+1
 802              		.loc 1 172 2 is_stmt 1 view .LVU144
 803 002c 0297     		str	r7, [sp, #8]
 804 002e 0194     		str	r4, [sp, #4]
 805 0030 0DF11D0A 		add	r10, sp, #29
 806 0034 CDF800A0 		str	r10, [sp]
 807 0038 2346     		mov	r3, r4
 808 003a 2922     		movs	r2, #41
 809 003c D421     		movs	r1, #212
 810 003e 3046     		mov	r0, r6
 811 0040 FFF7FEFF 		bl	HAL_I2C_Mem_Read
 812              	.LVL68:
 813              		.loc 1 172 2 is_stmt 0 discriminator 1 view .LVU145
 814 0044 5049     		ldr	r1, .L23+24
 815 0046 FFF7FEFF 		bl	send_reg_log
 816              	.LVL69:
 173:Core/Src/main.c **** 
 174:Core/Src/main.c ****   int16_t x_val = raw_val[1] << 8 | raw_val[0];
 817              		.loc 1 174 3 is_stmt 1 view .LVU146
 818              		.loc 1 174 26 is_stmt 0 view .LVU147
 819 004a BDF81E50 		ldrh	r5, [sp, #30]
 820              		.loc 1 174 35 view .LVU148
 821 004e 2D02     		lsls	r5, r5, #8
 822 0050 2DB2     		sxth	r5, r5
 823              		.loc 1 174 44 view .LVU149
 824 0052 BDF91C30 		ldrsh	r3, [sp, #28]
 825              		.loc 1 174 11 view .LVU150
 826 0056 1D43     		orrs	r5, r5, r3
ARM GAS  /tmp/ccQ9BAu1.s 			page 19


 827              	.LVL70:
 175:Core/Src/main.c ****   raw_val[0] = raw_val[1] = 0;
 828              		.loc 1 175 3 is_stmt 1 view .LVU151
 829              		.loc 1 175 27 is_stmt 0 view .LVU152
 830 0058 4FF00009 		mov	r9, #0
 831 005c ADF81E90 		strh	r9, [sp, #30]	@ movhi
 832              		.loc 1 175 14 view .LVU153
 833 0060 ADF81C90 		strh	r9, [sp, #28]	@ movhi
 176:Core/Src/main.c ****   
 177:Core/Src/main.c **** 	send_reg_log(HAL_I2C_Mem_Read(&hi2c1, dev_address, 0x2A, I2C_MEMADD_SIZE_8BIT, (uint8_t*)raw_val, 
 834              		.loc 1 177 2 is_stmt 1 view .LVU154
 835 0064 0297     		str	r7, [sp, #8]
 836 0066 0194     		str	r4, [sp, #4]
 837 0068 CDF800B0 		str	fp, [sp]
 838 006c 2346     		mov	r3, r4
 839 006e 2A22     		movs	r2, #42
 840 0070 D421     		movs	r1, #212
 841 0072 3046     		mov	r0, r6
 842 0074 FFF7FEFF 		bl	HAL_I2C_Mem_Read
 843              	.LVL71:
 844              		.loc 1 177 2 is_stmt 0 discriminator 1 view .LVU155
 845 0078 4449     		ldr	r1, .L23+28
 846 007a FFF7FEFF 		bl	send_reg_log
 847              	.LVL72:
 178:Core/Src/main.c **** 	send_reg_log(HAL_I2C_Mem_Read(&hi2c1, dev_address, 0x2B, I2C_MEMADD_SIZE_8BIT, (uint8_t*)raw_val+1
 848              		.loc 1 178 2 is_stmt 1 view .LVU156
 849 007e 0297     		str	r7, [sp, #8]
 850 0080 0194     		str	r4, [sp, #4]
 851 0082 CDF800A0 		str	r10, [sp]
 852 0086 2346     		mov	r3, r4
 853 0088 2B22     		movs	r2, #43
 854 008a D421     		movs	r1, #212
 855 008c 3046     		mov	r0, r6
 856 008e FFF7FEFF 		bl	HAL_I2C_Mem_Read
 857              	.LVL73:
 858              		.loc 1 178 2 is_stmt 0 discriminator 1 view .LVU157
 859 0092 3F49     		ldr	r1, .L23+32
 860 0094 FFF7FEFF 		bl	send_reg_log
 861              	.LVL74:
 179:Core/Src/main.c **** 
 180:Core/Src/main.c ****   int16_t y_val = raw_val[1] << 8 | raw_val[0];
 862              		.loc 1 180 3 is_stmt 1 view .LVU158
 863              		.loc 1 180 26 is_stmt 0 view .LVU159
 864 0098 BDF81E30 		ldrh	r3, [sp, #30]
 865              		.loc 1 180 35 view .LVU160
 866 009c 1B02     		lsls	r3, r3, #8
 867 009e 1BB2     		sxth	r3, r3
 868              		.loc 1 180 44 view .LVU161
 869 00a0 BDF91C20 		ldrsh	r2, [sp, #28]
 870              		.loc 1 180 11 view .LVU162
 871 00a4 1343     		orrs	r3, r3, r2
 872 00a6 0593     		str	r3, [sp, #20]
 873              	.LVL75:
 181:Core/Src/main.c ****   raw_val[0] = raw_val[1] = 0;
 874              		.loc 1 181 3 is_stmt 1 view .LVU163
 875              		.loc 1 181 27 is_stmt 0 view .LVU164
 876 00a8 ADF81E90 		strh	r9, [sp, #30]	@ movhi
ARM GAS  /tmp/ccQ9BAu1.s 			page 20


 877              		.loc 1 181 14 view .LVU165
 878 00ac ADF81C90 		strh	r9, [sp, #28]	@ movhi
 182:Core/Src/main.c ****   
 183:Core/Src/main.c **** 	send_reg_log(HAL_I2C_Mem_Read(&hi2c1, dev_address, 0x2C, I2C_MEMADD_SIZE_8BIT, (uint8_t*)raw_val, 
 879              		.loc 1 183 2 is_stmt 1 view .LVU166
 880 00b0 0297     		str	r7, [sp, #8]
 881 00b2 0194     		str	r4, [sp, #4]
 882 00b4 CDF800B0 		str	fp, [sp]
 883 00b8 2346     		mov	r3, r4
 884 00ba 2C22     		movs	r2, #44
 885 00bc D421     		movs	r1, #212
 886 00be 3046     		mov	r0, r6
 887 00c0 FFF7FEFF 		bl	HAL_I2C_Mem_Read
 888              	.LVL76:
 889              		.loc 1 183 2 is_stmt 0 discriminator 1 view .LVU167
 890 00c4 3349     		ldr	r1, .L23+36
 891 00c6 FFF7FEFF 		bl	send_reg_log
 892              	.LVL77:
 184:Core/Src/main.c **** 	send_reg_log(HAL_I2C_Mem_Read(&hi2c1, dev_address, 0x2D, I2C_MEMADD_SIZE_8BIT, (uint8_t*)raw_val+1
 893              		.loc 1 184 2 is_stmt 1 view .LVU168
 894 00ca 0297     		str	r7, [sp, #8]
 895 00cc 0194     		str	r4, [sp, #4]
 896 00ce CDF800A0 		str	r10, [sp]
 897 00d2 2346     		mov	r3, r4
 898 00d4 2D22     		movs	r2, #45
 899 00d6 D421     		movs	r1, #212
 900 00d8 3046     		mov	r0, r6
 901 00da FFF7FEFF 		bl	HAL_I2C_Mem_Read
 902              	.LVL78:
 903              		.loc 1 184 2 is_stmt 0 discriminator 1 view .LVU169
 904 00de 2E49     		ldr	r1, .L23+40
 905 00e0 FFF7FEFF 		bl	send_reg_log
 906              	.LVL79:
 185:Core/Src/main.c **** 
 186:Core/Src/main.c ****   int16_t z_val = raw_val[1] << 8 | raw_val[0];
 907              		.loc 1 186 3 is_stmt 1 view .LVU170
 908              		.loc 1 186 26 is_stmt 0 view .LVU171
 909 00e4 BDF81E40 		ldrh	r4, [sp, #30]
 910              		.loc 1 186 35 view .LVU172
 911 00e8 2402     		lsls	r4, r4, #8
 912 00ea 24B2     		sxth	r4, r4
 913              		.loc 1 186 44 view .LVU173
 914 00ec BDF91C30 		ldrsh	r3, [sp, #28]
 915              		.loc 1 186 11 view .LVU174
 916 00f0 1C43     		orrs	r4, r4, r3
 917              	.LVL80:
 187:Core/Src/main.c **** 
 188:Core/Src/main.c ****   buffer_xyz[0] = ((double)x_val * 0.488/1000)*9.81;
 918              		.loc 1 188 3 is_stmt 1 view .LVU175
 919              		.loc 1 188 20 is_stmt 0 view .LVU176
 920 00f2 2846     		mov	r0, r5
 921 00f4 FFF7FEFF 		bl	__aeabi_i2d
 922              	.LVL81:
 923              		.loc 1 188 34 view .LVU177
 924 00f8 1DA3     		adr	r3, .L23
 925 00fa D3E90023 		ldrd	r2, [r3]
 926 00fe FFF7FEFF 		bl	__aeabi_dmul
ARM GAS  /tmp/ccQ9BAu1.s 			page 21


 927              	.LVL82:
 928              		.loc 1 188 41 view .LVU178
 929 0102 0022     		movs	r2, #0
 930 0104 254B     		ldr	r3, .L23+44
 931 0106 FFF7FEFF 		bl	__aeabi_ddiv
 932              	.LVL83:
 933              		.loc 1 188 47 view .LVU179
 934 010a 1BA3     		adr	r3, .L23+8
 935 010c D3E90023 		ldrd	r2, [r3]
 936 0110 FFF7FEFF 		bl	__aeabi_dmul
 937              	.LVL84:
 938              		.loc 1 188 17 view .LVU180
 939 0114 C8E90001 		strd	r0, [r8]
 189:Core/Src/main.c ****   buffer_xyz[1] = ((double)y_val * 0.488/1000)*9.81;
 940              		.loc 1 189 3 is_stmt 1 view .LVU181
 941              		.loc 1 189 20 is_stmt 0 view .LVU182
 942 0118 0598     		ldr	r0, [sp, #20]
 943 011a FFF7FEFF 		bl	__aeabi_i2d
 944              	.LVL85:
 945              		.loc 1 189 34 view .LVU183
 946 011e 14A3     		adr	r3, .L23
 947 0120 D3E90023 		ldrd	r2, [r3]
 948 0124 FFF7FEFF 		bl	__aeabi_dmul
 949              	.LVL86:
 950              		.loc 1 189 41 view .LVU184
 951 0128 0022     		movs	r2, #0
 952 012a 1C4B     		ldr	r3, .L23+44
 953 012c FFF7FEFF 		bl	__aeabi_ddiv
 954              	.LVL87:
 955              		.loc 1 189 47 view .LVU185
 956 0130 11A3     		adr	r3, .L23+8
 957 0132 D3E90023 		ldrd	r2, [r3]
 958 0136 FFF7FEFF 		bl	__aeabi_dmul
 959              	.LVL88:
 960              		.loc 1 189 17 view .LVU186
 961 013a C8E90201 		strd	r0, [r8, #8]
 190:Core/Src/main.c ****   buffer_xyz[2] = ((double)z_val * 0.488/1000)*9.81;
 962              		.loc 1 190 3 is_stmt 1 view .LVU187
 963              		.loc 1 190 20 is_stmt 0 view .LVU188
 964 013e 2046     		mov	r0, r4
 965 0140 FFF7FEFF 		bl	__aeabi_i2d
 966              	.LVL89:
 967              		.loc 1 190 34 view .LVU189
 968 0144 0AA3     		adr	r3, .L23
 969 0146 D3E90023 		ldrd	r2, [r3]
 970 014a FFF7FEFF 		bl	__aeabi_dmul
 971              	.LVL90:
 972              		.loc 1 190 41 view .LVU190
 973 014e 0022     		movs	r2, #0
 974 0150 124B     		ldr	r3, .L23+44
 975 0152 FFF7FEFF 		bl	__aeabi_ddiv
 976              	.LVL91:
 977              		.loc 1 190 47 view .LVU191
 978 0156 08A3     		adr	r3, .L23+8
 979 0158 D3E90023 		ldrd	r2, [r3]
 980 015c FFF7FEFF 		bl	__aeabi_dmul
 981              	.LVL92:
ARM GAS  /tmp/ccQ9BAu1.s 			page 22


 982              		.loc 1 190 17 view .LVU192
 983 0160 C8E90401 		strd	r0, [r8, #16]
 191:Core/Src/main.c **** }
 984              		.loc 1 191 1 view .LVU193
 985 0164 09B0     		add	sp, sp, #36
 986              		.cfi_def_cfa_offset 36
 987              		@ sp needed
 988 0166 BDE8F08F 		pop	{r4, r5, r6, r7, r8, r9, r10, fp, pc}
 989              	.LVL93:
 990              	.L24:
 991              		.loc 1 191 1 view .LVU194
 992 016a 00BFAFF3 		.align	3
 992      0080
 993              	.L23:
 994 0170 08AC1C5A 		.word	1511828488
 995 0174 643BDF3F 		.word	1071594340
 996 0178 1F85EB51 		.word	1374389535
 997 017c B89E2340 		.word	1076076216
 998 0180 00000000 		.word	hi2c1
 999 0184 00000000 		.word	.LC14
 1000 0188 0C000000 		.word	.LC15
 1001 018c 18000000 		.word	.LC16
 1002 0190 24000000 		.word	.LC17
 1003 0194 30000000 		.word	.LC18
 1004 0198 3C000000 		.word	.LC19
 1005 019c 00408F40 		.word	1083129856
 1006              		.cfi_endproc
 1007              	.LFE141:
 1009              		.section	.text.Error_Handler,"ax",%progbits
 1010              		.align	1
 1011              		.global	Error_Handler
 1012              		.syntax unified
 1013              		.thumb
 1014              		.thumb_func
 1016              	Error_Handler:
 1017              	.LFB144:
 192:Core/Src/main.c **** 
 193:Core/Src/main.c **** /* USER CODE END 0 */
 194:Core/Src/main.c **** 
 195:Core/Src/main.c **** /**
 196:Core/Src/main.c ****   * @brief  The application entry point.
 197:Core/Src/main.c ****   * @retval int
 198:Core/Src/main.c ****   */
 199:Core/Src/main.c **** int main(void)
 200:Core/Src/main.c **** {
 201:Core/Src/main.c **** 
 202:Core/Src/main.c ****   /* USER CODE BEGIN 1 */
 203:Core/Src/main.c ****   char data[100] =  "F411 says: I'm alive\n\r\0";
 204:Core/Src/main.c ****   send_message(data, PRIORITY_HIGH);
 205:Core/Src/main.c **** 
 206:Core/Src/main.c ****   /* USER CODE END 1 */
 207:Core/Src/main.c **** 
 208:Core/Src/main.c ****   /* MCU Configuration--------------------------------------------------------*/
 209:Core/Src/main.c **** 
 210:Core/Src/main.c ****   /* Reset of all peripherals, Initializes the Flash interface and the Systick. */
 211:Core/Src/main.c ****   HAL_Init();
 212:Core/Src/main.c **** 
ARM GAS  /tmp/ccQ9BAu1.s 			page 23


 213:Core/Src/main.c ****   /* USER CODE BEGIN Init */
 214:Core/Src/main.c **** 
 215:Core/Src/main.c ****   /* USER CODE END Init */
 216:Core/Src/main.c **** 
 217:Core/Src/main.c ****   /* Configure the system clock */
 218:Core/Src/main.c ****   SystemClock_Config();
 219:Core/Src/main.c **** 
 220:Core/Src/main.c ****   /* USER CODE BEGIN SysInit */
 221:Core/Src/main.c **** 
 222:Core/Src/main.c ****   /* USER CODE END SysInit */
 223:Core/Src/main.c **** 
 224:Core/Src/main.c ****   /* Initialize all configured peripherals */
 225:Core/Src/main.c ****   MX_GPIO_Init();
 226:Core/Src/main.c ****   MX_I2C1_Init();
 227:Core/Src/main.c ****   MX_USART1_UART_Init();
 228:Core/Src/main.c ****   MX_TIM1_Init();
 229:Core/Src/main.c ****   /* USER CODE BEGIN 2 */
 230:Core/Src/main.c ****   HAL_TIM_PWM_Start(&htim1, TIM_CHANNEL_1);
 231:Core/Src/main.c **** 
 232:Core/Src/main.c ****   char str_buf[100] =  "--------------------LSM6DS33 init--------------------------\n\r";
 233:Core/Src/main.c ****   send_message(str_buf, PRIORITY_HIGH);
 234:Core/Src/main.c **** 
 235:Core/Src/main.c ****   if (check_acc_identity())
 236:Core/Src/main.c ****   {
 237:Core/Src/main.c **** 		char buffer [100] = "ACCELEROMETER READ SUCCESSFULLY (nice)\n\r";
 238:Core/Src/main.c **** 		send_message(buffer, PRIORITY_HIGH);
 239:Core/Src/main.c **** 
 240:Core/Src/main.c ****     acc_power_on();
 241:Core/Src/main.c ****   }
 242:Core/Src/main.c ****   else
 243:Core/Src/main.c ****   {
 244:Core/Src/main.c **** 		char buffer [50] = "ACCELEROMETER READ ERROR\n\r";
 245:Core/Src/main.c **** 		send_message(buffer, PRIORITY_HIGH);
 246:Core/Src/main.c ****   }
 247:Core/Src/main.c **** 
 248:Core/Src/main.c ****   if (check_barometer_identity())
 249:Core/Src/main.c ****   {
 250:Core/Src/main.c **** 		char buffer [28] = "BMP READ SUCCESSFULLY\n\r";
 251:Core/Src/main.c **** 		send_message(buffer, PRIORITY_HIGH);
 252:Core/Src/main.c ****   }
 253:Core/Src/main.c ****   else
 254:Core/Src/main.c ****   {
 255:Core/Src/main.c **** 		char buffer [20] = "BMP READ ERROR\n\r";
 256:Core/Src/main.c **** 		send_message(buffer, PRIORITY_HIGH);
 257:Core/Src/main.c ****   }
 258:Core/Src/main.c **** 
 259:Core/Src/main.c ****   Read_Dig_Variables();
 260:Core/Src/main.c **** 
 261:Core/Src/main.c ****   //datasheet page 25, register ctrl_meas
 262:Core/Src/main.c ****   uint8_t ctrl_meas = 0b01001001;
 263:Core/Src/main.c ****   send_reg_log(HAL_I2C_Mem_Write(&hi2c1, 0x76 << 1, 0xF4, I2C_MEMADD_SIZE_8BIT, &ctrl_meas, 1, 0xFF
 264:Core/Src/main.c **** 
 265:Core/Src/main.c ****   /* USER CODE END 2 */
 266:Core/Src/main.c **** 
 267:Core/Src/main.c ****   /* Infinite loop */
 268:Core/Src/main.c ****   /* USER CODE BEGIN WHILE */
 269:Core/Src/main.c ****   while (1)
ARM GAS  /tmp/ccQ9BAu1.s 			page 24


 270:Core/Src/main.c ****   {
 271:Core/Src/main.c ****     HAL_Delay(1000);
 272:Core/Src/main.c **** 
 273:Core/Src/main.c ****     char data[100] =  "------------------------BMP----------------------\n\r\0";
 274:Core/Src/main.c ****     send_message(data, PRIORITY_HIGH);
 275:Core/Src/main.c **** 
 276:Core/Src/main.c ****     
 277:Core/Src/main.c ****     uint8_t temp_raw[3];
 278:Core/Src/main.c ****     temp_raw[0] = temp_raw[1] = temp_raw[2]  = 0;
 279:Core/Src/main.c ****     send_reg_log(HAL_I2C_Mem_Read(&hi2c1, 0x76 << 1, 0xFA, I2C_MEMADD_SIZE_8BIT, temp_raw, 1, 0xFF)
 280:Core/Src/main.c ****     send_reg_log(HAL_I2C_Mem_Read(&hi2c1, 0x76 << 1, 0xFB, I2C_MEMADD_SIZE_8BIT, temp_raw+1, 1, 0xF
 281:Core/Src/main.c ****     send_reg_log(HAL_I2C_Mem_Read(&hi2c1, 0x76 << 1, 0xFC, I2C_MEMADD_SIZE_8BIT, temp_raw+2, 1, 0xF
 282:Core/Src/main.c **** 
 283:Core/Src/main.c ****     int32_t temp_raw_32 = (int32_t) ( ((uint32_t)temp_raw[0] << 12) | ((uint32_t)temp_raw[1] << 4) 
 284:Core/Src/main.c ****     actual_temp = 0;
 285:Core/Src/main.c ****     actual_temp = bmp280_compensate_T_int32(temp_raw_32);
 286:Core/Src/main.c **** 
 287:Core/Src/main.c ****     char temp_str[100]; 
 288:Core/Src/main.c ****     sprintf(temp_str, "Temperature: %.2f Celsius\n\n\r", ((float)actual_temp)/100);
 289:Core/Src/main.c ****     send_message(temp_str, PRIORITY_HIGH);
 290:Core/Src/main.c **** 
 291:Core/Src/main.c ****     uint8_t pressure_raw[3];
 292:Core/Src/main.c ****     send_reg_log(HAL_I2C_Mem_Read(&hi2c1, 0x76 << 1, 0xF7, I2C_MEMADD_SIZE_8BIT, pressure_raw, 1, 0
 293:Core/Src/main.c ****     send_reg_log(HAL_I2C_Mem_Read(&hi2c1, 0x76 << 1, 0xF8, I2C_MEMADD_SIZE_8BIT, pressure_raw+1, 1,
 294:Core/Src/main.c ****     send_reg_log(HAL_I2C_Mem_Read(&hi2c1, 0x76 << 1, 0xF9, I2C_MEMADD_SIZE_8BIT, pressure_raw+2, 1,
 295:Core/Src/main.c **** 
 296:Core/Src/main.c ****     int32_t pressure_raw_32 = (int32_t) ( ((uint32_t)pressure_raw[0] << 12) | ((uint32_t)pressure_r
 297:Core/Src/main.c ****     actual_pressure = bmp280_compensate_P_int64(pressure_raw_32);
 298:Core/Src/main.c **** 
 299:Core/Src/main.c ****     char pressure_str[100];
 300:Core/Src/main.c ****     sprintf(pressure_str, "Pressure: %.4f Pa\n\n\r",  ((float)actual_pressure)/256);
 301:Core/Src/main.c ****     send_message(pressure_str, PRIORITY_HIGH);
 302:Core/Src/main.c **** 
 303:Core/Src/main.c ****     char data1[100] =  "------------------------ACC----------------------\n\r\0";
 304:Core/Src/main.c ****     send_message(data1, PRIORITY_HIGH);
 305:Core/Src/main.c **** 
 306:Core/Src/main.c ****     double acc_vals[3];
 307:Core/Src/main.c ****     Read_Acc(acc_vals);
 308:Core/Src/main.c **** 
 309:Core/Src/main.c ****     char acc_str[100]; 
 310:Core/Src/main.c ****     sprintf(acc_str, "Acceleration: (%0.4f, %0.4f, %0.4f) \n\n\r", acc_vals[0], acc_vals[1], acc_va
 311:Core/Src/main.c ****     send_message(acc_str, PRIORITY_HIGH);
 312:Core/Src/main.c **** 
 313:Core/Src/main.c ****     /* USER CODE END WHILE */
 314:Core/Src/main.c **** 
 315:Core/Src/main.c ****     /* USER CODE BEGIN 3 */
 316:Core/Src/main.c ****   }
 317:Core/Src/main.c ****   /* USER CODE END 3 */
 318:Core/Src/main.c **** }
 319:Core/Src/main.c **** 
 320:Core/Src/main.c **** /**
 321:Core/Src/main.c ****   * @brief System Clock Configuration
 322:Core/Src/main.c ****   * @retval None
 323:Core/Src/main.c ****   */
 324:Core/Src/main.c **** void SystemClock_Config(void)
 325:Core/Src/main.c **** {
 326:Core/Src/main.c ****   RCC_OscInitTypeDef RCC_OscInitStruct = {0};
ARM GAS  /tmp/ccQ9BAu1.s 			page 25


 327:Core/Src/main.c ****   RCC_ClkInitTypeDef RCC_ClkInitStruct = {0};
 328:Core/Src/main.c **** 
 329:Core/Src/main.c ****   /** Configure the main internal regulator output voltage
 330:Core/Src/main.c ****   */
 331:Core/Src/main.c ****   __HAL_RCC_PWR_CLK_ENABLE();
 332:Core/Src/main.c ****   __HAL_PWR_VOLTAGESCALING_CONFIG(PWR_REGULATOR_VOLTAGE_SCALE1);
 333:Core/Src/main.c **** 
 334:Core/Src/main.c ****   /** Initializes the RCC Oscillators according to the specified parameters
 335:Core/Src/main.c ****   * in the RCC_OscInitTypeDef structure.
 336:Core/Src/main.c ****   */
 337:Core/Src/main.c ****   RCC_OscInitStruct.OscillatorType = RCC_OSCILLATORTYPE_HSI;
 338:Core/Src/main.c ****   RCC_OscInitStruct.HSIState = RCC_HSI_ON;
 339:Core/Src/main.c ****   RCC_OscInitStruct.HSICalibrationValue = RCC_HSICALIBRATION_DEFAULT;
 340:Core/Src/main.c ****   RCC_OscInitStruct.PLL.PLLState = RCC_PLL_ON;
 341:Core/Src/main.c ****   RCC_OscInitStruct.PLL.PLLSource = RCC_PLLSOURCE_HSI;
 342:Core/Src/main.c ****   RCC_OscInitStruct.PLL.PLLM = 8;
 343:Core/Src/main.c ****   RCC_OscInitStruct.PLL.PLLN = 100;
 344:Core/Src/main.c ****   RCC_OscInitStruct.PLL.PLLP = RCC_PLLP_DIV2;
 345:Core/Src/main.c ****   RCC_OscInitStruct.PLL.PLLQ = 4;
 346:Core/Src/main.c ****   if (HAL_RCC_OscConfig(&RCC_OscInitStruct) != HAL_OK)
 347:Core/Src/main.c ****   {
 348:Core/Src/main.c ****     Error_Handler();
 349:Core/Src/main.c ****   }
 350:Core/Src/main.c **** 
 351:Core/Src/main.c ****   /** Initializes the CPU, AHB and APB buses clocks
 352:Core/Src/main.c ****   */
 353:Core/Src/main.c ****   RCC_ClkInitStruct.ClockType = RCC_CLOCKTYPE_HCLK|RCC_CLOCKTYPE_SYSCLK
 354:Core/Src/main.c ****                               |RCC_CLOCKTYPE_PCLK1|RCC_CLOCKTYPE_PCLK2;
 355:Core/Src/main.c ****   RCC_ClkInitStruct.SYSCLKSource = RCC_SYSCLKSOURCE_PLLCLK;
 356:Core/Src/main.c ****   RCC_ClkInitStruct.AHBCLKDivider = RCC_SYSCLK_DIV1;
 357:Core/Src/main.c ****   RCC_ClkInitStruct.APB1CLKDivider = RCC_HCLK_DIV2;
 358:Core/Src/main.c ****   RCC_ClkInitStruct.APB2CLKDivider = RCC_HCLK_DIV1;
 359:Core/Src/main.c **** 
 360:Core/Src/main.c ****   if (HAL_RCC_ClockConfig(&RCC_ClkInitStruct, FLASH_LATENCY_3) != HAL_OK)
 361:Core/Src/main.c ****   {
 362:Core/Src/main.c ****     Error_Handler();
 363:Core/Src/main.c ****   }
 364:Core/Src/main.c **** }
 365:Core/Src/main.c **** 
 366:Core/Src/main.c **** /* USER CODE BEGIN 4 */
 367:Core/Src/main.c **** 
 368:Core/Src/main.c **** /* USER CODE END 4 */
 369:Core/Src/main.c **** 
 370:Core/Src/main.c **** /**
 371:Core/Src/main.c ****   * @brief  This function is executed in case of error occurrence.
 372:Core/Src/main.c ****   * @retval None
 373:Core/Src/main.c ****   */
 374:Core/Src/main.c **** void Error_Handler(void)
 375:Core/Src/main.c **** {
 1018              		.loc 1 375 1 is_stmt 1 view -0
 1019              		.cfi_startproc
 1020              		@ Volatile: function does not return.
 1021              		@ args = 0, pretend = 0, frame = 0
 1022              		@ frame_needed = 0, uses_anonymous_args = 0
 1023              		@ link register save eliminated.
 376:Core/Src/main.c ****   /* USER CODE BEGIN Error_Handler_Debug */
 377:Core/Src/main.c ****   /* User can add his own implementation to report the HAL error return state */
ARM GAS  /tmp/ccQ9BAu1.s 			page 26


 378:Core/Src/main.c ****   __disable_irq();
 1024              		.loc 1 378 3 view .LVU196
 1025              	.LBB6:
 1026              	.LBI6:
 1027              		.file 2 "Drivers/CMSIS/Include/cmsis_gcc.h"
   1:Drivers/CMSIS/Include/cmsis_gcc.h **** /**************************************************************************//**
   2:Drivers/CMSIS/Include/cmsis_gcc.h ****  * @file     cmsis_gcc.h
   3:Drivers/CMSIS/Include/cmsis_gcc.h ****  * @brief    CMSIS compiler GCC header file
   4:Drivers/CMSIS/Include/cmsis_gcc.h ****  * @version  V5.4.1
   5:Drivers/CMSIS/Include/cmsis_gcc.h ****  * @date     27. May 2021
   6:Drivers/CMSIS/Include/cmsis_gcc.h ****  ******************************************************************************/
   7:Drivers/CMSIS/Include/cmsis_gcc.h **** /*
   8:Drivers/CMSIS/Include/cmsis_gcc.h ****  * Copyright (c) 2009-2021 Arm Limited. All rights reserved.
   9:Drivers/CMSIS/Include/cmsis_gcc.h ****  *
  10:Drivers/CMSIS/Include/cmsis_gcc.h ****  * SPDX-License-Identifier: Apache-2.0
  11:Drivers/CMSIS/Include/cmsis_gcc.h ****  *
  12:Drivers/CMSIS/Include/cmsis_gcc.h ****  * Licensed under the Apache License, Version 2.0 (the License); you may
  13:Drivers/CMSIS/Include/cmsis_gcc.h ****  * not use this file except in compliance with the License.
  14:Drivers/CMSIS/Include/cmsis_gcc.h ****  * You may obtain a copy of the License at
  15:Drivers/CMSIS/Include/cmsis_gcc.h ****  *
  16:Drivers/CMSIS/Include/cmsis_gcc.h ****  * www.apache.org/licenses/LICENSE-2.0
  17:Drivers/CMSIS/Include/cmsis_gcc.h ****  *
  18:Drivers/CMSIS/Include/cmsis_gcc.h ****  * Unless required by applicable law or agreed to in writing, software
  19:Drivers/CMSIS/Include/cmsis_gcc.h ****  * distributed under the License is distributed on an AS IS BASIS, WITHOUT
  20:Drivers/CMSIS/Include/cmsis_gcc.h ****  * WARRANTIES OR CONDITIONS OF ANY KIND, either express or implied.
  21:Drivers/CMSIS/Include/cmsis_gcc.h ****  * See the License for the specific language governing permissions and
  22:Drivers/CMSIS/Include/cmsis_gcc.h ****  * limitations under the License.
  23:Drivers/CMSIS/Include/cmsis_gcc.h ****  */
  24:Drivers/CMSIS/Include/cmsis_gcc.h **** 
  25:Drivers/CMSIS/Include/cmsis_gcc.h **** #ifndef __CMSIS_GCC_H
  26:Drivers/CMSIS/Include/cmsis_gcc.h **** #define __CMSIS_GCC_H
  27:Drivers/CMSIS/Include/cmsis_gcc.h **** 
  28:Drivers/CMSIS/Include/cmsis_gcc.h **** /* ignore some GCC warnings */
  29:Drivers/CMSIS/Include/cmsis_gcc.h **** #pragma GCC diagnostic push
  30:Drivers/CMSIS/Include/cmsis_gcc.h **** #pragma GCC diagnostic ignored "-Wsign-conversion"
  31:Drivers/CMSIS/Include/cmsis_gcc.h **** #pragma GCC diagnostic ignored "-Wconversion"
  32:Drivers/CMSIS/Include/cmsis_gcc.h **** #pragma GCC diagnostic ignored "-Wunused-parameter"
  33:Drivers/CMSIS/Include/cmsis_gcc.h **** 
  34:Drivers/CMSIS/Include/cmsis_gcc.h **** /* Fallback for __has_builtin */
  35:Drivers/CMSIS/Include/cmsis_gcc.h **** #ifndef __has_builtin
  36:Drivers/CMSIS/Include/cmsis_gcc.h ****   #define __has_builtin(x) (0)
  37:Drivers/CMSIS/Include/cmsis_gcc.h **** #endif
  38:Drivers/CMSIS/Include/cmsis_gcc.h **** 
  39:Drivers/CMSIS/Include/cmsis_gcc.h **** /* CMSIS compiler specific defines */
  40:Drivers/CMSIS/Include/cmsis_gcc.h **** #ifndef   __ASM
  41:Drivers/CMSIS/Include/cmsis_gcc.h ****   #define __ASM                                  __asm
  42:Drivers/CMSIS/Include/cmsis_gcc.h **** #endif
  43:Drivers/CMSIS/Include/cmsis_gcc.h **** #ifndef   __INLINE
  44:Drivers/CMSIS/Include/cmsis_gcc.h ****   #define __INLINE                               inline
  45:Drivers/CMSIS/Include/cmsis_gcc.h **** #endif
  46:Drivers/CMSIS/Include/cmsis_gcc.h **** #ifndef   __STATIC_INLINE
  47:Drivers/CMSIS/Include/cmsis_gcc.h ****   #define __STATIC_INLINE                        static inline
  48:Drivers/CMSIS/Include/cmsis_gcc.h **** #endif
  49:Drivers/CMSIS/Include/cmsis_gcc.h **** #ifndef   __STATIC_FORCEINLINE
  50:Drivers/CMSIS/Include/cmsis_gcc.h ****   #define __STATIC_FORCEINLINE                   __attribute__((always_inline)) static inline
  51:Drivers/CMSIS/Include/cmsis_gcc.h **** #endif
  52:Drivers/CMSIS/Include/cmsis_gcc.h **** #ifndef   __NO_RETURN
ARM GAS  /tmp/ccQ9BAu1.s 			page 27


  53:Drivers/CMSIS/Include/cmsis_gcc.h ****   #define __NO_RETURN                            __attribute__((__noreturn__))
  54:Drivers/CMSIS/Include/cmsis_gcc.h **** #endif
  55:Drivers/CMSIS/Include/cmsis_gcc.h **** #ifndef   __USED
  56:Drivers/CMSIS/Include/cmsis_gcc.h ****   #define __USED                                 __attribute__((used))
  57:Drivers/CMSIS/Include/cmsis_gcc.h **** #endif
  58:Drivers/CMSIS/Include/cmsis_gcc.h **** #ifndef   __WEAK
  59:Drivers/CMSIS/Include/cmsis_gcc.h ****   #define __WEAK                                 __attribute__((weak))
  60:Drivers/CMSIS/Include/cmsis_gcc.h **** #endif
  61:Drivers/CMSIS/Include/cmsis_gcc.h **** #ifndef   __PACKED
  62:Drivers/CMSIS/Include/cmsis_gcc.h ****   #define __PACKED                               __attribute__((packed, aligned(1)))
  63:Drivers/CMSIS/Include/cmsis_gcc.h **** #endif
  64:Drivers/CMSIS/Include/cmsis_gcc.h **** #ifndef   __PACKED_STRUCT
  65:Drivers/CMSIS/Include/cmsis_gcc.h ****   #define __PACKED_STRUCT                        struct __attribute__((packed, aligned(1)))
  66:Drivers/CMSIS/Include/cmsis_gcc.h **** #endif
  67:Drivers/CMSIS/Include/cmsis_gcc.h **** #ifndef   __PACKED_UNION
  68:Drivers/CMSIS/Include/cmsis_gcc.h ****   #define __PACKED_UNION                         union __attribute__((packed, aligned(1)))
  69:Drivers/CMSIS/Include/cmsis_gcc.h **** #endif
  70:Drivers/CMSIS/Include/cmsis_gcc.h **** #ifndef   __UNALIGNED_UINT32        /* deprecated */
  71:Drivers/CMSIS/Include/cmsis_gcc.h ****   #pragma GCC diagnostic push
  72:Drivers/CMSIS/Include/cmsis_gcc.h ****   #pragma GCC diagnostic ignored "-Wpacked"
  73:Drivers/CMSIS/Include/cmsis_gcc.h ****   #pragma GCC diagnostic ignored "-Wattributes"
  74:Drivers/CMSIS/Include/cmsis_gcc.h ****   struct __attribute__((packed)) T_UINT32 { uint32_t v; };
  75:Drivers/CMSIS/Include/cmsis_gcc.h ****   #pragma GCC diagnostic pop
  76:Drivers/CMSIS/Include/cmsis_gcc.h ****   #define __UNALIGNED_UINT32(x)                  (((struct T_UINT32 *)(x))->v)
  77:Drivers/CMSIS/Include/cmsis_gcc.h **** #endif
  78:Drivers/CMSIS/Include/cmsis_gcc.h **** #ifndef   __UNALIGNED_UINT16_WRITE
  79:Drivers/CMSIS/Include/cmsis_gcc.h ****   #pragma GCC diagnostic push
  80:Drivers/CMSIS/Include/cmsis_gcc.h ****   #pragma GCC diagnostic ignored "-Wpacked"
  81:Drivers/CMSIS/Include/cmsis_gcc.h ****   #pragma GCC diagnostic ignored "-Wattributes"
  82:Drivers/CMSIS/Include/cmsis_gcc.h ****   __PACKED_STRUCT T_UINT16_WRITE { uint16_t v; };
  83:Drivers/CMSIS/Include/cmsis_gcc.h ****   #pragma GCC diagnostic pop
  84:Drivers/CMSIS/Include/cmsis_gcc.h ****   #define __UNALIGNED_UINT16_WRITE(addr, val)    (void)((((struct T_UINT16_WRITE *)(void *)(addr))-
  85:Drivers/CMSIS/Include/cmsis_gcc.h **** #endif
  86:Drivers/CMSIS/Include/cmsis_gcc.h **** #ifndef   __UNALIGNED_UINT16_READ
  87:Drivers/CMSIS/Include/cmsis_gcc.h ****   #pragma GCC diagnostic push
  88:Drivers/CMSIS/Include/cmsis_gcc.h ****   #pragma GCC diagnostic ignored "-Wpacked"
  89:Drivers/CMSIS/Include/cmsis_gcc.h ****   #pragma GCC diagnostic ignored "-Wattributes"
  90:Drivers/CMSIS/Include/cmsis_gcc.h ****   __PACKED_STRUCT T_UINT16_READ { uint16_t v; };
  91:Drivers/CMSIS/Include/cmsis_gcc.h ****   #pragma GCC diagnostic pop
  92:Drivers/CMSIS/Include/cmsis_gcc.h ****   #define __UNALIGNED_UINT16_READ(addr)          (((const struct T_UINT16_READ *)(const void *)(add
  93:Drivers/CMSIS/Include/cmsis_gcc.h **** #endif
  94:Drivers/CMSIS/Include/cmsis_gcc.h **** #ifndef   __UNALIGNED_UINT32_WRITE
  95:Drivers/CMSIS/Include/cmsis_gcc.h ****   #pragma GCC diagnostic push
  96:Drivers/CMSIS/Include/cmsis_gcc.h ****   #pragma GCC diagnostic ignored "-Wpacked"
  97:Drivers/CMSIS/Include/cmsis_gcc.h ****   #pragma GCC diagnostic ignored "-Wattributes"
  98:Drivers/CMSIS/Include/cmsis_gcc.h ****   __PACKED_STRUCT T_UINT32_WRITE { uint32_t v; };
  99:Drivers/CMSIS/Include/cmsis_gcc.h ****   #pragma GCC diagnostic pop
 100:Drivers/CMSIS/Include/cmsis_gcc.h ****   #define __UNALIGNED_UINT32_WRITE(addr, val)    (void)((((struct T_UINT32_WRITE *)(void *)(addr))-
 101:Drivers/CMSIS/Include/cmsis_gcc.h **** #endif
 102:Drivers/CMSIS/Include/cmsis_gcc.h **** #ifndef   __UNALIGNED_UINT32_READ
 103:Drivers/CMSIS/Include/cmsis_gcc.h ****   #pragma GCC diagnostic push
 104:Drivers/CMSIS/Include/cmsis_gcc.h ****   #pragma GCC diagnostic ignored "-Wpacked"
 105:Drivers/CMSIS/Include/cmsis_gcc.h ****   #pragma GCC diagnostic ignored "-Wattributes"
 106:Drivers/CMSIS/Include/cmsis_gcc.h ****   __PACKED_STRUCT T_UINT32_READ { uint32_t v; };
 107:Drivers/CMSIS/Include/cmsis_gcc.h ****   #pragma GCC diagnostic pop
 108:Drivers/CMSIS/Include/cmsis_gcc.h ****   #define __UNALIGNED_UINT32_READ(addr)          (((const struct T_UINT32_READ *)(const void *)(add
 109:Drivers/CMSIS/Include/cmsis_gcc.h **** #endif
ARM GAS  /tmp/ccQ9BAu1.s 			page 28


 110:Drivers/CMSIS/Include/cmsis_gcc.h **** #ifndef   __ALIGNED
 111:Drivers/CMSIS/Include/cmsis_gcc.h ****   #define __ALIGNED(x)                           __attribute__((aligned(x)))
 112:Drivers/CMSIS/Include/cmsis_gcc.h **** #endif
 113:Drivers/CMSIS/Include/cmsis_gcc.h **** #ifndef   __RESTRICT
 114:Drivers/CMSIS/Include/cmsis_gcc.h ****   #define __RESTRICT                             __restrict
 115:Drivers/CMSIS/Include/cmsis_gcc.h **** #endif
 116:Drivers/CMSIS/Include/cmsis_gcc.h **** #ifndef   __COMPILER_BARRIER
 117:Drivers/CMSIS/Include/cmsis_gcc.h ****   #define __COMPILER_BARRIER()                   __ASM volatile("":::"memory")
 118:Drivers/CMSIS/Include/cmsis_gcc.h **** #endif
 119:Drivers/CMSIS/Include/cmsis_gcc.h **** 
 120:Drivers/CMSIS/Include/cmsis_gcc.h **** /* #########################  Startup and Lowlevel Init  ######################## */
 121:Drivers/CMSIS/Include/cmsis_gcc.h **** 
 122:Drivers/CMSIS/Include/cmsis_gcc.h **** #ifndef __PROGRAM_START
 123:Drivers/CMSIS/Include/cmsis_gcc.h **** 
 124:Drivers/CMSIS/Include/cmsis_gcc.h **** /**
 125:Drivers/CMSIS/Include/cmsis_gcc.h ****   \brief   Initializes data and bss sections
 126:Drivers/CMSIS/Include/cmsis_gcc.h ****   \details This default implementations initialized all data and additional bss
 127:Drivers/CMSIS/Include/cmsis_gcc.h ****            sections relying on .copy.table and .zero.table specified properly
 128:Drivers/CMSIS/Include/cmsis_gcc.h ****            in the used linker script.
 129:Drivers/CMSIS/Include/cmsis_gcc.h **** 
 130:Drivers/CMSIS/Include/cmsis_gcc.h ****  */
 131:Drivers/CMSIS/Include/cmsis_gcc.h **** __STATIC_FORCEINLINE __NO_RETURN void __cmsis_start(void)
 132:Drivers/CMSIS/Include/cmsis_gcc.h **** {
 133:Drivers/CMSIS/Include/cmsis_gcc.h ****   extern void _start(void) __NO_RETURN;
 134:Drivers/CMSIS/Include/cmsis_gcc.h **** 
 135:Drivers/CMSIS/Include/cmsis_gcc.h ****   typedef struct {
 136:Drivers/CMSIS/Include/cmsis_gcc.h ****     uint32_t const* src;
 137:Drivers/CMSIS/Include/cmsis_gcc.h ****     uint32_t* dest;
 138:Drivers/CMSIS/Include/cmsis_gcc.h ****     uint32_t  wlen;
 139:Drivers/CMSIS/Include/cmsis_gcc.h ****   } __copy_table_t;
 140:Drivers/CMSIS/Include/cmsis_gcc.h **** 
 141:Drivers/CMSIS/Include/cmsis_gcc.h ****   typedef struct {
 142:Drivers/CMSIS/Include/cmsis_gcc.h ****     uint32_t* dest;
 143:Drivers/CMSIS/Include/cmsis_gcc.h ****     uint32_t  wlen;
 144:Drivers/CMSIS/Include/cmsis_gcc.h ****   } __zero_table_t;
 145:Drivers/CMSIS/Include/cmsis_gcc.h **** 
 146:Drivers/CMSIS/Include/cmsis_gcc.h ****   extern const __copy_table_t __copy_table_start__;
 147:Drivers/CMSIS/Include/cmsis_gcc.h ****   extern const __copy_table_t __copy_table_end__;
 148:Drivers/CMSIS/Include/cmsis_gcc.h ****   extern const __zero_table_t __zero_table_start__;
 149:Drivers/CMSIS/Include/cmsis_gcc.h ****   extern const __zero_table_t __zero_table_end__;
 150:Drivers/CMSIS/Include/cmsis_gcc.h **** 
 151:Drivers/CMSIS/Include/cmsis_gcc.h ****   for (__copy_table_t const* pTable = &__copy_table_start__; pTable < &__copy_table_end__; ++pTable
 152:Drivers/CMSIS/Include/cmsis_gcc.h ****     for(uint32_t i=0u; i<pTable->wlen; ++i) {
 153:Drivers/CMSIS/Include/cmsis_gcc.h ****       pTable->dest[i] = pTable->src[i];
 154:Drivers/CMSIS/Include/cmsis_gcc.h ****     }
 155:Drivers/CMSIS/Include/cmsis_gcc.h ****   }
 156:Drivers/CMSIS/Include/cmsis_gcc.h **** 
 157:Drivers/CMSIS/Include/cmsis_gcc.h ****   for (__zero_table_t const* pTable = &__zero_table_start__; pTable < &__zero_table_end__; ++pTable
 158:Drivers/CMSIS/Include/cmsis_gcc.h ****     for(uint32_t i=0u; i<pTable->wlen; ++i) {
 159:Drivers/CMSIS/Include/cmsis_gcc.h ****       pTable->dest[i] = 0u;
 160:Drivers/CMSIS/Include/cmsis_gcc.h ****     }
 161:Drivers/CMSIS/Include/cmsis_gcc.h ****   }
 162:Drivers/CMSIS/Include/cmsis_gcc.h **** 
 163:Drivers/CMSIS/Include/cmsis_gcc.h ****   _start();
 164:Drivers/CMSIS/Include/cmsis_gcc.h **** }
 165:Drivers/CMSIS/Include/cmsis_gcc.h **** 
 166:Drivers/CMSIS/Include/cmsis_gcc.h **** #define __PROGRAM_START           __cmsis_start
ARM GAS  /tmp/ccQ9BAu1.s 			page 29


 167:Drivers/CMSIS/Include/cmsis_gcc.h **** #endif
 168:Drivers/CMSIS/Include/cmsis_gcc.h **** 
 169:Drivers/CMSIS/Include/cmsis_gcc.h **** #ifndef __INITIAL_SP
 170:Drivers/CMSIS/Include/cmsis_gcc.h **** #define __INITIAL_SP              __StackTop
 171:Drivers/CMSIS/Include/cmsis_gcc.h **** #endif
 172:Drivers/CMSIS/Include/cmsis_gcc.h **** 
 173:Drivers/CMSIS/Include/cmsis_gcc.h **** #ifndef __STACK_LIMIT
 174:Drivers/CMSIS/Include/cmsis_gcc.h **** #define __STACK_LIMIT             __StackLimit
 175:Drivers/CMSIS/Include/cmsis_gcc.h **** #endif
 176:Drivers/CMSIS/Include/cmsis_gcc.h **** 
 177:Drivers/CMSIS/Include/cmsis_gcc.h **** #ifndef __VECTOR_TABLE
 178:Drivers/CMSIS/Include/cmsis_gcc.h **** #define __VECTOR_TABLE            __Vectors
 179:Drivers/CMSIS/Include/cmsis_gcc.h **** #endif
 180:Drivers/CMSIS/Include/cmsis_gcc.h **** 
 181:Drivers/CMSIS/Include/cmsis_gcc.h **** #ifndef __VECTOR_TABLE_ATTRIBUTE
 182:Drivers/CMSIS/Include/cmsis_gcc.h **** #define __VECTOR_TABLE_ATTRIBUTE  __attribute__((used, section(".vectors")))
 183:Drivers/CMSIS/Include/cmsis_gcc.h **** #endif
 184:Drivers/CMSIS/Include/cmsis_gcc.h **** 
 185:Drivers/CMSIS/Include/cmsis_gcc.h **** #if defined (__ARM_FEATURE_CMSE) && (__ARM_FEATURE_CMSE == 3U)
 186:Drivers/CMSIS/Include/cmsis_gcc.h **** #ifndef __STACK_SEAL
 187:Drivers/CMSIS/Include/cmsis_gcc.h **** #define __STACK_SEAL              __StackSeal
 188:Drivers/CMSIS/Include/cmsis_gcc.h **** #endif
 189:Drivers/CMSIS/Include/cmsis_gcc.h **** 
 190:Drivers/CMSIS/Include/cmsis_gcc.h **** #ifndef __TZ_STACK_SEAL_SIZE
 191:Drivers/CMSIS/Include/cmsis_gcc.h **** #define __TZ_STACK_SEAL_SIZE      8U
 192:Drivers/CMSIS/Include/cmsis_gcc.h **** #endif
 193:Drivers/CMSIS/Include/cmsis_gcc.h **** 
 194:Drivers/CMSIS/Include/cmsis_gcc.h **** #ifndef __TZ_STACK_SEAL_VALUE
 195:Drivers/CMSIS/Include/cmsis_gcc.h **** #define __TZ_STACK_SEAL_VALUE     0xFEF5EDA5FEF5EDA5ULL
 196:Drivers/CMSIS/Include/cmsis_gcc.h **** #endif
 197:Drivers/CMSIS/Include/cmsis_gcc.h **** 
 198:Drivers/CMSIS/Include/cmsis_gcc.h **** 
 199:Drivers/CMSIS/Include/cmsis_gcc.h **** __STATIC_FORCEINLINE void __TZ_set_STACKSEAL_S (uint32_t* stackTop) {
 200:Drivers/CMSIS/Include/cmsis_gcc.h ****   *((uint64_t *)stackTop) = __TZ_STACK_SEAL_VALUE;
 201:Drivers/CMSIS/Include/cmsis_gcc.h **** }
 202:Drivers/CMSIS/Include/cmsis_gcc.h **** #endif
 203:Drivers/CMSIS/Include/cmsis_gcc.h **** 
 204:Drivers/CMSIS/Include/cmsis_gcc.h **** 
 205:Drivers/CMSIS/Include/cmsis_gcc.h **** /* ##########################  Core Instruction Access  ######################### */
 206:Drivers/CMSIS/Include/cmsis_gcc.h **** /** \defgroup CMSIS_Core_InstructionInterface CMSIS Core Instruction Interface
 207:Drivers/CMSIS/Include/cmsis_gcc.h ****   Access to dedicated instructions
 208:Drivers/CMSIS/Include/cmsis_gcc.h ****   @{
 209:Drivers/CMSIS/Include/cmsis_gcc.h **** */
 210:Drivers/CMSIS/Include/cmsis_gcc.h **** 
 211:Drivers/CMSIS/Include/cmsis_gcc.h **** /* Define macros for porting to both thumb1 and thumb2.
 212:Drivers/CMSIS/Include/cmsis_gcc.h ****  * For thumb1, use low register (r0-r7), specified by constraint "l"
 213:Drivers/CMSIS/Include/cmsis_gcc.h ****  * Otherwise, use general registers, specified by constraint "r" */
 214:Drivers/CMSIS/Include/cmsis_gcc.h **** #if defined (__thumb__) && !defined (__thumb2__)
 215:Drivers/CMSIS/Include/cmsis_gcc.h **** #define __CMSIS_GCC_OUT_REG(r) "=l" (r)
 216:Drivers/CMSIS/Include/cmsis_gcc.h **** #define __CMSIS_GCC_RW_REG(r) "+l" (r)
 217:Drivers/CMSIS/Include/cmsis_gcc.h **** #define __CMSIS_GCC_USE_REG(r) "l" (r)
 218:Drivers/CMSIS/Include/cmsis_gcc.h **** #else
 219:Drivers/CMSIS/Include/cmsis_gcc.h **** #define __CMSIS_GCC_OUT_REG(r) "=r" (r)
 220:Drivers/CMSIS/Include/cmsis_gcc.h **** #define __CMSIS_GCC_RW_REG(r) "+r" (r)
 221:Drivers/CMSIS/Include/cmsis_gcc.h **** #define __CMSIS_GCC_USE_REG(r) "r" (r)
 222:Drivers/CMSIS/Include/cmsis_gcc.h **** #endif
 223:Drivers/CMSIS/Include/cmsis_gcc.h **** 
ARM GAS  /tmp/ccQ9BAu1.s 			page 30


 224:Drivers/CMSIS/Include/cmsis_gcc.h **** /**
 225:Drivers/CMSIS/Include/cmsis_gcc.h ****   \brief   No Operation
 226:Drivers/CMSIS/Include/cmsis_gcc.h ****   \details No Operation does nothing. This instruction can be used for code alignment purposes.
 227:Drivers/CMSIS/Include/cmsis_gcc.h ****  */
 228:Drivers/CMSIS/Include/cmsis_gcc.h **** #define __NOP()                             __ASM volatile ("nop")
 229:Drivers/CMSIS/Include/cmsis_gcc.h **** 
 230:Drivers/CMSIS/Include/cmsis_gcc.h **** /**
 231:Drivers/CMSIS/Include/cmsis_gcc.h ****   \brief   Wait For Interrupt
 232:Drivers/CMSIS/Include/cmsis_gcc.h ****   \details Wait For Interrupt is a hint instruction that suspends execution until one of a number o
 233:Drivers/CMSIS/Include/cmsis_gcc.h ****  */
 234:Drivers/CMSIS/Include/cmsis_gcc.h **** #define __WFI()                             __ASM volatile ("wfi":::"memory")
 235:Drivers/CMSIS/Include/cmsis_gcc.h **** 
 236:Drivers/CMSIS/Include/cmsis_gcc.h **** 
 237:Drivers/CMSIS/Include/cmsis_gcc.h **** /**
 238:Drivers/CMSIS/Include/cmsis_gcc.h ****   \brief   Wait For Event
 239:Drivers/CMSIS/Include/cmsis_gcc.h ****   \details Wait For Event is a hint instruction that permits the processor to enter
 240:Drivers/CMSIS/Include/cmsis_gcc.h ****            a low-power state until one of a number of events occurs.
 241:Drivers/CMSIS/Include/cmsis_gcc.h ****  */
 242:Drivers/CMSIS/Include/cmsis_gcc.h **** #define __WFE()                             __ASM volatile ("wfe":::"memory")
 243:Drivers/CMSIS/Include/cmsis_gcc.h **** 
 244:Drivers/CMSIS/Include/cmsis_gcc.h **** 
 245:Drivers/CMSIS/Include/cmsis_gcc.h **** /**
 246:Drivers/CMSIS/Include/cmsis_gcc.h ****   \brief   Send Event
 247:Drivers/CMSIS/Include/cmsis_gcc.h ****   \details Send Event is a hint instruction. It causes an event to be signaled to the CPU.
 248:Drivers/CMSIS/Include/cmsis_gcc.h ****  */
 249:Drivers/CMSIS/Include/cmsis_gcc.h **** #define __SEV()                             __ASM volatile ("sev")
 250:Drivers/CMSIS/Include/cmsis_gcc.h **** 
 251:Drivers/CMSIS/Include/cmsis_gcc.h **** 
 252:Drivers/CMSIS/Include/cmsis_gcc.h **** /**
 253:Drivers/CMSIS/Include/cmsis_gcc.h ****   \brief   Instruction Synchronization Barrier
 254:Drivers/CMSIS/Include/cmsis_gcc.h ****   \details Instruction Synchronization Barrier flushes the pipeline in the processor,
 255:Drivers/CMSIS/Include/cmsis_gcc.h ****            so that all instructions following the ISB are fetched from cache or memory,
 256:Drivers/CMSIS/Include/cmsis_gcc.h ****            after the instruction has been completed.
 257:Drivers/CMSIS/Include/cmsis_gcc.h ****  */
 258:Drivers/CMSIS/Include/cmsis_gcc.h **** __STATIC_FORCEINLINE void __ISB(void)
 259:Drivers/CMSIS/Include/cmsis_gcc.h **** {
 260:Drivers/CMSIS/Include/cmsis_gcc.h ****   __ASM volatile ("isb 0xF":::"memory");
 261:Drivers/CMSIS/Include/cmsis_gcc.h **** }
 262:Drivers/CMSIS/Include/cmsis_gcc.h **** 
 263:Drivers/CMSIS/Include/cmsis_gcc.h **** 
 264:Drivers/CMSIS/Include/cmsis_gcc.h **** /**
 265:Drivers/CMSIS/Include/cmsis_gcc.h ****   \brief   Data Synchronization Barrier
 266:Drivers/CMSIS/Include/cmsis_gcc.h ****   \details Acts as a special kind of Data Memory Barrier.
 267:Drivers/CMSIS/Include/cmsis_gcc.h ****            It completes when all explicit memory accesses before this instruction complete.
 268:Drivers/CMSIS/Include/cmsis_gcc.h ****  */
 269:Drivers/CMSIS/Include/cmsis_gcc.h **** __STATIC_FORCEINLINE void __DSB(void)
 270:Drivers/CMSIS/Include/cmsis_gcc.h **** {
 271:Drivers/CMSIS/Include/cmsis_gcc.h ****   __ASM volatile ("dsb 0xF":::"memory");
 272:Drivers/CMSIS/Include/cmsis_gcc.h **** }
 273:Drivers/CMSIS/Include/cmsis_gcc.h **** 
 274:Drivers/CMSIS/Include/cmsis_gcc.h **** 
 275:Drivers/CMSIS/Include/cmsis_gcc.h **** /**
 276:Drivers/CMSIS/Include/cmsis_gcc.h ****   \brief   Data Memory Barrier
 277:Drivers/CMSIS/Include/cmsis_gcc.h ****   \details Ensures the apparent order of the explicit memory operations before
 278:Drivers/CMSIS/Include/cmsis_gcc.h ****            and after the instruction, without ensuring their completion.
 279:Drivers/CMSIS/Include/cmsis_gcc.h ****  */
 280:Drivers/CMSIS/Include/cmsis_gcc.h **** __STATIC_FORCEINLINE void __DMB(void)
ARM GAS  /tmp/ccQ9BAu1.s 			page 31


 281:Drivers/CMSIS/Include/cmsis_gcc.h **** {
 282:Drivers/CMSIS/Include/cmsis_gcc.h ****   __ASM volatile ("dmb 0xF":::"memory");
 283:Drivers/CMSIS/Include/cmsis_gcc.h **** }
 284:Drivers/CMSIS/Include/cmsis_gcc.h **** 
 285:Drivers/CMSIS/Include/cmsis_gcc.h **** 
 286:Drivers/CMSIS/Include/cmsis_gcc.h **** /**
 287:Drivers/CMSIS/Include/cmsis_gcc.h ****   \brief   Reverse byte order (32 bit)
 288:Drivers/CMSIS/Include/cmsis_gcc.h ****   \details Reverses the byte order in unsigned integer value. For example, 0x12345678 becomes 0x785
 289:Drivers/CMSIS/Include/cmsis_gcc.h ****   \param [in]    value  Value to reverse
 290:Drivers/CMSIS/Include/cmsis_gcc.h ****   \return               Reversed value
 291:Drivers/CMSIS/Include/cmsis_gcc.h ****  */
 292:Drivers/CMSIS/Include/cmsis_gcc.h **** __STATIC_FORCEINLINE uint32_t __REV(uint32_t value)
 293:Drivers/CMSIS/Include/cmsis_gcc.h **** {
 294:Drivers/CMSIS/Include/cmsis_gcc.h **** #if (__GNUC__ > 4) || (__GNUC__ == 4 && __GNUC_MINOR__ >= 5)
 295:Drivers/CMSIS/Include/cmsis_gcc.h ****   return __builtin_bswap32(value);
 296:Drivers/CMSIS/Include/cmsis_gcc.h **** #else
 297:Drivers/CMSIS/Include/cmsis_gcc.h ****   uint32_t result;
 298:Drivers/CMSIS/Include/cmsis_gcc.h **** 
 299:Drivers/CMSIS/Include/cmsis_gcc.h ****   __ASM ("rev %0, %1" : __CMSIS_GCC_OUT_REG (result) : __CMSIS_GCC_USE_REG (value) );
 300:Drivers/CMSIS/Include/cmsis_gcc.h ****   return result;
 301:Drivers/CMSIS/Include/cmsis_gcc.h **** #endif
 302:Drivers/CMSIS/Include/cmsis_gcc.h **** }
 303:Drivers/CMSIS/Include/cmsis_gcc.h **** 
 304:Drivers/CMSIS/Include/cmsis_gcc.h **** 
 305:Drivers/CMSIS/Include/cmsis_gcc.h **** /**
 306:Drivers/CMSIS/Include/cmsis_gcc.h ****   \brief   Reverse byte order (16 bit)
 307:Drivers/CMSIS/Include/cmsis_gcc.h ****   \details Reverses the byte order within each halfword of a word. For example, 0x12345678 becomes 
 308:Drivers/CMSIS/Include/cmsis_gcc.h ****   \param [in]    value  Value to reverse
 309:Drivers/CMSIS/Include/cmsis_gcc.h ****   \return               Reversed value
 310:Drivers/CMSIS/Include/cmsis_gcc.h ****  */
 311:Drivers/CMSIS/Include/cmsis_gcc.h **** __STATIC_FORCEINLINE uint32_t __REV16(uint32_t value)
 312:Drivers/CMSIS/Include/cmsis_gcc.h **** {
 313:Drivers/CMSIS/Include/cmsis_gcc.h ****   uint32_t result;
 314:Drivers/CMSIS/Include/cmsis_gcc.h **** 
 315:Drivers/CMSIS/Include/cmsis_gcc.h ****   __ASM ("rev16 %0, %1" : __CMSIS_GCC_OUT_REG (result) : __CMSIS_GCC_USE_REG (value) );
 316:Drivers/CMSIS/Include/cmsis_gcc.h ****   return result;
 317:Drivers/CMSIS/Include/cmsis_gcc.h **** }
 318:Drivers/CMSIS/Include/cmsis_gcc.h **** 
 319:Drivers/CMSIS/Include/cmsis_gcc.h **** 
 320:Drivers/CMSIS/Include/cmsis_gcc.h **** /**
 321:Drivers/CMSIS/Include/cmsis_gcc.h ****   \brief   Reverse byte order (16 bit)
 322:Drivers/CMSIS/Include/cmsis_gcc.h ****   \details Reverses the byte order in a 16-bit value and returns the signed 16-bit result. For exam
 323:Drivers/CMSIS/Include/cmsis_gcc.h ****   \param [in]    value  Value to reverse
 324:Drivers/CMSIS/Include/cmsis_gcc.h ****   \return               Reversed value
 325:Drivers/CMSIS/Include/cmsis_gcc.h ****  */
 326:Drivers/CMSIS/Include/cmsis_gcc.h **** __STATIC_FORCEINLINE int16_t __REVSH(int16_t value)
 327:Drivers/CMSIS/Include/cmsis_gcc.h **** {
 328:Drivers/CMSIS/Include/cmsis_gcc.h **** #if (__GNUC__ > 4) || (__GNUC__ == 4 && __GNUC_MINOR__ >= 8)
 329:Drivers/CMSIS/Include/cmsis_gcc.h ****   return (int16_t)__builtin_bswap16(value);
 330:Drivers/CMSIS/Include/cmsis_gcc.h **** #else
 331:Drivers/CMSIS/Include/cmsis_gcc.h ****   int16_t result;
 332:Drivers/CMSIS/Include/cmsis_gcc.h **** 
 333:Drivers/CMSIS/Include/cmsis_gcc.h ****   __ASM ("revsh %0, %1" : __CMSIS_GCC_OUT_REG (result) : __CMSIS_GCC_USE_REG (value) );
 334:Drivers/CMSIS/Include/cmsis_gcc.h ****   return result;
 335:Drivers/CMSIS/Include/cmsis_gcc.h **** #endif
 336:Drivers/CMSIS/Include/cmsis_gcc.h **** }
 337:Drivers/CMSIS/Include/cmsis_gcc.h **** 
ARM GAS  /tmp/ccQ9BAu1.s 			page 32


 338:Drivers/CMSIS/Include/cmsis_gcc.h **** 
 339:Drivers/CMSIS/Include/cmsis_gcc.h **** /**
 340:Drivers/CMSIS/Include/cmsis_gcc.h ****   \brief   Rotate Right in unsigned value (32 bit)
 341:Drivers/CMSIS/Include/cmsis_gcc.h ****   \details Rotate Right (immediate) provides the value of the contents of a register rotated by a v
 342:Drivers/CMSIS/Include/cmsis_gcc.h ****   \param [in]    op1  Value to rotate
 343:Drivers/CMSIS/Include/cmsis_gcc.h ****   \param [in]    op2  Number of Bits to rotate
 344:Drivers/CMSIS/Include/cmsis_gcc.h ****   \return               Rotated value
 345:Drivers/CMSIS/Include/cmsis_gcc.h ****  */
 346:Drivers/CMSIS/Include/cmsis_gcc.h **** __STATIC_FORCEINLINE uint32_t __ROR(uint32_t op1, uint32_t op2)
 347:Drivers/CMSIS/Include/cmsis_gcc.h **** {
 348:Drivers/CMSIS/Include/cmsis_gcc.h ****   op2 %= 32U;
 349:Drivers/CMSIS/Include/cmsis_gcc.h ****   if (op2 == 0U)
 350:Drivers/CMSIS/Include/cmsis_gcc.h ****   {
 351:Drivers/CMSIS/Include/cmsis_gcc.h ****     return op1;
 352:Drivers/CMSIS/Include/cmsis_gcc.h ****   }
 353:Drivers/CMSIS/Include/cmsis_gcc.h ****   return (op1 >> op2) | (op1 << (32U - op2));
 354:Drivers/CMSIS/Include/cmsis_gcc.h **** }
 355:Drivers/CMSIS/Include/cmsis_gcc.h **** 
 356:Drivers/CMSIS/Include/cmsis_gcc.h **** 
 357:Drivers/CMSIS/Include/cmsis_gcc.h **** /**
 358:Drivers/CMSIS/Include/cmsis_gcc.h ****   \brief   Breakpoint
 359:Drivers/CMSIS/Include/cmsis_gcc.h ****   \details Causes the processor to enter Debug state.
 360:Drivers/CMSIS/Include/cmsis_gcc.h ****            Debug tools can use this to investigate system state when the instruction at a particula
 361:Drivers/CMSIS/Include/cmsis_gcc.h ****   \param [in]    value  is ignored by the processor.
 362:Drivers/CMSIS/Include/cmsis_gcc.h ****                  If required, a debugger can use it to store additional information about the break
 363:Drivers/CMSIS/Include/cmsis_gcc.h ****  */
 364:Drivers/CMSIS/Include/cmsis_gcc.h **** #define __BKPT(value)                       __ASM volatile ("bkpt "#value)
 365:Drivers/CMSIS/Include/cmsis_gcc.h **** 
 366:Drivers/CMSIS/Include/cmsis_gcc.h **** 
 367:Drivers/CMSIS/Include/cmsis_gcc.h **** /**
 368:Drivers/CMSIS/Include/cmsis_gcc.h ****   \brief   Reverse bit order of value
 369:Drivers/CMSIS/Include/cmsis_gcc.h ****   \details Reverses the bit order of the given value.
 370:Drivers/CMSIS/Include/cmsis_gcc.h ****   \param [in]    value  Value to reverse
 371:Drivers/CMSIS/Include/cmsis_gcc.h ****   \return               Reversed value
 372:Drivers/CMSIS/Include/cmsis_gcc.h ****  */
 373:Drivers/CMSIS/Include/cmsis_gcc.h **** __STATIC_FORCEINLINE uint32_t __RBIT(uint32_t value)
 374:Drivers/CMSIS/Include/cmsis_gcc.h **** {
 375:Drivers/CMSIS/Include/cmsis_gcc.h ****   uint32_t result;
 376:Drivers/CMSIS/Include/cmsis_gcc.h **** 
 377:Drivers/CMSIS/Include/cmsis_gcc.h **** #if ((defined (__ARM_ARCH_7M__      ) && (__ARM_ARCH_7M__      == 1)) || \
 378:Drivers/CMSIS/Include/cmsis_gcc.h ****      (defined (__ARM_ARCH_7EM__     ) && (__ARM_ARCH_7EM__     == 1)) || \
 379:Drivers/CMSIS/Include/cmsis_gcc.h ****      (defined (__ARM_ARCH_8M_MAIN__ ) && (__ARM_ARCH_8M_MAIN__ == 1))    )
 380:Drivers/CMSIS/Include/cmsis_gcc.h ****    __ASM ("rbit %0, %1" : "=r" (result) : "r" (value) );
 381:Drivers/CMSIS/Include/cmsis_gcc.h **** #else
 382:Drivers/CMSIS/Include/cmsis_gcc.h ****   uint32_t s = (4U /*sizeof(v)*/ * 8U) - 1U; /* extra shift needed at end */
 383:Drivers/CMSIS/Include/cmsis_gcc.h **** 
 384:Drivers/CMSIS/Include/cmsis_gcc.h ****   result = value;                      /* r will be reversed bits of v; first get LSB of v */
 385:Drivers/CMSIS/Include/cmsis_gcc.h ****   for (value >>= 1U; value != 0U; value >>= 1U)
 386:Drivers/CMSIS/Include/cmsis_gcc.h ****   {
 387:Drivers/CMSIS/Include/cmsis_gcc.h ****     result <<= 1U;
 388:Drivers/CMSIS/Include/cmsis_gcc.h ****     result |= value & 1U;
 389:Drivers/CMSIS/Include/cmsis_gcc.h ****     s--;
 390:Drivers/CMSIS/Include/cmsis_gcc.h ****   }
 391:Drivers/CMSIS/Include/cmsis_gcc.h ****   result <<= s;                        /* shift when v's highest bits are zero */
 392:Drivers/CMSIS/Include/cmsis_gcc.h **** #endif
 393:Drivers/CMSIS/Include/cmsis_gcc.h ****   return result;
 394:Drivers/CMSIS/Include/cmsis_gcc.h **** }
ARM GAS  /tmp/ccQ9BAu1.s 			page 33


 395:Drivers/CMSIS/Include/cmsis_gcc.h **** 
 396:Drivers/CMSIS/Include/cmsis_gcc.h **** 
 397:Drivers/CMSIS/Include/cmsis_gcc.h **** /**
 398:Drivers/CMSIS/Include/cmsis_gcc.h ****   \brief   Count leading zeros
 399:Drivers/CMSIS/Include/cmsis_gcc.h ****   \details Counts the number of leading zeros of a data value.
 400:Drivers/CMSIS/Include/cmsis_gcc.h ****   \param [in]  value  Value to count the leading zeros
 401:Drivers/CMSIS/Include/cmsis_gcc.h ****   \return             number of leading zeros in value
 402:Drivers/CMSIS/Include/cmsis_gcc.h ****  */
 403:Drivers/CMSIS/Include/cmsis_gcc.h **** __STATIC_FORCEINLINE uint8_t __CLZ(uint32_t value)
 404:Drivers/CMSIS/Include/cmsis_gcc.h **** {
 405:Drivers/CMSIS/Include/cmsis_gcc.h ****   /* Even though __builtin_clz produces a CLZ instruction on ARM, formally
 406:Drivers/CMSIS/Include/cmsis_gcc.h ****      __builtin_clz(0) is undefined behaviour, so handle this case specially.
 407:Drivers/CMSIS/Include/cmsis_gcc.h ****      This guarantees ARM-compatible results if happening to compile on a non-ARM
 408:Drivers/CMSIS/Include/cmsis_gcc.h ****      target, and ensures the compiler doesn't decide to activate any
 409:Drivers/CMSIS/Include/cmsis_gcc.h ****      optimisations using the logic "value was passed to __builtin_clz, so it
 410:Drivers/CMSIS/Include/cmsis_gcc.h ****      is non-zero".
 411:Drivers/CMSIS/Include/cmsis_gcc.h ****      ARM GCC 7.3 and possibly earlier will optimise this test away, leaving a
 412:Drivers/CMSIS/Include/cmsis_gcc.h ****      single CLZ instruction.
 413:Drivers/CMSIS/Include/cmsis_gcc.h ****    */
 414:Drivers/CMSIS/Include/cmsis_gcc.h ****   if (value == 0U)
 415:Drivers/CMSIS/Include/cmsis_gcc.h ****   {
 416:Drivers/CMSIS/Include/cmsis_gcc.h ****     return 32U;
 417:Drivers/CMSIS/Include/cmsis_gcc.h ****   }
 418:Drivers/CMSIS/Include/cmsis_gcc.h ****   return __builtin_clz(value);
 419:Drivers/CMSIS/Include/cmsis_gcc.h **** }
 420:Drivers/CMSIS/Include/cmsis_gcc.h **** 
 421:Drivers/CMSIS/Include/cmsis_gcc.h **** 
 422:Drivers/CMSIS/Include/cmsis_gcc.h **** #if ((defined (__ARM_ARCH_7M__      ) && (__ARM_ARCH_7M__      == 1)) || \
 423:Drivers/CMSIS/Include/cmsis_gcc.h ****      (defined (__ARM_ARCH_7EM__     ) && (__ARM_ARCH_7EM__     == 1)) || \
 424:Drivers/CMSIS/Include/cmsis_gcc.h ****      (defined (__ARM_ARCH_8M_MAIN__ ) && (__ARM_ARCH_8M_MAIN__ == 1)) || \
 425:Drivers/CMSIS/Include/cmsis_gcc.h ****      (defined (__ARM_ARCH_8M_BASE__ ) && (__ARM_ARCH_8M_BASE__ == 1))    )
 426:Drivers/CMSIS/Include/cmsis_gcc.h **** /**
 427:Drivers/CMSIS/Include/cmsis_gcc.h ****   \brief   LDR Exclusive (8 bit)
 428:Drivers/CMSIS/Include/cmsis_gcc.h ****   \details Executes a exclusive LDR instruction for 8 bit value.
 429:Drivers/CMSIS/Include/cmsis_gcc.h ****   \param [in]    ptr  Pointer to data
 430:Drivers/CMSIS/Include/cmsis_gcc.h ****   \return             value of type uint8_t at (*ptr)
 431:Drivers/CMSIS/Include/cmsis_gcc.h ****  */
 432:Drivers/CMSIS/Include/cmsis_gcc.h **** __STATIC_FORCEINLINE uint8_t __LDREXB(volatile uint8_t *addr)
 433:Drivers/CMSIS/Include/cmsis_gcc.h **** {
 434:Drivers/CMSIS/Include/cmsis_gcc.h ****     uint32_t result;
 435:Drivers/CMSIS/Include/cmsis_gcc.h **** 
 436:Drivers/CMSIS/Include/cmsis_gcc.h **** #if (__GNUC__ > 4) || (__GNUC__ == 4 && __GNUC_MINOR__ >= 8)
 437:Drivers/CMSIS/Include/cmsis_gcc.h ****    __ASM volatile ("ldrexb %0, %1" : "=r" (result) : "Q" (*addr) );
 438:Drivers/CMSIS/Include/cmsis_gcc.h **** #else
 439:Drivers/CMSIS/Include/cmsis_gcc.h ****     /* Prior to GCC 4.8, "Q" will be expanded to [rx, #0] which is not
 440:Drivers/CMSIS/Include/cmsis_gcc.h ****        accepted by assembler. So has to use following less efficient pattern.
 441:Drivers/CMSIS/Include/cmsis_gcc.h ****     */
 442:Drivers/CMSIS/Include/cmsis_gcc.h ****    __ASM volatile ("ldrexb %0, [%1]" : "=r" (result) : "r" (addr) : "memory" );
 443:Drivers/CMSIS/Include/cmsis_gcc.h **** #endif
 444:Drivers/CMSIS/Include/cmsis_gcc.h ****    return ((uint8_t) result);    /* Add explicit type cast here */
 445:Drivers/CMSIS/Include/cmsis_gcc.h **** }
 446:Drivers/CMSIS/Include/cmsis_gcc.h **** 
 447:Drivers/CMSIS/Include/cmsis_gcc.h **** 
 448:Drivers/CMSIS/Include/cmsis_gcc.h **** /**
 449:Drivers/CMSIS/Include/cmsis_gcc.h ****   \brief   LDR Exclusive (16 bit)
 450:Drivers/CMSIS/Include/cmsis_gcc.h ****   \details Executes a exclusive LDR instruction for 16 bit values.
 451:Drivers/CMSIS/Include/cmsis_gcc.h ****   \param [in]    ptr  Pointer to data
ARM GAS  /tmp/ccQ9BAu1.s 			page 34


 452:Drivers/CMSIS/Include/cmsis_gcc.h ****   \return        value of type uint16_t at (*ptr)
 453:Drivers/CMSIS/Include/cmsis_gcc.h ****  */
 454:Drivers/CMSIS/Include/cmsis_gcc.h **** __STATIC_FORCEINLINE uint16_t __LDREXH(volatile uint16_t *addr)
 455:Drivers/CMSIS/Include/cmsis_gcc.h **** {
 456:Drivers/CMSIS/Include/cmsis_gcc.h ****     uint32_t result;
 457:Drivers/CMSIS/Include/cmsis_gcc.h **** 
 458:Drivers/CMSIS/Include/cmsis_gcc.h **** #if (__GNUC__ > 4) || (__GNUC__ == 4 && __GNUC_MINOR__ >= 8)
 459:Drivers/CMSIS/Include/cmsis_gcc.h ****    __ASM volatile ("ldrexh %0, %1" : "=r" (result) : "Q" (*addr) );
 460:Drivers/CMSIS/Include/cmsis_gcc.h **** #else
 461:Drivers/CMSIS/Include/cmsis_gcc.h ****     /* Prior to GCC 4.8, "Q" will be expanded to [rx, #0] which is not
 462:Drivers/CMSIS/Include/cmsis_gcc.h ****        accepted by assembler. So has to use following less efficient pattern.
 463:Drivers/CMSIS/Include/cmsis_gcc.h ****     */
 464:Drivers/CMSIS/Include/cmsis_gcc.h ****    __ASM volatile ("ldrexh %0, [%1]" : "=r" (result) : "r" (addr) : "memory" );
 465:Drivers/CMSIS/Include/cmsis_gcc.h **** #endif
 466:Drivers/CMSIS/Include/cmsis_gcc.h ****    return ((uint16_t) result);    /* Add explicit type cast here */
 467:Drivers/CMSIS/Include/cmsis_gcc.h **** }
 468:Drivers/CMSIS/Include/cmsis_gcc.h **** 
 469:Drivers/CMSIS/Include/cmsis_gcc.h **** 
 470:Drivers/CMSIS/Include/cmsis_gcc.h **** /**
 471:Drivers/CMSIS/Include/cmsis_gcc.h ****   \brief   LDR Exclusive (32 bit)
 472:Drivers/CMSIS/Include/cmsis_gcc.h ****   \details Executes a exclusive LDR instruction for 32 bit values.
 473:Drivers/CMSIS/Include/cmsis_gcc.h ****   \param [in]    ptr  Pointer to data
 474:Drivers/CMSIS/Include/cmsis_gcc.h ****   \return        value of type uint32_t at (*ptr)
 475:Drivers/CMSIS/Include/cmsis_gcc.h ****  */
 476:Drivers/CMSIS/Include/cmsis_gcc.h **** __STATIC_FORCEINLINE uint32_t __LDREXW(volatile uint32_t *addr)
 477:Drivers/CMSIS/Include/cmsis_gcc.h **** {
 478:Drivers/CMSIS/Include/cmsis_gcc.h ****     uint32_t result;
 479:Drivers/CMSIS/Include/cmsis_gcc.h **** 
 480:Drivers/CMSIS/Include/cmsis_gcc.h ****    __ASM volatile ("ldrex %0, %1" : "=r" (result) : "Q" (*addr) );
 481:Drivers/CMSIS/Include/cmsis_gcc.h ****    return(result);
 482:Drivers/CMSIS/Include/cmsis_gcc.h **** }
 483:Drivers/CMSIS/Include/cmsis_gcc.h **** 
 484:Drivers/CMSIS/Include/cmsis_gcc.h **** 
 485:Drivers/CMSIS/Include/cmsis_gcc.h **** /**
 486:Drivers/CMSIS/Include/cmsis_gcc.h ****   \brief   STR Exclusive (8 bit)
 487:Drivers/CMSIS/Include/cmsis_gcc.h ****   \details Executes a exclusive STR instruction for 8 bit values.
 488:Drivers/CMSIS/Include/cmsis_gcc.h ****   \param [in]  value  Value to store
 489:Drivers/CMSIS/Include/cmsis_gcc.h ****   \param [in]    ptr  Pointer to location
 490:Drivers/CMSIS/Include/cmsis_gcc.h ****   \return          0  Function succeeded
 491:Drivers/CMSIS/Include/cmsis_gcc.h ****   \return          1  Function failed
 492:Drivers/CMSIS/Include/cmsis_gcc.h ****  */
 493:Drivers/CMSIS/Include/cmsis_gcc.h **** __STATIC_FORCEINLINE uint32_t __STREXB(uint8_t value, volatile uint8_t *addr)
 494:Drivers/CMSIS/Include/cmsis_gcc.h **** {
 495:Drivers/CMSIS/Include/cmsis_gcc.h ****    uint32_t result;
 496:Drivers/CMSIS/Include/cmsis_gcc.h **** 
 497:Drivers/CMSIS/Include/cmsis_gcc.h ****    __ASM volatile ("strexb %0, %2, %1" : "=&r" (result), "=Q" (*addr) : "r" ((uint32_t)value) );
 498:Drivers/CMSIS/Include/cmsis_gcc.h ****    return(result);
 499:Drivers/CMSIS/Include/cmsis_gcc.h **** }
 500:Drivers/CMSIS/Include/cmsis_gcc.h **** 
 501:Drivers/CMSIS/Include/cmsis_gcc.h **** 
 502:Drivers/CMSIS/Include/cmsis_gcc.h **** /**
 503:Drivers/CMSIS/Include/cmsis_gcc.h ****   \brief   STR Exclusive (16 bit)
 504:Drivers/CMSIS/Include/cmsis_gcc.h ****   \details Executes a exclusive STR instruction for 16 bit values.
 505:Drivers/CMSIS/Include/cmsis_gcc.h ****   \param [in]  value  Value to store
 506:Drivers/CMSIS/Include/cmsis_gcc.h ****   \param [in]    ptr  Pointer to location
 507:Drivers/CMSIS/Include/cmsis_gcc.h ****   \return          0  Function succeeded
 508:Drivers/CMSIS/Include/cmsis_gcc.h ****   \return          1  Function failed
ARM GAS  /tmp/ccQ9BAu1.s 			page 35


 509:Drivers/CMSIS/Include/cmsis_gcc.h ****  */
 510:Drivers/CMSIS/Include/cmsis_gcc.h **** __STATIC_FORCEINLINE uint32_t __STREXH(uint16_t value, volatile uint16_t *addr)
 511:Drivers/CMSIS/Include/cmsis_gcc.h **** {
 512:Drivers/CMSIS/Include/cmsis_gcc.h ****    uint32_t result;
 513:Drivers/CMSIS/Include/cmsis_gcc.h **** 
 514:Drivers/CMSIS/Include/cmsis_gcc.h ****    __ASM volatile ("strexh %0, %2, %1" : "=&r" (result), "=Q" (*addr) : "r" ((uint32_t)value) );
 515:Drivers/CMSIS/Include/cmsis_gcc.h ****    return(result);
 516:Drivers/CMSIS/Include/cmsis_gcc.h **** }
 517:Drivers/CMSIS/Include/cmsis_gcc.h **** 
 518:Drivers/CMSIS/Include/cmsis_gcc.h **** 
 519:Drivers/CMSIS/Include/cmsis_gcc.h **** /**
 520:Drivers/CMSIS/Include/cmsis_gcc.h ****   \brief   STR Exclusive (32 bit)
 521:Drivers/CMSIS/Include/cmsis_gcc.h ****   \details Executes a exclusive STR instruction for 32 bit values.
 522:Drivers/CMSIS/Include/cmsis_gcc.h ****   \param [in]  value  Value to store
 523:Drivers/CMSIS/Include/cmsis_gcc.h ****   \param [in]    ptr  Pointer to location
 524:Drivers/CMSIS/Include/cmsis_gcc.h ****   \return          0  Function succeeded
 525:Drivers/CMSIS/Include/cmsis_gcc.h ****   \return          1  Function failed
 526:Drivers/CMSIS/Include/cmsis_gcc.h ****  */
 527:Drivers/CMSIS/Include/cmsis_gcc.h **** __STATIC_FORCEINLINE uint32_t __STREXW(uint32_t value, volatile uint32_t *addr)
 528:Drivers/CMSIS/Include/cmsis_gcc.h **** {
 529:Drivers/CMSIS/Include/cmsis_gcc.h ****    uint32_t result;
 530:Drivers/CMSIS/Include/cmsis_gcc.h **** 
 531:Drivers/CMSIS/Include/cmsis_gcc.h ****    __ASM volatile ("strex %0, %2, %1" : "=&r" (result), "=Q" (*addr) : "r" (value) );
 532:Drivers/CMSIS/Include/cmsis_gcc.h ****    return(result);
 533:Drivers/CMSIS/Include/cmsis_gcc.h **** }
 534:Drivers/CMSIS/Include/cmsis_gcc.h **** 
 535:Drivers/CMSIS/Include/cmsis_gcc.h **** 
 536:Drivers/CMSIS/Include/cmsis_gcc.h **** /**
 537:Drivers/CMSIS/Include/cmsis_gcc.h ****   \brief   Remove the exclusive lock
 538:Drivers/CMSIS/Include/cmsis_gcc.h ****   \details Removes the exclusive lock which is created by LDREX.
 539:Drivers/CMSIS/Include/cmsis_gcc.h ****  */
 540:Drivers/CMSIS/Include/cmsis_gcc.h **** __STATIC_FORCEINLINE void __CLREX(void)
 541:Drivers/CMSIS/Include/cmsis_gcc.h **** {
 542:Drivers/CMSIS/Include/cmsis_gcc.h ****   __ASM volatile ("clrex" ::: "memory");
 543:Drivers/CMSIS/Include/cmsis_gcc.h **** }
 544:Drivers/CMSIS/Include/cmsis_gcc.h **** 
 545:Drivers/CMSIS/Include/cmsis_gcc.h **** #endif /* ((defined (__ARM_ARCH_7M__      ) && (__ARM_ARCH_7M__      == 1)) || \
 546:Drivers/CMSIS/Include/cmsis_gcc.h ****            (defined (__ARM_ARCH_7EM__     ) && (__ARM_ARCH_7EM__     == 1)) || \
 547:Drivers/CMSIS/Include/cmsis_gcc.h ****            (defined (__ARM_ARCH_8M_MAIN__ ) && (__ARM_ARCH_8M_MAIN__ == 1)) || \
 548:Drivers/CMSIS/Include/cmsis_gcc.h ****            (defined (__ARM_ARCH_8M_BASE__ ) && (__ARM_ARCH_8M_BASE__ == 1))    ) */
 549:Drivers/CMSIS/Include/cmsis_gcc.h **** 
 550:Drivers/CMSIS/Include/cmsis_gcc.h **** 
 551:Drivers/CMSIS/Include/cmsis_gcc.h **** #if ((defined (__ARM_ARCH_7M__      ) && (__ARM_ARCH_7M__      == 1)) || \
 552:Drivers/CMSIS/Include/cmsis_gcc.h ****      (defined (__ARM_ARCH_7EM__     ) && (__ARM_ARCH_7EM__     == 1)) || \
 553:Drivers/CMSIS/Include/cmsis_gcc.h ****      (defined (__ARM_ARCH_8M_MAIN__ ) && (__ARM_ARCH_8M_MAIN__ == 1))    )
 554:Drivers/CMSIS/Include/cmsis_gcc.h **** /**
 555:Drivers/CMSIS/Include/cmsis_gcc.h ****   \brief   Signed Saturate
 556:Drivers/CMSIS/Include/cmsis_gcc.h ****   \details Saturates a signed value.
 557:Drivers/CMSIS/Include/cmsis_gcc.h ****   \param [in]  ARG1  Value to be saturated
 558:Drivers/CMSIS/Include/cmsis_gcc.h ****   \param [in]  ARG2  Bit position to saturate to (1..32)
 559:Drivers/CMSIS/Include/cmsis_gcc.h ****   \return             Saturated value
 560:Drivers/CMSIS/Include/cmsis_gcc.h ****  */
 561:Drivers/CMSIS/Include/cmsis_gcc.h **** #define __SSAT(ARG1, ARG2) \
 562:Drivers/CMSIS/Include/cmsis_gcc.h **** __extension__ \
 563:Drivers/CMSIS/Include/cmsis_gcc.h **** ({                          \
 564:Drivers/CMSIS/Include/cmsis_gcc.h ****   int32_t __RES, __ARG1 = (ARG1); \
 565:Drivers/CMSIS/Include/cmsis_gcc.h ****   __ASM volatile ("ssat %0, %1, %2" : "=r" (__RES) :  "I" (ARG2), "r" (__ARG1) : "cc" ); \
ARM GAS  /tmp/ccQ9BAu1.s 			page 36


 566:Drivers/CMSIS/Include/cmsis_gcc.h ****   __RES; \
 567:Drivers/CMSIS/Include/cmsis_gcc.h ****  })
 568:Drivers/CMSIS/Include/cmsis_gcc.h **** 
 569:Drivers/CMSIS/Include/cmsis_gcc.h **** 
 570:Drivers/CMSIS/Include/cmsis_gcc.h **** /**
 571:Drivers/CMSIS/Include/cmsis_gcc.h ****   \brief   Unsigned Saturate
 572:Drivers/CMSIS/Include/cmsis_gcc.h ****   \details Saturates an unsigned value.
 573:Drivers/CMSIS/Include/cmsis_gcc.h ****   \param [in]  ARG1  Value to be saturated
 574:Drivers/CMSIS/Include/cmsis_gcc.h ****   \param [in]  ARG2  Bit position to saturate to (0..31)
 575:Drivers/CMSIS/Include/cmsis_gcc.h ****   \return             Saturated value
 576:Drivers/CMSIS/Include/cmsis_gcc.h ****  */
 577:Drivers/CMSIS/Include/cmsis_gcc.h **** #define __USAT(ARG1, ARG2) \
 578:Drivers/CMSIS/Include/cmsis_gcc.h **** __extension__ \
 579:Drivers/CMSIS/Include/cmsis_gcc.h **** ({                          \
 580:Drivers/CMSIS/Include/cmsis_gcc.h ****   uint32_t __RES, __ARG1 = (ARG1); \
 581:Drivers/CMSIS/Include/cmsis_gcc.h ****   __ASM volatile ("usat %0, %1, %2" : "=r" (__RES) :  "I" (ARG2), "r" (__ARG1) : "cc" ); \
 582:Drivers/CMSIS/Include/cmsis_gcc.h ****   __RES; \
 583:Drivers/CMSIS/Include/cmsis_gcc.h ****  })
 584:Drivers/CMSIS/Include/cmsis_gcc.h **** 
 585:Drivers/CMSIS/Include/cmsis_gcc.h **** 
 586:Drivers/CMSIS/Include/cmsis_gcc.h **** /**
 587:Drivers/CMSIS/Include/cmsis_gcc.h ****   \brief   Rotate Right with Extend (32 bit)
 588:Drivers/CMSIS/Include/cmsis_gcc.h ****   \details Moves each bit of a bitstring right by one bit.
 589:Drivers/CMSIS/Include/cmsis_gcc.h ****            The carry input is shifted in at the left end of the bitstring.
 590:Drivers/CMSIS/Include/cmsis_gcc.h ****   \param [in]    value  Value to rotate
 591:Drivers/CMSIS/Include/cmsis_gcc.h ****   \return               Rotated value
 592:Drivers/CMSIS/Include/cmsis_gcc.h ****  */
 593:Drivers/CMSIS/Include/cmsis_gcc.h **** __STATIC_FORCEINLINE uint32_t __RRX(uint32_t value)
 594:Drivers/CMSIS/Include/cmsis_gcc.h **** {
 595:Drivers/CMSIS/Include/cmsis_gcc.h ****   uint32_t result;
 596:Drivers/CMSIS/Include/cmsis_gcc.h **** 
 597:Drivers/CMSIS/Include/cmsis_gcc.h ****   __ASM volatile ("rrx %0, %1" : __CMSIS_GCC_OUT_REG (result) : __CMSIS_GCC_USE_REG (value) );
 598:Drivers/CMSIS/Include/cmsis_gcc.h ****   return(result);
 599:Drivers/CMSIS/Include/cmsis_gcc.h **** }
 600:Drivers/CMSIS/Include/cmsis_gcc.h **** 
 601:Drivers/CMSIS/Include/cmsis_gcc.h **** 
 602:Drivers/CMSIS/Include/cmsis_gcc.h **** /**
 603:Drivers/CMSIS/Include/cmsis_gcc.h ****   \brief   LDRT Unprivileged (8 bit)
 604:Drivers/CMSIS/Include/cmsis_gcc.h ****   \details Executes a Unprivileged LDRT instruction for 8 bit value.
 605:Drivers/CMSIS/Include/cmsis_gcc.h ****   \param [in]    ptr  Pointer to data
 606:Drivers/CMSIS/Include/cmsis_gcc.h ****   \return             value of type uint8_t at (*ptr)
 607:Drivers/CMSIS/Include/cmsis_gcc.h ****  */
 608:Drivers/CMSIS/Include/cmsis_gcc.h **** __STATIC_FORCEINLINE uint8_t __LDRBT(volatile uint8_t *ptr)
 609:Drivers/CMSIS/Include/cmsis_gcc.h **** {
 610:Drivers/CMSIS/Include/cmsis_gcc.h ****     uint32_t result;
 611:Drivers/CMSIS/Include/cmsis_gcc.h **** 
 612:Drivers/CMSIS/Include/cmsis_gcc.h **** #if (__GNUC__ > 4) || (__GNUC__ == 4 && __GNUC_MINOR__ >= 8)
 613:Drivers/CMSIS/Include/cmsis_gcc.h ****    __ASM volatile ("ldrbt %0, %1" : "=r" (result) : "Q" (*ptr) );
 614:Drivers/CMSIS/Include/cmsis_gcc.h **** #else
 615:Drivers/CMSIS/Include/cmsis_gcc.h ****     /* Prior to GCC 4.8, "Q" will be expanded to [rx, #0] which is not
 616:Drivers/CMSIS/Include/cmsis_gcc.h ****        accepted by assembler. So has to use following less efficient pattern.
 617:Drivers/CMSIS/Include/cmsis_gcc.h ****     */
 618:Drivers/CMSIS/Include/cmsis_gcc.h ****    __ASM volatile ("ldrbt %0, [%1]" : "=r" (result) : "r" (ptr) : "memory" );
 619:Drivers/CMSIS/Include/cmsis_gcc.h **** #endif
 620:Drivers/CMSIS/Include/cmsis_gcc.h ****    return ((uint8_t) result);    /* Add explicit type cast here */
 621:Drivers/CMSIS/Include/cmsis_gcc.h **** }
 622:Drivers/CMSIS/Include/cmsis_gcc.h **** 
ARM GAS  /tmp/ccQ9BAu1.s 			page 37


 623:Drivers/CMSIS/Include/cmsis_gcc.h **** 
 624:Drivers/CMSIS/Include/cmsis_gcc.h **** /**
 625:Drivers/CMSIS/Include/cmsis_gcc.h ****   \brief   LDRT Unprivileged (16 bit)
 626:Drivers/CMSIS/Include/cmsis_gcc.h ****   \details Executes a Unprivileged LDRT instruction for 16 bit values.
 627:Drivers/CMSIS/Include/cmsis_gcc.h ****   \param [in]    ptr  Pointer to data
 628:Drivers/CMSIS/Include/cmsis_gcc.h ****   \return        value of type uint16_t at (*ptr)
 629:Drivers/CMSIS/Include/cmsis_gcc.h ****  */
 630:Drivers/CMSIS/Include/cmsis_gcc.h **** __STATIC_FORCEINLINE uint16_t __LDRHT(volatile uint16_t *ptr)
 631:Drivers/CMSIS/Include/cmsis_gcc.h **** {
 632:Drivers/CMSIS/Include/cmsis_gcc.h ****     uint32_t result;
 633:Drivers/CMSIS/Include/cmsis_gcc.h **** 
 634:Drivers/CMSIS/Include/cmsis_gcc.h **** #if (__GNUC__ > 4) || (__GNUC__ == 4 && __GNUC_MINOR__ >= 8)
 635:Drivers/CMSIS/Include/cmsis_gcc.h ****    __ASM volatile ("ldrht %0, %1" : "=r" (result) : "Q" (*ptr) );
 636:Drivers/CMSIS/Include/cmsis_gcc.h **** #else
 637:Drivers/CMSIS/Include/cmsis_gcc.h ****     /* Prior to GCC 4.8, "Q" will be expanded to [rx, #0] which is not
 638:Drivers/CMSIS/Include/cmsis_gcc.h ****        accepted by assembler. So has to use following less efficient pattern.
 639:Drivers/CMSIS/Include/cmsis_gcc.h ****     */
 640:Drivers/CMSIS/Include/cmsis_gcc.h ****    __ASM volatile ("ldrht %0, [%1]" : "=r" (result) : "r" (ptr) : "memory" );
 641:Drivers/CMSIS/Include/cmsis_gcc.h **** #endif
 642:Drivers/CMSIS/Include/cmsis_gcc.h ****    return ((uint16_t) result);    /* Add explicit type cast here */
 643:Drivers/CMSIS/Include/cmsis_gcc.h **** }
 644:Drivers/CMSIS/Include/cmsis_gcc.h **** 
 645:Drivers/CMSIS/Include/cmsis_gcc.h **** 
 646:Drivers/CMSIS/Include/cmsis_gcc.h **** /**
 647:Drivers/CMSIS/Include/cmsis_gcc.h ****   \brief   LDRT Unprivileged (32 bit)
 648:Drivers/CMSIS/Include/cmsis_gcc.h ****   \details Executes a Unprivileged LDRT instruction for 32 bit values.
 649:Drivers/CMSIS/Include/cmsis_gcc.h ****   \param [in]    ptr  Pointer to data
 650:Drivers/CMSIS/Include/cmsis_gcc.h ****   \return        value of type uint32_t at (*ptr)
 651:Drivers/CMSIS/Include/cmsis_gcc.h ****  */
 652:Drivers/CMSIS/Include/cmsis_gcc.h **** __STATIC_FORCEINLINE uint32_t __LDRT(volatile uint32_t *ptr)
 653:Drivers/CMSIS/Include/cmsis_gcc.h **** {
 654:Drivers/CMSIS/Include/cmsis_gcc.h ****     uint32_t result;
 655:Drivers/CMSIS/Include/cmsis_gcc.h **** 
 656:Drivers/CMSIS/Include/cmsis_gcc.h ****    __ASM volatile ("ldrt %0, %1" : "=r" (result) : "Q" (*ptr) );
 657:Drivers/CMSIS/Include/cmsis_gcc.h ****    return(result);
 658:Drivers/CMSIS/Include/cmsis_gcc.h **** }
 659:Drivers/CMSIS/Include/cmsis_gcc.h **** 
 660:Drivers/CMSIS/Include/cmsis_gcc.h **** 
 661:Drivers/CMSIS/Include/cmsis_gcc.h **** /**
 662:Drivers/CMSIS/Include/cmsis_gcc.h ****   \brief   STRT Unprivileged (8 bit)
 663:Drivers/CMSIS/Include/cmsis_gcc.h ****   \details Executes a Unprivileged STRT instruction for 8 bit values.
 664:Drivers/CMSIS/Include/cmsis_gcc.h ****   \param [in]  value  Value to store
 665:Drivers/CMSIS/Include/cmsis_gcc.h ****   \param [in]    ptr  Pointer to location
 666:Drivers/CMSIS/Include/cmsis_gcc.h ****  */
 667:Drivers/CMSIS/Include/cmsis_gcc.h **** __STATIC_FORCEINLINE void __STRBT(uint8_t value, volatile uint8_t *ptr)
 668:Drivers/CMSIS/Include/cmsis_gcc.h **** {
 669:Drivers/CMSIS/Include/cmsis_gcc.h ****    __ASM volatile ("strbt %1, %0" : "=Q" (*ptr) : "r" ((uint32_t)value) );
 670:Drivers/CMSIS/Include/cmsis_gcc.h **** }
 671:Drivers/CMSIS/Include/cmsis_gcc.h **** 
 672:Drivers/CMSIS/Include/cmsis_gcc.h **** 
 673:Drivers/CMSIS/Include/cmsis_gcc.h **** /**
 674:Drivers/CMSIS/Include/cmsis_gcc.h ****   \brief   STRT Unprivileged (16 bit)
 675:Drivers/CMSIS/Include/cmsis_gcc.h ****   \details Executes a Unprivileged STRT instruction for 16 bit values.
 676:Drivers/CMSIS/Include/cmsis_gcc.h ****   \param [in]  value  Value to store
 677:Drivers/CMSIS/Include/cmsis_gcc.h ****   \param [in]    ptr  Pointer to location
 678:Drivers/CMSIS/Include/cmsis_gcc.h ****  */
 679:Drivers/CMSIS/Include/cmsis_gcc.h **** __STATIC_FORCEINLINE void __STRHT(uint16_t value, volatile uint16_t *ptr)
ARM GAS  /tmp/ccQ9BAu1.s 			page 38


 680:Drivers/CMSIS/Include/cmsis_gcc.h **** {
 681:Drivers/CMSIS/Include/cmsis_gcc.h ****    __ASM volatile ("strht %1, %0" : "=Q" (*ptr) : "r" ((uint32_t)value) );
 682:Drivers/CMSIS/Include/cmsis_gcc.h **** }
 683:Drivers/CMSIS/Include/cmsis_gcc.h **** 
 684:Drivers/CMSIS/Include/cmsis_gcc.h **** 
 685:Drivers/CMSIS/Include/cmsis_gcc.h **** /**
 686:Drivers/CMSIS/Include/cmsis_gcc.h ****   \brief   STRT Unprivileged (32 bit)
 687:Drivers/CMSIS/Include/cmsis_gcc.h ****   \details Executes a Unprivileged STRT instruction for 32 bit values.
 688:Drivers/CMSIS/Include/cmsis_gcc.h ****   \param [in]  value  Value to store
 689:Drivers/CMSIS/Include/cmsis_gcc.h ****   \param [in]    ptr  Pointer to location
 690:Drivers/CMSIS/Include/cmsis_gcc.h ****  */
 691:Drivers/CMSIS/Include/cmsis_gcc.h **** __STATIC_FORCEINLINE void __STRT(uint32_t value, volatile uint32_t *ptr)
 692:Drivers/CMSIS/Include/cmsis_gcc.h **** {
 693:Drivers/CMSIS/Include/cmsis_gcc.h ****    __ASM volatile ("strt %1, %0" : "=Q" (*ptr) : "r" (value) );
 694:Drivers/CMSIS/Include/cmsis_gcc.h **** }
 695:Drivers/CMSIS/Include/cmsis_gcc.h **** 
 696:Drivers/CMSIS/Include/cmsis_gcc.h **** #else  /* ((defined (__ARM_ARCH_7M__      ) && (__ARM_ARCH_7M__      == 1)) || \
 697:Drivers/CMSIS/Include/cmsis_gcc.h ****            (defined (__ARM_ARCH_7EM__     ) && (__ARM_ARCH_7EM__     == 1)) || \
 698:Drivers/CMSIS/Include/cmsis_gcc.h ****            (defined (__ARM_ARCH_8M_MAIN__ ) && (__ARM_ARCH_8M_MAIN__ == 1))    ) */
 699:Drivers/CMSIS/Include/cmsis_gcc.h **** 
 700:Drivers/CMSIS/Include/cmsis_gcc.h **** /**
 701:Drivers/CMSIS/Include/cmsis_gcc.h ****   \brief   Signed Saturate
 702:Drivers/CMSIS/Include/cmsis_gcc.h ****   \details Saturates a signed value.
 703:Drivers/CMSIS/Include/cmsis_gcc.h ****   \param [in]  value  Value to be saturated
 704:Drivers/CMSIS/Include/cmsis_gcc.h ****   \param [in]    sat  Bit position to saturate to (1..32)
 705:Drivers/CMSIS/Include/cmsis_gcc.h ****   \return             Saturated value
 706:Drivers/CMSIS/Include/cmsis_gcc.h ****  */
 707:Drivers/CMSIS/Include/cmsis_gcc.h **** __STATIC_FORCEINLINE int32_t __SSAT(int32_t val, uint32_t sat)
 708:Drivers/CMSIS/Include/cmsis_gcc.h **** {
 709:Drivers/CMSIS/Include/cmsis_gcc.h ****   if ((sat >= 1U) && (sat <= 32U))
 710:Drivers/CMSIS/Include/cmsis_gcc.h ****   {
 711:Drivers/CMSIS/Include/cmsis_gcc.h ****     const int32_t max = (int32_t)((1U << (sat - 1U)) - 1U);
 712:Drivers/CMSIS/Include/cmsis_gcc.h ****     const int32_t min = -1 - max ;
 713:Drivers/CMSIS/Include/cmsis_gcc.h ****     if (val > max)
 714:Drivers/CMSIS/Include/cmsis_gcc.h ****     {
 715:Drivers/CMSIS/Include/cmsis_gcc.h ****       return max;
 716:Drivers/CMSIS/Include/cmsis_gcc.h ****     }
 717:Drivers/CMSIS/Include/cmsis_gcc.h ****     else if (val < min)
 718:Drivers/CMSIS/Include/cmsis_gcc.h ****     {
 719:Drivers/CMSIS/Include/cmsis_gcc.h ****       return min;
 720:Drivers/CMSIS/Include/cmsis_gcc.h ****     }
 721:Drivers/CMSIS/Include/cmsis_gcc.h ****   }
 722:Drivers/CMSIS/Include/cmsis_gcc.h ****   return val;
 723:Drivers/CMSIS/Include/cmsis_gcc.h **** }
 724:Drivers/CMSIS/Include/cmsis_gcc.h **** 
 725:Drivers/CMSIS/Include/cmsis_gcc.h **** /**
 726:Drivers/CMSIS/Include/cmsis_gcc.h ****   \brief   Unsigned Saturate
 727:Drivers/CMSIS/Include/cmsis_gcc.h ****   \details Saturates an unsigned value.
 728:Drivers/CMSIS/Include/cmsis_gcc.h ****   \param [in]  value  Value to be saturated
 729:Drivers/CMSIS/Include/cmsis_gcc.h ****   \param [in]    sat  Bit position to saturate to (0..31)
 730:Drivers/CMSIS/Include/cmsis_gcc.h ****   \return             Saturated value
 731:Drivers/CMSIS/Include/cmsis_gcc.h ****  */
 732:Drivers/CMSIS/Include/cmsis_gcc.h **** __STATIC_FORCEINLINE uint32_t __USAT(int32_t val, uint32_t sat)
 733:Drivers/CMSIS/Include/cmsis_gcc.h **** {
 734:Drivers/CMSIS/Include/cmsis_gcc.h ****   if (sat <= 31U)
 735:Drivers/CMSIS/Include/cmsis_gcc.h ****   {
 736:Drivers/CMSIS/Include/cmsis_gcc.h ****     const uint32_t max = ((1U << sat) - 1U);
ARM GAS  /tmp/ccQ9BAu1.s 			page 39


 737:Drivers/CMSIS/Include/cmsis_gcc.h ****     if (val > (int32_t)max)
 738:Drivers/CMSIS/Include/cmsis_gcc.h ****     {
 739:Drivers/CMSIS/Include/cmsis_gcc.h ****       return max;
 740:Drivers/CMSIS/Include/cmsis_gcc.h ****     }
 741:Drivers/CMSIS/Include/cmsis_gcc.h ****     else if (val < 0)
 742:Drivers/CMSIS/Include/cmsis_gcc.h ****     {
 743:Drivers/CMSIS/Include/cmsis_gcc.h ****       return 0U;
 744:Drivers/CMSIS/Include/cmsis_gcc.h ****     }
 745:Drivers/CMSIS/Include/cmsis_gcc.h ****   }
 746:Drivers/CMSIS/Include/cmsis_gcc.h ****   return (uint32_t)val;
 747:Drivers/CMSIS/Include/cmsis_gcc.h **** }
 748:Drivers/CMSIS/Include/cmsis_gcc.h **** 
 749:Drivers/CMSIS/Include/cmsis_gcc.h **** #endif /* ((defined (__ARM_ARCH_7M__      ) && (__ARM_ARCH_7M__      == 1)) || \
 750:Drivers/CMSIS/Include/cmsis_gcc.h ****            (defined (__ARM_ARCH_7EM__     ) && (__ARM_ARCH_7EM__     == 1)) || \
 751:Drivers/CMSIS/Include/cmsis_gcc.h ****            (defined (__ARM_ARCH_8M_MAIN__ ) && (__ARM_ARCH_8M_MAIN__ == 1))    ) */
 752:Drivers/CMSIS/Include/cmsis_gcc.h **** 
 753:Drivers/CMSIS/Include/cmsis_gcc.h **** 
 754:Drivers/CMSIS/Include/cmsis_gcc.h **** #if ((defined (__ARM_ARCH_8M_MAIN__ ) && (__ARM_ARCH_8M_MAIN__ == 1)) || \
 755:Drivers/CMSIS/Include/cmsis_gcc.h ****      (defined (__ARM_ARCH_8M_BASE__ ) && (__ARM_ARCH_8M_BASE__ == 1))    )
 756:Drivers/CMSIS/Include/cmsis_gcc.h **** /**
 757:Drivers/CMSIS/Include/cmsis_gcc.h ****   \brief   Load-Acquire (8 bit)
 758:Drivers/CMSIS/Include/cmsis_gcc.h ****   \details Executes a LDAB instruction for 8 bit value.
 759:Drivers/CMSIS/Include/cmsis_gcc.h ****   \param [in]    ptr  Pointer to data
 760:Drivers/CMSIS/Include/cmsis_gcc.h ****   \return             value of type uint8_t at (*ptr)
 761:Drivers/CMSIS/Include/cmsis_gcc.h ****  */
 762:Drivers/CMSIS/Include/cmsis_gcc.h **** __STATIC_FORCEINLINE uint8_t __LDAB(volatile uint8_t *ptr)
 763:Drivers/CMSIS/Include/cmsis_gcc.h **** {
 764:Drivers/CMSIS/Include/cmsis_gcc.h ****     uint32_t result;
 765:Drivers/CMSIS/Include/cmsis_gcc.h **** 
 766:Drivers/CMSIS/Include/cmsis_gcc.h ****    __ASM volatile ("ldab %0, %1" : "=r" (result) : "Q" (*ptr) : "memory" );
 767:Drivers/CMSIS/Include/cmsis_gcc.h ****    return ((uint8_t) result);
 768:Drivers/CMSIS/Include/cmsis_gcc.h **** }
 769:Drivers/CMSIS/Include/cmsis_gcc.h **** 
 770:Drivers/CMSIS/Include/cmsis_gcc.h **** 
 771:Drivers/CMSIS/Include/cmsis_gcc.h **** /**
 772:Drivers/CMSIS/Include/cmsis_gcc.h ****   \brief   Load-Acquire (16 bit)
 773:Drivers/CMSIS/Include/cmsis_gcc.h ****   \details Executes a LDAH instruction for 16 bit values.
 774:Drivers/CMSIS/Include/cmsis_gcc.h ****   \param [in]    ptr  Pointer to data
 775:Drivers/CMSIS/Include/cmsis_gcc.h ****   \return        value of type uint16_t at (*ptr)
 776:Drivers/CMSIS/Include/cmsis_gcc.h ****  */
 777:Drivers/CMSIS/Include/cmsis_gcc.h **** __STATIC_FORCEINLINE uint16_t __LDAH(volatile uint16_t *ptr)
 778:Drivers/CMSIS/Include/cmsis_gcc.h **** {
 779:Drivers/CMSIS/Include/cmsis_gcc.h ****     uint32_t result;
 780:Drivers/CMSIS/Include/cmsis_gcc.h **** 
 781:Drivers/CMSIS/Include/cmsis_gcc.h ****    __ASM volatile ("ldah %0, %1" : "=r" (result) : "Q" (*ptr) : "memory" );
 782:Drivers/CMSIS/Include/cmsis_gcc.h ****    return ((uint16_t) result);
 783:Drivers/CMSIS/Include/cmsis_gcc.h **** }
 784:Drivers/CMSIS/Include/cmsis_gcc.h **** 
 785:Drivers/CMSIS/Include/cmsis_gcc.h **** 
 786:Drivers/CMSIS/Include/cmsis_gcc.h **** /**
 787:Drivers/CMSIS/Include/cmsis_gcc.h ****   \brief   Load-Acquire (32 bit)
 788:Drivers/CMSIS/Include/cmsis_gcc.h ****   \details Executes a LDA instruction for 32 bit values.
 789:Drivers/CMSIS/Include/cmsis_gcc.h ****   \param [in]    ptr  Pointer to data
 790:Drivers/CMSIS/Include/cmsis_gcc.h ****   \return        value of type uint32_t at (*ptr)
 791:Drivers/CMSIS/Include/cmsis_gcc.h ****  */
 792:Drivers/CMSIS/Include/cmsis_gcc.h **** __STATIC_FORCEINLINE uint32_t __LDA(volatile uint32_t *ptr)
 793:Drivers/CMSIS/Include/cmsis_gcc.h **** {
ARM GAS  /tmp/ccQ9BAu1.s 			page 40


 794:Drivers/CMSIS/Include/cmsis_gcc.h ****     uint32_t result;
 795:Drivers/CMSIS/Include/cmsis_gcc.h **** 
 796:Drivers/CMSIS/Include/cmsis_gcc.h ****    __ASM volatile ("lda %0, %1" : "=r" (result) : "Q" (*ptr) : "memory" );
 797:Drivers/CMSIS/Include/cmsis_gcc.h ****    return(result);
 798:Drivers/CMSIS/Include/cmsis_gcc.h **** }
 799:Drivers/CMSIS/Include/cmsis_gcc.h **** 
 800:Drivers/CMSIS/Include/cmsis_gcc.h **** 
 801:Drivers/CMSIS/Include/cmsis_gcc.h **** /**
 802:Drivers/CMSIS/Include/cmsis_gcc.h ****   \brief   Store-Release (8 bit)
 803:Drivers/CMSIS/Include/cmsis_gcc.h ****   \details Executes a STLB instruction for 8 bit values.
 804:Drivers/CMSIS/Include/cmsis_gcc.h ****   \param [in]  value  Value to store
 805:Drivers/CMSIS/Include/cmsis_gcc.h ****   \param [in]    ptr  Pointer to location
 806:Drivers/CMSIS/Include/cmsis_gcc.h ****  */
 807:Drivers/CMSIS/Include/cmsis_gcc.h **** __STATIC_FORCEINLINE void __STLB(uint8_t value, volatile uint8_t *ptr)
 808:Drivers/CMSIS/Include/cmsis_gcc.h **** {
 809:Drivers/CMSIS/Include/cmsis_gcc.h ****    __ASM volatile ("stlb %1, %0" : "=Q" (*ptr) : "r" ((uint32_t)value) : "memory" );
 810:Drivers/CMSIS/Include/cmsis_gcc.h **** }
 811:Drivers/CMSIS/Include/cmsis_gcc.h **** 
 812:Drivers/CMSIS/Include/cmsis_gcc.h **** 
 813:Drivers/CMSIS/Include/cmsis_gcc.h **** /**
 814:Drivers/CMSIS/Include/cmsis_gcc.h ****   \brief   Store-Release (16 bit)
 815:Drivers/CMSIS/Include/cmsis_gcc.h ****   \details Executes a STLH instruction for 16 bit values.
 816:Drivers/CMSIS/Include/cmsis_gcc.h ****   \param [in]  value  Value to store
 817:Drivers/CMSIS/Include/cmsis_gcc.h ****   \param [in]    ptr  Pointer to location
 818:Drivers/CMSIS/Include/cmsis_gcc.h ****  */
 819:Drivers/CMSIS/Include/cmsis_gcc.h **** __STATIC_FORCEINLINE void __STLH(uint16_t value, volatile uint16_t *ptr)
 820:Drivers/CMSIS/Include/cmsis_gcc.h **** {
 821:Drivers/CMSIS/Include/cmsis_gcc.h ****    __ASM volatile ("stlh %1, %0" : "=Q" (*ptr) : "r" ((uint32_t)value) : "memory" );
 822:Drivers/CMSIS/Include/cmsis_gcc.h **** }
 823:Drivers/CMSIS/Include/cmsis_gcc.h **** 
 824:Drivers/CMSIS/Include/cmsis_gcc.h **** 
 825:Drivers/CMSIS/Include/cmsis_gcc.h **** /**
 826:Drivers/CMSIS/Include/cmsis_gcc.h ****   \brief   Store-Release (32 bit)
 827:Drivers/CMSIS/Include/cmsis_gcc.h ****   \details Executes a STL instruction for 32 bit values.
 828:Drivers/CMSIS/Include/cmsis_gcc.h ****   \param [in]  value  Value to store
 829:Drivers/CMSIS/Include/cmsis_gcc.h ****   \param [in]    ptr  Pointer to location
 830:Drivers/CMSIS/Include/cmsis_gcc.h ****  */
 831:Drivers/CMSIS/Include/cmsis_gcc.h **** __STATIC_FORCEINLINE void __STL(uint32_t value, volatile uint32_t *ptr)
 832:Drivers/CMSIS/Include/cmsis_gcc.h **** {
 833:Drivers/CMSIS/Include/cmsis_gcc.h ****    __ASM volatile ("stl %1, %0" : "=Q" (*ptr) : "r" ((uint32_t)value) : "memory" );
 834:Drivers/CMSIS/Include/cmsis_gcc.h **** }
 835:Drivers/CMSIS/Include/cmsis_gcc.h **** 
 836:Drivers/CMSIS/Include/cmsis_gcc.h **** 
 837:Drivers/CMSIS/Include/cmsis_gcc.h **** /**
 838:Drivers/CMSIS/Include/cmsis_gcc.h ****   \brief   Load-Acquire Exclusive (8 bit)
 839:Drivers/CMSIS/Include/cmsis_gcc.h ****   \details Executes a LDAB exclusive instruction for 8 bit value.
 840:Drivers/CMSIS/Include/cmsis_gcc.h ****   \param [in]    ptr  Pointer to data
 841:Drivers/CMSIS/Include/cmsis_gcc.h ****   \return             value of type uint8_t at (*ptr)
 842:Drivers/CMSIS/Include/cmsis_gcc.h ****  */
 843:Drivers/CMSIS/Include/cmsis_gcc.h **** __STATIC_FORCEINLINE uint8_t __LDAEXB(volatile uint8_t *ptr)
 844:Drivers/CMSIS/Include/cmsis_gcc.h **** {
 845:Drivers/CMSIS/Include/cmsis_gcc.h ****     uint32_t result;
 846:Drivers/CMSIS/Include/cmsis_gcc.h **** 
 847:Drivers/CMSIS/Include/cmsis_gcc.h ****    __ASM volatile ("ldaexb %0, %1" : "=r" (result) : "Q" (*ptr) : "memory" );
 848:Drivers/CMSIS/Include/cmsis_gcc.h ****    return ((uint8_t) result);
 849:Drivers/CMSIS/Include/cmsis_gcc.h **** }
 850:Drivers/CMSIS/Include/cmsis_gcc.h **** 
ARM GAS  /tmp/ccQ9BAu1.s 			page 41


 851:Drivers/CMSIS/Include/cmsis_gcc.h **** 
 852:Drivers/CMSIS/Include/cmsis_gcc.h **** /**
 853:Drivers/CMSIS/Include/cmsis_gcc.h ****   \brief   Load-Acquire Exclusive (16 bit)
 854:Drivers/CMSIS/Include/cmsis_gcc.h ****   \details Executes a LDAH exclusive instruction for 16 bit values.
 855:Drivers/CMSIS/Include/cmsis_gcc.h ****   \param [in]    ptr  Pointer to data
 856:Drivers/CMSIS/Include/cmsis_gcc.h ****   \return        value of type uint16_t at (*ptr)
 857:Drivers/CMSIS/Include/cmsis_gcc.h ****  */
 858:Drivers/CMSIS/Include/cmsis_gcc.h **** __STATIC_FORCEINLINE uint16_t __LDAEXH(volatile uint16_t *ptr)
 859:Drivers/CMSIS/Include/cmsis_gcc.h **** {
 860:Drivers/CMSIS/Include/cmsis_gcc.h ****     uint32_t result;
 861:Drivers/CMSIS/Include/cmsis_gcc.h **** 
 862:Drivers/CMSIS/Include/cmsis_gcc.h ****    __ASM volatile ("ldaexh %0, %1" : "=r" (result) : "Q" (*ptr) : "memory" );
 863:Drivers/CMSIS/Include/cmsis_gcc.h ****    return ((uint16_t) result);
 864:Drivers/CMSIS/Include/cmsis_gcc.h **** }
 865:Drivers/CMSIS/Include/cmsis_gcc.h **** 
 866:Drivers/CMSIS/Include/cmsis_gcc.h **** 
 867:Drivers/CMSIS/Include/cmsis_gcc.h **** /**
 868:Drivers/CMSIS/Include/cmsis_gcc.h ****   \brief   Load-Acquire Exclusive (32 bit)
 869:Drivers/CMSIS/Include/cmsis_gcc.h ****   \details Executes a LDA exclusive instruction for 32 bit values.
 870:Drivers/CMSIS/Include/cmsis_gcc.h ****   \param [in]    ptr  Pointer to data
 871:Drivers/CMSIS/Include/cmsis_gcc.h ****   \return        value of type uint32_t at (*ptr)
 872:Drivers/CMSIS/Include/cmsis_gcc.h ****  */
 873:Drivers/CMSIS/Include/cmsis_gcc.h **** __STATIC_FORCEINLINE uint32_t __LDAEX(volatile uint32_t *ptr)
 874:Drivers/CMSIS/Include/cmsis_gcc.h **** {
 875:Drivers/CMSIS/Include/cmsis_gcc.h ****     uint32_t result;
 876:Drivers/CMSIS/Include/cmsis_gcc.h **** 
 877:Drivers/CMSIS/Include/cmsis_gcc.h ****    __ASM volatile ("ldaex %0, %1" : "=r" (result) : "Q" (*ptr) : "memory" );
 878:Drivers/CMSIS/Include/cmsis_gcc.h ****    return(result);
 879:Drivers/CMSIS/Include/cmsis_gcc.h **** }
 880:Drivers/CMSIS/Include/cmsis_gcc.h **** 
 881:Drivers/CMSIS/Include/cmsis_gcc.h **** 
 882:Drivers/CMSIS/Include/cmsis_gcc.h **** /**
 883:Drivers/CMSIS/Include/cmsis_gcc.h ****   \brief   Store-Release Exclusive (8 bit)
 884:Drivers/CMSIS/Include/cmsis_gcc.h ****   \details Executes a STLB exclusive instruction for 8 bit values.
 885:Drivers/CMSIS/Include/cmsis_gcc.h ****   \param [in]  value  Value to store
 886:Drivers/CMSIS/Include/cmsis_gcc.h ****   \param [in]    ptr  Pointer to location
 887:Drivers/CMSIS/Include/cmsis_gcc.h ****   \return          0  Function succeeded
 888:Drivers/CMSIS/Include/cmsis_gcc.h ****   \return          1  Function failed
 889:Drivers/CMSIS/Include/cmsis_gcc.h ****  */
 890:Drivers/CMSIS/Include/cmsis_gcc.h **** __STATIC_FORCEINLINE uint32_t __STLEXB(uint8_t value, volatile uint8_t *ptr)
 891:Drivers/CMSIS/Include/cmsis_gcc.h **** {
 892:Drivers/CMSIS/Include/cmsis_gcc.h ****    uint32_t result;
 893:Drivers/CMSIS/Include/cmsis_gcc.h **** 
 894:Drivers/CMSIS/Include/cmsis_gcc.h ****    __ASM volatile ("stlexb %0, %2, %1" : "=&r" (result), "=Q" (*ptr) : "r" ((uint32_t)value) : "mem
 895:Drivers/CMSIS/Include/cmsis_gcc.h ****    return(result);
 896:Drivers/CMSIS/Include/cmsis_gcc.h **** }
 897:Drivers/CMSIS/Include/cmsis_gcc.h **** 
 898:Drivers/CMSIS/Include/cmsis_gcc.h **** 
 899:Drivers/CMSIS/Include/cmsis_gcc.h **** /**
 900:Drivers/CMSIS/Include/cmsis_gcc.h ****   \brief   Store-Release Exclusive (16 bit)
 901:Drivers/CMSIS/Include/cmsis_gcc.h ****   \details Executes a STLH exclusive instruction for 16 bit values.
 902:Drivers/CMSIS/Include/cmsis_gcc.h ****   \param [in]  value  Value to store
 903:Drivers/CMSIS/Include/cmsis_gcc.h ****   \param [in]    ptr  Pointer to location
 904:Drivers/CMSIS/Include/cmsis_gcc.h ****   \return          0  Function succeeded
 905:Drivers/CMSIS/Include/cmsis_gcc.h ****   \return          1  Function failed
 906:Drivers/CMSIS/Include/cmsis_gcc.h ****  */
 907:Drivers/CMSIS/Include/cmsis_gcc.h **** __STATIC_FORCEINLINE uint32_t __STLEXH(uint16_t value, volatile uint16_t *ptr)
ARM GAS  /tmp/ccQ9BAu1.s 			page 42


 908:Drivers/CMSIS/Include/cmsis_gcc.h **** {
 909:Drivers/CMSIS/Include/cmsis_gcc.h ****    uint32_t result;
 910:Drivers/CMSIS/Include/cmsis_gcc.h **** 
 911:Drivers/CMSIS/Include/cmsis_gcc.h ****    __ASM volatile ("stlexh %0, %2, %1" : "=&r" (result), "=Q" (*ptr) : "r" ((uint32_t)value) : "mem
 912:Drivers/CMSIS/Include/cmsis_gcc.h ****    return(result);
 913:Drivers/CMSIS/Include/cmsis_gcc.h **** }
 914:Drivers/CMSIS/Include/cmsis_gcc.h **** 
 915:Drivers/CMSIS/Include/cmsis_gcc.h **** 
 916:Drivers/CMSIS/Include/cmsis_gcc.h **** /**
 917:Drivers/CMSIS/Include/cmsis_gcc.h ****   \brief   Store-Release Exclusive (32 bit)
 918:Drivers/CMSIS/Include/cmsis_gcc.h ****   \details Executes a STL exclusive instruction for 32 bit values.
 919:Drivers/CMSIS/Include/cmsis_gcc.h ****   \param [in]  value  Value to store
 920:Drivers/CMSIS/Include/cmsis_gcc.h ****   \param [in]    ptr  Pointer to location
 921:Drivers/CMSIS/Include/cmsis_gcc.h ****   \return          0  Function succeeded
 922:Drivers/CMSIS/Include/cmsis_gcc.h ****   \return          1  Function failed
 923:Drivers/CMSIS/Include/cmsis_gcc.h ****  */
 924:Drivers/CMSIS/Include/cmsis_gcc.h **** __STATIC_FORCEINLINE uint32_t __STLEX(uint32_t value, volatile uint32_t *ptr)
 925:Drivers/CMSIS/Include/cmsis_gcc.h **** {
 926:Drivers/CMSIS/Include/cmsis_gcc.h ****    uint32_t result;
 927:Drivers/CMSIS/Include/cmsis_gcc.h **** 
 928:Drivers/CMSIS/Include/cmsis_gcc.h ****    __ASM volatile ("stlex %0, %2, %1" : "=&r" (result), "=Q" (*ptr) : "r" ((uint32_t)value) : "memo
 929:Drivers/CMSIS/Include/cmsis_gcc.h ****    return(result);
 930:Drivers/CMSIS/Include/cmsis_gcc.h **** }
 931:Drivers/CMSIS/Include/cmsis_gcc.h **** 
 932:Drivers/CMSIS/Include/cmsis_gcc.h **** #endif /* ((defined (__ARM_ARCH_8M_MAIN__ ) && (__ARM_ARCH_8M_MAIN__ == 1)) || \
 933:Drivers/CMSIS/Include/cmsis_gcc.h ****            (defined (__ARM_ARCH_8M_BASE__ ) && (__ARM_ARCH_8M_BASE__ == 1))    ) */
 934:Drivers/CMSIS/Include/cmsis_gcc.h **** 
 935:Drivers/CMSIS/Include/cmsis_gcc.h **** /*@}*/ /* end of group CMSIS_Core_InstructionInterface */
 936:Drivers/CMSIS/Include/cmsis_gcc.h **** 
 937:Drivers/CMSIS/Include/cmsis_gcc.h **** 
 938:Drivers/CMSIS/Include/cmsis_gcc.h **** /* ###########################  Core Function Access  ########################### */
 939:Drivers/CMSIS/Include/cmsis_gcc.h **** /** \ingroup  CMSIS_Core_FunctionInterface
 940:Drivers/CMSIS/Include/cmsis_gcc.h ****     \defgroup CMSIS_Core_RegAccFunctions CMSIS Core Register Access Functions
 941:Drivers/CMSIS/Include/cmsis_gcc.h ****   @{
 942:Drivers/CMSIS/Include/cmsis_gcc.h ****  */
 943:Drivers/CMSIS/Include/cmsis_gcc.h **** 
 944:Drivers/CMSIS/Include/cmsis_gcc.h **** /**
 945:Drivers/CMSIS/Include/cmsis_gcc.h ****   \brief   Enable IRQ Interrupts
 946:Drivers/CMSIS/Include/cmsis_gcc.h ****   \details Enables IRQ interrupts by clearing special-purpose register PRIMASK.
 947:Drivers/CMSIS/Include/cmsis_gcc.h ****            Can only be executed in Privileged modes.
 948:Drivers/CMSIS/Include/cmsis_gcc.h ****  */
 949:Drivers/CMSIS/Include/cmsis_gcc.h **** __STATIC_FORCEINLINE void __enable_irq(void)
 950:Drivers/CMSIS/Include/cmsis_gcc.h **** {
 951:Drivers/CMSIS/Include/cmsis_gcc.h ****   __ASM volatile ("cpsie i" : : : "memory");
 952:Drivers/CMSIS/Include/cmsis_gcc.h **** }
 953:Drivers/CMSIS/Include/cmsis_gcc.h **** 
 954:Drivers/CMSIS/Include/cmsis_gcc.h **** 
 955:Drivers/CMSIS/Include/cmsis_gcc.h **** /**
 956:Drivers/CMSIS/Include/cmsis_gcc.h ****   \brief   Disable IRQ Interrupts
 957:Drivers/CMSIS/Include/cmsis_gcc.h ****   \details Disables IRQ interrupts by setting special-purpose register PRIMASK.
 958:Drivers/CMSIS/Include/cmsis_gcc.h ****            Can only be executed in Privileged modes.
 959:Drivers/CMSIS/Include/cmsis_gcc.h ****  */
 960:Drivers/CMSIS/Include/cmsis_gcc.h **** __STATIC_FORCEINLINE void __disable_irq(void)
 1028              		.loc 2 960 27 view .LVU197
 1029              	.LBB7:
 961:Drivers/CMSIS/Include/cmsis_gcc.h **** {
 962:Drivers/CMSIS/Include/cmsis_gcc.h ****   __ASM volatile ("cpsid i" : : : "memory");
ARM GAS  /tmp/ccQ9BAu1.s 			page 43


 1030              		.loc 2 962 3 view .LVU198
 1031              		.syntax unified
 1032              	@ 962 "Drivers/CMSIS/Include/cmsis_gcc.h" 1
 1033 0000 72B6     		cpsid i
 1034              	@ 0 "" 2
 1035              		.thumb
 1036              		.syntax unified
 1037              	.L26:
 1038              	.LBE7:
 1039              	.LBE6:
 379:Core/Src/main.c ****   while (1)
 1040              		.loc 1 379 3 view .LVU199
 380:Core/Src/main.c ****   {
 381:Core/Src/main.c ****   }
 1041              		.loc 1 381 3 view .LVU200
 379:Core/Src/main.c ****   while (1)
 1042              		.loc 1 379 9 view .LVU201
 1043 0002 FEE7     		b	.L26
 1044              		.cfi_endproc
 1045              	.LFE144:
 1047              		.section	.text.SystemClock_Config,"ax",%progbits
 1048              		.align	1
 1049              		.global	SystemClock_Config
 1050              		.syntax unified
 1051              		.thumb
 1052              		.thumb_func
 1054              	SystemClock_Config:
 1055              	.LFB143:
 325:Core/Src/main.c ****   RCC_OscInitTypeDef RCC_OscInitStruct = {0};
 1056              		.loc 1 325 1 view -0
 1057              		.cfi_startproc
 1058              		@ args = 0, pretend = 0, frame = 80
 1059              		@ frame_needed = 0, uses_anonymous_args = 0
 1060 0000 10B5     		push	{r4, lr}
 1061              		.cfi_def_cfa_offset 8
 1062              		.cfi_offset 4, -8
 1063              		.cfi_offset 14, -4
 1064 0002 94B0     		sub	sp, sp, #80
 1065              		.cfi_def_cfa_offset 88
 326:Core/Src/main.c ****   RCC_ClkInitTypeDef RCC_ClkInitStruct = {0};
 1066              		.loc 1 326 3 view .LVU203
 326:Core/Src/main.c ****   RCC_ClkInitTypeDef RCC_ClkInitStruct = {0};
 1067              		.loc 1 326 22 is_stmt 0 view .LVU204
 1068 0004 08AC     		add	r4, sp, #32
 1069 0006 3022     		movs	r2, #48
 1070 0008 0021     		movs	r1, #0
 1071 000a 2046     		mov	r0, r4
 1072 000c FFF7FEFF 		bl	memset
 1073              	.LVL94:
 327:Core/Src/main.c **** 
 1074              		.loc 1 327 3 is_stmt 1 view .LVU205
 327:Core/Src/main.c **** 
 1075              		.loc 1 327 22 is_stmt 0 view .LVU206
 1076 0010 0023     		movs	r3, #0
 1077 0012 0393     		str	r3, [sp, #12]
 1078 0014 0493     		str	r3, [sp, #16]
 1079 0016 0593     		str	r3, [sp, #20]
ARM GAS  /tmp/ccQ9BAu1.s 			page 44


 1080 0018 0693     		str	r3, [sp, #24]
 1081 001a 0793     		str	r3, [sp, #28]
 331:Core/Src/main.c ****   __HAL_PWR_VOLTAGESCALING_CONFIG(PWR_REGULATOR_VOLTAGE_SCALE1);
 1082              		.loc 1 331 3 is_stmt 1 view .LVU207
 1083              	.LBB8:
 331:Core/Src/main.c ****   __HAL_PWR_VOLTAGESCALING_CONFIG(PWR_REGULATOR_VOLTAGE_SCALE1);
 1084              		.loc 1 331 3 view .LVU208
 1085 001c 0193     		str	r3, [sp, #4]
 331:Core/Src/main.c ****   __HAL_PWR_VOLTAGESCALING_CONFIG(PWR_REGULATOR_VOLTAGE_SCALE1);
 1086              		.loc 1 331 3 view .LVU209
 1087 001e 1E4A     		ldr	r2, .L33
 1088 0020 116C     		ldr	r1, [r2, #64]
 1089 0022 41F08051 		orr	r1, r1, #268435456
 1090 0026 1164     		str	r1, [r2, #64]
 331:Core/Src/main.c ****   __HAL_PWR_VOLTAGESCALING_CONFIG(PWR_REGULATOR_VOLTAGE_SCALE1);
 1091              		.loc 1 331 3 view .LVU210
 1092 0028 126C     		ldr	r2, [r2, #64]
 1093 002a 02F08052 		and	r2, r2, #268435456
 1094 002e 0192     		str	r2, [sp, #4]
 331:Core/Src/main.c ****   __HAL_PWR_VOLTAGESCALING_CONFIG(PWR_REGULATOR_VOLTAGE_SCALE1);
 1095              		.loc 1 331 3 view .LVU211
 1096 0030 019A     		ldr	r2, [sp, #4]
 1097              	.LBE8:
 331:Core/Src/main.c ****   __HAL_PWR_VOLTAGESCALING_CONFIG(PWR_REGULATOR_VOLTAGE_SCALE1);
 1098              		.loc 1 331 3 view .LVU212
 332:Core/Src/main.c **** 
 1099              		.loc 1 332 3 view .LVU213
 1100              	.LBB9:
 332:Core/Src/main.c **** 
 1101              		.loc 1 332 3 view .LVU214
 1102 0032 0293     		str	r3, [sp, #8]
 332:Core/Src/main.c **** 
 1103              		.loc 1 332 3 view .LVU215
 1104 0034 194A     		ldr	r2, .L33+4
 1105 0036 1168     		ldr	r1, [r2]
 1106 0038 41F44041 		orr	r1, r1, #49152
 1107 003c 1160     		str	r1, [r2]
 332:Core/Src/main.c **** 
 1108              		.loc 1 332 3 view .LVU216
 1109 003e 1268     		ldr	r2, [r2]
 1110 0040 02F44042 		and	r2, r2, #49152
 1111 0044 0292     		str	r2, [sp, #8]
 332:Core/Src/main.c **** 
 1112              		.loc 1 332 3 view .LVU217
 1113 0046 029A     		ldr	r2, [sp, #8]
 1114              	.LBE9:
 332:Core/Src/main.c **** 
 1115              		.loc 1 332 3 view .LVU218
 337:Core/Src/main.c ****   RCC_OscInitStruct.HSIState = RCC_HSI_ON;
 1116              		.loc 1 337 3 view .LVU219
 337:Core/Src/main.c ****   RCC_OscInitStruct.HSIState = RCC_HSI_ON;
 1117              		.loc 1 337 36 is_stmt 0 view .LVU220
 1118 0048 0222     		movs	r2, #2
 1119 004a 0892     		str	r2, [sp, #32]
 338:Core/Src/main.c ****   RCC_OscInitStruct.HSICalibrationValue = RCC_HSICALIBRATION_DEFAULT;
 1120              		.loc 1 338 3 is_stmt 1 view .LVU221
 338:Core/Src/main.c ****   RCC_OscInitStruct.HSICalibrationValue = RCC_HSICALIBRATION_DEFAULT;
ARM GAS  /tmp/ccQ9BAu1.s 			page 45


 1121              		.loc 1 338 30 is_stmt 0 view .LVU222
 1122 004c 0121     		movs	r1, #1
 1123 004e 0B91     		str	r1, [sp, #44]
 339:Core/Src/main.c ****   RCC_OscInitStruct.PLL.PLLState = RCC_PLL_ON;
 1124              		.loc 1 339 3 is_stmt 1 view .LVU223
 339:Core/Src/main.c ****   RCC_OscInitStruct.PLL.PLLState = RCC_PLL_ON;
 1125              		.loc 1 339 41 is_stmt 0 view .LVU224
 1126 0050 1021     		movs	r1, #16
 1127 0052 0C91     		str	r1, [sp, #48]
 340:Core/Src/main.c ****   RCC_OscInitStruct.PLL.PLLSource = RCC_PLLSOURCE_HSI;
 1128              		.loc 1 340 3 is_stmt 1 view .LVU225
 340:Core/Src/main.c ****   RCC_OscInitStruct.PLL.PLLSource = RCC_PLLSOURCE_HSI;
 1129              		.loc 1 340 34 is_stmt 0 view .LVU226
 1130 0054 0E92     		str	r2, [sp, #56]
 341:Core/Src/main.c ****   RCC_OscInitStruct.PLL.PLLM = 8;
 1131              		.loc 1 341 3 is_stmt 1 view .LVU227
 341:Core/Src/main.c ****   RCC_OscInitStruct.PLL.PLLM = 8;
 1132              		.loc 1 341 35 is_stmt 0 view .LVU228
 1133 0056 0F93     		str	r3, [sp, #60]
 342:Core/Src/main.c ****   RCC_OscInitStruct.PLL.PLLN = 100;
 1134              		.loc 1 342 3 is_stmt 1 view .LVU229
 342:Core/Src/main.c ****   RCC_OscInitStruct.PLL.PLLN = 100;
 1135              		.loc 1 342 30 is_stmt 0 view .LVU230
 1136 0058 0823     		movs	r3, #8
 1137 005a 1093     		str	r3, [sp, #64]
 343:Core/Src/main.c ****   RCC_OscInitStruct.PLL.PLLP = RCC_PLLP_DIV2;
 1138              		.loc 1 343 3 is_stmt 1 view .LVU231
 343:Core/Src/main.c ****   RCC_OscInitStruct.PLL.PLLP = RCC_PLLP_DIV2;
 1139              		.loc 1 343 30 is_stmt 0 view .LVU232
 1140 005c 6423     		movs	r3, #100
 1141 005e 1193     		str	r3, [sp, #68]
 344:Core/Src/main.c ****   RCC_OscInitStruct.PLL.PLLQ = 4;
 1142              		.loc 1 344 3 is_stmt 1 view .LVU233
 344:Core/Src/main.c ****   RCC_OscInitStruct.PLL.PLLQ = 4;
 1143              		.loc 1 344 30 is_stmt 0 view .LVU234
 1144 0060 1292     		str	r2, [sp, #72]
 345:Core/Src/main.c ****   if (HAL_RCC_OscConfig(&RCC_OscInitStruct) != HAL_OK)
 1145              		.loc 1 345 3 is_stmt 1 view .LVU235
 345:Core/Src/main.c ****   if (HAL_RCC_OscConfig(&RCC_OscInitStruct) != HAL_OK)
 1146              		.loc 1 345 30 is_stmt 0 view .LVU236
 1147 0062 0423     		movs	r3, #4
 1148 0064 1393     		str	r3, [sp, #76]
 346:Core/Src/main.c ****   {
 1149              		.loc 1 346 3 is_stmt 1 view .LVU237
 346:Core/Src/main.c ****   {
 1150              		.loc 1 346 7 is_stmt 0 view .LVU238
 1151 0066 2046     		mov	r0, r4
 1152 0068 FFF7FEFF 		bl	HAL_RCC_OscConfig
 1153              	.LVL95:
 346:Core/Src/main.c ****   {
 1154              		.loc 1 346 6 discriminator 1 view .LVU239
 1155 006c 80B9     		cbnz	r0, .L31
 353:Core/Src/main.c ****                               |RCC_CLOCKTYPE_PCLK1|RCC_CLOCKTYPE_PCLK2;
 1156              		.loc 1 353 3 is_stmt 1 view .LVU240
 353:Core/Src/main.c ****                               |RCC_CLOCKTYPE_PCLK1|RCC_CLOCKTYPE_PCLK2;
 1157              		.loc 1 353 31 is_stmt 0 view .LVU241
 1158 006e 0F23     		movs	r3, #15
ARM GAS  /tmp/ccQ9BAu1.s 			page 46


 1159 0070 0393     		str	r3, [sp, #12]
 355:Core/Src/main.c ****   RCC_ClkInitStruct.AHBCLKDivider = RCC_SYSCLK_DIV1;
 1160              		.loc 1 355 3 is_stmt 1 view .LVU242
 355:Core/Src/main.c ****   RCC_ClkInitStruct.AHBCLKDivider = RCC_SYSCLK_DIV1;
 1161              		.loc 1 355 34 is_stmt 0 view .LVU243
 1162 0072 0223     		movs	r3, #2
 1163 0074 0493     		str	r3, [sp, #16]
 356:Core/Src/main.c ****   RCC_ClkInitStruct.APB1CLKDivider = RCC_HCLK_DIV2;
 1164              		.loc 1 356 3 is_stmt 1 view .LVU244
 356:Core/Src/main.c ****   RCC_ClkInitStruct.APB1CLKDivider = RCC_HCLK_DIV2;
 1165              		.loc 1 356 35 is_stmt 0 view .LVU245
 1166 0076 0023     		movs	r3, #0
 1167 0078 0593     		str	r3, [sp, #20]
 357:Core/Src/main.c ****   RCC_ClkInitStruct.APB2CLKDivider = RCC_HCLK_DIV1;
 1168              		.loc 1 357 3 is_stmt 1 view .LVU246
 357:Core/Src/main.c ****   RCC_ClkInitStruct.APB2CLKDivider = RCC_HCLK_DIV1;
 1169              		.loc 1 357 36 is_stmt 0 view .LVU247
 1170 007a 4FF48052 		mov	r2, #4096
 1171 007e 0692     		str	r2, [sp, #24]
 358:Core/Src/main.c **** 
 1172              		.loc 1 358 3 is_stmt 1 view .LVU248
 358:Core/Src/main.c **** 
 1173              		.loc 1 358 36 is_stmt 0 view .LVU249
 1174 0080 0793     		str	r3, [sp, #28]
 360:Core/Src/main.c ****   {
 1175              		.loc 1 360 3 is_stmt 1 view .LVU250
 360:Core/Src/main.c ****   {
 1176              		.loc 1 360 7 is_stmt 0 view .LVU251
 1177 0082 0321     		movs	r1, #3
 1178 0084 03A8     		add	r0, sp, #12
 1179 0086 FFF7FEFF 		bl	HAL_RCC_ClockConfig
 1180              	.LVL96:
 360:Core/Src/main.c ****   {
 1181              		.loc 1 360 6 discriminator 1 view .LVU252
 1182 008a 18B9     		cbnz	r0, .L32
 364:Core/Src/main.c **** 
 1183              		.loc 1 364 1 view .LVU253
 1184 008c 14B0     		add	sp, sp, #80
 1185              		.cfi_remember_state
 1186              		.cfi_def_cfa_offset 8
 1187              		@ sp needed
 1188 008e 10BD     		pop	{r4, pc}
 1189              	.L31:
 1190              		.cfi_restore_state
 348:Core/Src/main.c ****   }
 1191              		.loc 1 348 5 is_stmt 1 view .LVU254
 1192 0090 FFF7FEFF 		bl	Error_Handler
 1193              	.LVL97:
 1194              	.L32:
 362:Core/Src/main.c ****   }
 1195              		.loc 1 362 5 view .LVU255
 1196 0094 FFF7FEFF 		bl	Error_Handler
 1197              	.LVL98:
 1198              	.L34:
 1199              		.align	2
 1200              	.L33:
 1201 0098 00380240 		.word	1073887232
ARM GAS  /tmp/ccQ9BAu1.s 			page 47


 1202 009c 00700040 		.word	1073770496
 1203              		.cfi_endproc
 1204              	.LFE143:
 1206              		.section	.rodata.main.str1.4,"aMS",%progbits,1
 1207              		.align	2
 1208              	.LC25:
 1209 0000 6374726C 		.ascii	"ctrl_meas\000"
 1209      5F6D6561 
 1209      7300
 1210 000a 0000     		.align	2
 1211              	.LC27:
 1212 000c 74656D70 		.ascii	"temp_msb\000"
 1212      5F6D7362 
 1212      00
 1213 0015 000000   		.align	2
 1214              	.LC28:
 1215 0018 74656D70 		.ascii	"temp_lsb\000"
 1215      5F6C7362 
 1215      00
 1216 0021 000000   		.align	2
 1217              	.LC29:
 1218 0024 74656D70 		.ascii	"temp_xlsb\000"
 1218      5F786C73 
 1218      6200
 1219 002e 0000     		.align	2
 1220              	.LC30:
 1221 0030 54656D70 		.ascii	"Temperature: %.2f Celsius\012\012\015\000"
 1221      65726174 
 1221      7572653A 
 1221      20252E32 
 1221      66204365 
 1222 004d 000000   		.align	2
 1223              	.LC31:
 1224 0050 70726573 		.ascii	"press_msb\000"
 1224      735F6D73 
 1224      6200
 1225 005a 0000     		.align	2
 1226              	.LC32:
 1227 005c 70726573 		.ascii	"press_lsb\000"
 1227      735F6C73 
 1227      6200
 1228 0066 0000     		.align	2
 1229              	.LC33:
 1230 0068 70726573 		.ascii	"press_xlsb\000"
 1230      735F786C 
 1230      736200
 1231 0073 00       		.align	2
 1232              	.LC34:
 1233 0074 50726573 		.ascii	"Pressure: %.4f Pa\012\012\015\000"
 1233      73757265 
 1233      3A20252E 
 1233      34662050 
 1233      610A0A0D 
 1234 0089 000000   		.align	2
 1235              	.LC36:
 1236 008c 41636365 		.ascii	"Acceleration: (%0.4f, %0.4f, %0.4f) \012\012\015\000"
 1236      6C657261 
ARM GAS  /tmp/ccQ9BAu1.s 			page 48


 1236      74696F6E 
 1236      3A202825 
 1236      302E3466 
 1237              		.align	2
 1238              	.LC21:
 1239 00b4 2D2D2D2D 		.ascii	"--------------------LSM6DS33 init------------------"
 1239      2D2D2D2D 
 1239      2D2D2D2D 
 1239      2D2D2D2D 
 1239      2D2D2D2D 
 1240 00e7 2D2D2D2D 		.ascii	"--------\012\015\000"
 1240      2D2D2D2D 
 1240      0A0D00
 1241 00f2 0000     		.align	2
 1242              	.LC22:
 1243 00f4 41434345 		.ascii	"ACCELEROMETER READ SUCCESSFULLY (nice)\012\015\000"
 1243      4C45524F 
 1243      4D455445 
 1243      52205245 
 1243      41442053 
 1244              		.section	.text.main,"ax",%progbits
 1245              		.align	1
 1246              		.global	main
 1247              		.syntax unified
 1248              		.thumb
 1249              		.thumb_func
 1251              	main:
 1252              	.LFB142:
 200:Core/Src/main.c **** 
 1253              		.loc 1 200 1 view -0
 1254              		.cfi_startproc
 1255              		@ args = 0, pretend = 0, frame = 736
 1256              		@ frame_needed = 0, uses_anonymous_args = 0
 1257 0000 2DE9F041 		push	{r4, r5, r6, r7, r8, lr}
 1258              		.cfi_def_cfa_offset 24
 1259              		.cfi_offset 4, -24
 1260              		.cfi_offset 5, -20
 1261              		.cfi_offset 6, -16
 1262              		.cfi_offset 7, -12
 1263              		.cfi_offset 8, -8
 1264              		.cfi_offset 14, -4
 1265 0004 ADF53C7D 		sub	sp, sp, #752
 1266              		.cfi_def_cfa_offset 776
 203:Core/Src/main.c ****   send_message(data, PRIORITY_HIGH);
 1267              		.loc 1 203 3 view .LVU257
 203:Core/Src/main.c ****   send_message(data, PRIORITY_HIGH);
 1268              		.loc 1 203 8 is_stmt 0 view .LVU258
 1269 0008 324D     		ldr	r5, .L46
 1270 000a A3AC     		add	r4, sp, #652
 1271 000c 6869     		ldr	r0, [r5, #20]	@ unaligned
 1272 000e A969     		ldr	r1, [r5, #24]	@ unaligned
 1273 0010 EA69     		ldr	r2, [r5, #28]	@ unaligned
 1274 0012 2B6A     		ldr	r3, [r5, #32]	@ unaligned
 1275 0014 0FC4     		stmia	r4!, {r0, r1, r2, r3}
 1276 0016 686A     		ldr	r0, [r5, #36]	@ unaligned
 1277 0018 A96A     		ldr	r1, [r5, #40]	@ unaligned
 1278 001a 03C4     		stmia	r4!, {r0, r1}
ARM GAS  /tmp/ccQ9BAu1.s 			page 49


 1279 001c 4C22     		movs	r2, #76
 1280 001e 0021     		movs	r1, #0
 1281 0020 2046     		mov	r0, r4
 1282 0022 FFF7FEFF 		bl	memset
 1283              	.LVL99:
 204:Core/Src/main.c **** 
 1284              		.loc 1 204 3 is_stmt 1 view .LVU259
 1285 0026 0221     		movs	r1, #2
 1286 0028 A3A8     		add	r0, sp, #652
 1287 002a FFF7FEFF 		bl	send_message
 1288              	.LVL100:
 211:Core/Src/main.c **** 
 1289              		.loc 1 211 3 view .LVU260
 1290 002e FFF7FEFF 		bl	HAL_Init
 1291              	.LVL101:
 218:Core/Src/main.c **** 
 1292              		.loc 1 218 3 view .LVU261
 1293 0032 FFF7FEFF 		bl	SystemClock_Config
 1294              	.LVL102:
 225:Core/Src/main.c ****   MX_I2C1_Init();
 1295              		.loc 1 225 3 view .LVU262
 1296 0036 FFF7FEFF 		bl	MX_GPIO_Init
 1297              	.LVL103:
 226:Core/Src/main.c ****   MX_USART1_UART_Init();
 1298              		.loc 1 226 3 view .LVU263
 1299 003a FFF7FEFF 		bl	MX_I2C1_Init
 1300              	.LVL104:
 227:Core/Src/main.c ****   MX_TIM1_Init();
 1301              		.loc 1 227 3 view .LVU264
 1302 003e FFF7FEFF 		bl	MX_USART1_UART_Init
 1303              	.LVL105:
 228:Core/Src/main.c ****   /* USER CODE BEGIN 2 */
 1304              		.loc 1 228 3 view .LVU265
 1305 0042 FFF7FEFF 		bl	MX_TIM1_Init
 1306              	.LVL106:
 230:Core/Src/main.c **** 
 1307              		.loc 1 230 3 view .LVU266
 1308 0046 0021     		movs	r1, #0
 1309 0048 2348     		ldr	r0, .L46+4
 1310 004a FFF7FEFF 		bl	HAL_TIM_PWM_Start
 1311              	.LVL107:
 232:Core/Src/main.c ****   send_message(str_buf, PRIORITY_HIGH);
 1312              		.loc 1 232 3 view .LVU267
 232:Core/Src/main.c ****   send_message(str_buf, PRIORITY_HIGH);
 1313              		.loc 1 232 8 is_stmt 0 view .LVU268
 1314 004e 234C     		ldr	r4, .L46+8
 1315 0050 8AAE     		add	r6, sp, #552
 1316 0052 04F13007 		add	r7, r4, #48
 1317              	.L36:
 1318 0056 3546     		mov	r5, r6
 1319 0058 2068     		ldr	r0, [r4]	@ unaligned
 1320 005a 6168     		ldr	r1, [r4, #4]	@ unaligned
 1321 005c A268     		ldr	r2, [r4, #8]	@ unaligned
 1322 005e E368     		ldr	r3, [r4, #12]	@ unaligned
 1323 0060 0FC5     		stmia	r5!, {r0, r1, r2, r3}
 1324 0062 1034     		adds	r4, r4, #16
 1325 0064 2E46     		mov	r6, r5
ARM GAS  /tmp/ccQ9BAu1.s 			page 50


 1326 0066 BC42     		cmp	r4, r7
 1327 0068 F5D1     		bne	.L36
 1328 006a 2068     		ldr	r0, [r4]	@ unaligned
 1329 006c 6168     		ldr	r1, [r4, #4]	@ unaligned
 1330 006e A268     		ldr	r2, [r4, #8]	@ unaligned
 1331 0070 07C6     		stmia	r6!, {r0, r1, r2}
 1332 0072 A389     		ldrh	r3, [r4, #12]	@ unaligned
 1333 0074 3380     		strh	r3, [r6]	@ unaligned
 1334 0076 2622     		movs	r2, #38
 1335 0078 0021     		movs	r1, #0
 1336 007a 0DF26620 		addw	r0, sp, #614
 1337 007e FFF7FEFF 		bl	memset
 1338              	.LVL108:
 233:Core/Src/main.c **** 
 1339              		.loc 1 233 3 is_stmt 1 view .LVU269
 1340 0082 0221     		movs	r1, #2
 1341 0084 8AA8     		add	r0, sp, #552
 1342 0086 FFF7FEFF 		bl	send_message
 1343              	.LVL109:
 235:Core/Src/main.c ****   {
 1344              		.loc 1 235 3 view .LVU270
 235:Core/Src/main.c ****   {
 1345              		.loc 1 235 7 is_stmt 0 view .LVU271
 1346 008a FFF7FEFF 		bl	check_acc_identity
 1347              	.LVL110:
 235:Core/Src/main.c ****   {
 1348              		.loc 1 235 6 discriminator 1 view .LVU272
 1349 008e 48B3     		cbz	r0, .L37
 1350              	.LBB10:
 237:Core/Src/main.c **** 		send_message(buffer, PRIORITY_HIGH);
 1351              		.loc 1 237 3 is_stmt 1 view .LVU273
 237:Core/Src/main.c **** 		send_message(buffer, PRIORITY_HIGH);
 1352              		.loc 1 237 8 is_stmt 0 view .LVU274
 1353 0090 70AF     		add	r7, sp, #448
 1354 0092 134C     		ldr	r4, .L46+12
 1355 0094 3E46     		mov	r6, r7
 1356 0096 04F1200C 		add	ip, r4, #32
 1357              	.L38:
 1358 009a 3546     		mov	r5, r6
 1359 009c 2068     		ldr	r0, [r4]	@ unaligned
 1360 009e 6168     		ldr	r1, [r4, #4]	@ unaligned
 1361 00a0 A268     		ldr	r2, [r4, #8]	@ unaligned
 1362 00a2 E368     		ldr	r3, [r4, #12]	@ unaligned
 1363 00a4 0FC5     		stmia	r5!, {r0, r1, r2, r3}
 1364 00a6 1034     		adds	r4, r4, #16
 1365 00a8 2E46     		mov	r6, r5
 1366 00aa 6445     		cmp	r4, ip
 1367 00ac F5D1     		bne	.L38
 1368 00ae 2068     		ldr	r0, [r4]	@ unaligned
 1369 00b0 6168     		ldr	r1, [r4, #4]	@ unaligned
 1370 00b2 03C6     		stmia	r6!, {r0, r1}
 1371 00b4 237A     		ldrb	r3, [r4, #8]	@ zero_extendqisi2
 1372 00b6 3370     		strb	r3, [r6]
 1373 00b8 3B22     		movs	r2, #59
 1374 00ba 0021     		movs	r1, #0
 1375 00bc 07F12900 		add	r0, r7, #41
 1376 00c0 FFF7FEFF 		bl	memset
ARM GAS  /tmp/ccQ9BAu1.s 			page 51


 1377              	.LVL111:
 238:Core/Src/main.c **** 
 1378              		.loc 1 238 3 is_stmt 1 view .LVU275
 1379 00c4 0221     		movs	r1, #2
 1380 00c6 70A8     		add	r0, sp, #448
 1381 00c8 FFF7FEFF 		bl	send_message
 1382              	.LVL112:
 240:Core/Src/main.c ****   }
 1383              		.loc 1 240 5 view .LVU276
 1384 00cc FFF7FEFF 		bl	acc_power_on
 1385              	.LVL113:
 1386              	.LBE10:
 1387 00d0 25E0     		b	.L39
 1388              	.L47:
 1389 00d2 00BF     		.align	2
 1390              	.L46:
 1391 00d4 00000000 		.word	.LANCHOR0
 1392 00d8 00000000 		.word	htim1
 1393 00dc B4000000 		.word	.LC21
 1394 00e0 F4000000 		.word	.LC22
 1395              	.L37:
 1396              	.LBB11:
 244:Core/Src/main.c **** 		send_message(buffer, PRIORITY_HIGH);
 1397              		.loc 1 244 3 view .LVU277
 244:Core/Src/main.c **** 		send_message(buffer, PRIORITY_HIGH);
 1398              		.loc 1 244 8 is_stmt 0 view .LVU278
 1399 00e4 70AE     		add	r6, sp, #448
 1400 00e6 3446     		mov	r4, r6
 1401 00e8 B04D     		ldr	r5, .L48
 1402 00ea 0FCD     		ldmia	r5!, {r0, r1, r2, r3}
 1403 00ec 0FC4     		stmia	r4!, {r0, r1, r2, r3}
 1404 00ee 95E80700 		ldm	r5, {r0, r1, r2}
 1405 00f2 03C4     		stmia	r4!, {r0, r1}
 1406 00f4 24F8022B 		strh	r2, [r4], #2	@ movhi
 1407 00f8 120C     		lsrs	r2, r2, #16
 1408 00fa 2270     		strb	r2, [r4]
 1409 00fc 0022     		movs	r2, #0
 1410 00fe CDF8DB21 		str	r2, [sp, #475]	@ unaligned
 1411 0102 CDF8DF21 		str	r2, [sp, #479]	@ unaligned
 1412 0106 CDF8E321 		str	r2, [sp, #483]	@ unaligned
 1413 010a CDF8E721 		str	r2, [sp, #487]	@ unaligned
 1414 010e CDF8EB21 		str	r2, [sp, #491]	@ unaligned
 1415 0112 CDF8EE21 		str	r2, [sp, #494]	@ unaligned
 245:Core/Src/main.c ****   }
 1416              		.loc 1 245 3 is_stmt 1 view .LVU279
 1417 0116 0221     		movs	r1, #2
 1418 0118 3046     		mov	r0, r6
 1419 011a FFF7FEFF 		bl	send_message
 1420              	.LVL114:
 1421              	.L39:
 1422              	.LBE11:
 248:Core/Src/main.c ****   {
 1423              		.loc 1 248 3 view .LVU280
 248:Core/Src/main.c ****   {
 1424              		.loc 1 248 7 is_stmt 0 view .LVU281
 1425 011e FFF7FEFF 		bl	check_barometer_identity
 1426              	.LVL115:
ARM GAS  /tmp/ccQ9BAu1.s 			page 52


 248:Core/Src/main.c ****   {
 1427              		.loc 1 248 6 discriminator 1 view .LVU282
 1428 0122 0028     		cmp	r0, #0
 1429 0124 00F03181 		beq	.L40
 1430              	.LBB12:
 250:Core/Src/main.c **** 		send_message(buffer, PRIORITY_HIGH);
 1431              		.loc 1 250 3 is_stmt 1 view .LVU283
 250:Core/Src/main.c **** 		send_message(buffer, PRIORITY_HIGH);
 1432              		.loc 1 250 8 is_stmt 0 view .LVU284
 1433 0128 70AE     		add	r6, sp, #448
 1434 012a 3446     		mov	r4, r6
 1435 012c A04D     		ldr	r5, .L48+4
 1436 012e 0FCD     		ldmia	r5!, {r0, r1, r2, r3}
 1437 0130 0FC4     		stmia	r4!, {r0, r1, r2, r3}
 1438 0132 95E80300 		ldm	r5, {r0, r1}
 1439 0136 84E80300 		stm	r4, {r0, r1}
 1440 013a 0023     		movs	r3, #0
 1441 013c 7693     		str	r3, [sp, #472]
 251:Core/Src/main.c ****   }
 1442              		.loc 1 251 3 is_stmt 1 view .LVU285
 1443 013e 0221     		movs	r1, #2
 1444 0140 3046     		mov	r0, r6
 1445 0142 FFF7FEFF 		bl	send_message
 1446              	.LVL116:
 1447              	.L41:
 1448              	.LBE12:
 259:Core/Src/main.c **** 
 1449              		.loc 1 259 3 view .LVU286
 1450 0146 FFF7FEFF 		bl	Read_Dig_Variables
 1451              	.LVL117:
 262:Core/Src/main.c ****   send_reg_log(HAL_I2C_Mem_Write(&hi2c1, 0x76 << 1, 0xF4, I2C_MEMADD_SIZE_8BIT, &ctrl_meas, 1, 0xFF
 1452              		.loc 1 262 3 view .LVU287
 262:Core/Src/main.c ****   send_reg_log(HAL_I2C_Mem_Write(&hi2c1, 0x76 << 1, 0xF4, I2C_MEMADD_SIZE_8BIT, &ctrl_meas, 1, 0xFF
 1453              		.loc 1 262 11 is_stmt 0 view .LVU288
 1454 014a 4923     		movs	r3, #73
 1455 014c 8DF82732 		strb	r3, [sp, #551]
 263:Core/Src/main.c **** 
 1456              		.loc 1 263 3 is_stmt 1 view .LVU289
 1457 0150 FF23     		movs	r3, #255
 1458 0152 0293     		str	r3, [sp, #8]
 1459 0154 0123     		movs	r3, #1
 1460 0156 0193     		str	r3, [sp, #4]
 1461 0158 0DF22722 		addw	r2, sp, #551
 1462 015c 0092     		str	r2, [sp]
 1463 015e F422     		movs	r2, #244
 1464 0160 EC21     		movs	r1, #236
 1465 0162 9448     		ldr	r0, .L48+8
 1466 0164 FFF7FEFF 		bl	HAL_I2C_Mem_Write
 1467              	.LVL118:
 263:Core/Src/main.c **** 
 1468              		.loc 1 263 3 is_stmt 0 discriminator 1 view .LVU290
 1469 0168 9349     		ldr	r1, .L48+12
 1470 016a FFF7FEFF 		bl	send_reg_log
 1471              	.LVL119:
 1472              	.L44:
 269:Core/Src/main.c ****   {
 1473              		.loc 1 269 3 is_stmt 1 view .LVU291
ARM GAS  /tmp/ccQ9BAu1.s 			page 53


 1474              	.LBB13:
 271:Core/Src/main.c **** 
 1475              		.loc 1 271 5 view .LVU292
 1476 016e 4FF47A70 		mov	r0, #1000
 1477 0172 FFF7FEFF 		bl	HAL_Delay
 1478              	.LVL120:
 273:Core/Src/main.c ****     send_message(data, PRIORITY_HIGH);
 1479              		.loc 1 273 5 view .LVU293
 273:Core/Src/main.c ****     send_message(data, PRIORITY_HIGH);
 1480              		.loc 1 273 10 is_stmt 0 view .LVU294
 1481 0176 0CAE     		add	r6, sp, #48
 1482 0178 904C     		ldr	r4, .L48+16
 1483 017a 04F17C0C 		add	ip, r4, #124
 1484 017e 3546     		mov	r5, r6
 1485 0180 AC34     		adds	r4, r4, #172
 1486              	.L42:
 1487 0182 AE46     		mov	lr, r5
 1488 0184 DCF80000 		ldr	r0, [ip]	@ unaligned
 1489 0188 DCF80410 		ldr	r1, [ip, #4]	@ unaligned
 1490 018c DCF80820 		ldr	r2, [ip, #8]	@ unaligned
 1491 0190 DCF80C30 		ldr	r3, [ip, #12]	@ unaligned
 1492 0194 AEE80F00 		stmia	lr!, {r0, r1, r2, r3}
 1493 0198 0CF1100C 		add	ip, ip, #16
 1494 019c 7546     		mov	r5, lr
 1495 019e A445     		cmp	ip, r4
 1496 01a0 EFD1     		bne	.L42
 1497 01a2 DCF80000 		ldr	r0, [ip]	@ unaligned
 1498 01a6 CEF80000 		str	r0, [lr]
 1499 01aa 9CF80430 		ldrb	r3, [ip, #4]	@ zero_extendqisi2
 1500 01ae 8EF80430 		strb	r3, [lr, #4]
 1501 01b2 2F22     		movs	r2, #47
 1502 01b4 0021     		movs	r1, #0
 1503 01b6 06F13500 		add	r0, r6, #53
 1504 01ba FFF7FEFF 		bl	memset
 1505              	.LVL121:
 274:Core/Src/main.c **** 
 1506              		.loc 1 274 5 is_stmt 1 view .LVU295
 1507 01be 0221     		movs	r1, #2
 1508 01c0 0CA8     		add	r0, sp, #48
 1509 01c2 FFF7FEFF 		bl	send_message
 1510              	.LVL122:
 277:Core/Src/main.c ****     temp_raw[0] = temp_raw[1] = temp_raw[2]  = 0;
 1511              		.loc 1 277 5 view .LVU296
 278:Core/Src/main.c ****     send_reg_log(HAL_I2C_Mem_Read(&hi2c1, 0x76 << 1, 0xFA, I2C_MEMADD_SIZE_8BIT, temp_raw, 1, 0xFF)
 1512              		.loc 1 278 5 view .LVU297
 278:Core/Src/main.c ****     send_reg_log(HAL_I2C_Mem_Read(&hi2c1, 0x76 << 1, 0xFA, I2C_MEMADD_SIZE_8BIT, temp_raw, 1, 0xFF)
 1513              		.loc 1 278 46 is_stmt 0 view .LVU298
 1514 01c6 04AD     		add	r5, sp, #16
 1515 01c8 4FF00008 		mov	r8, #0
 1516 01cc 8DF81280 		strb	r8, [sp, #18]
 278:Core/Src/main.c ****     send_reg_log(HAL_I2C_Mem_Read(&hi2c1, 0x76 << 1, 0xFA, I2C_MEMADD_SIZE_8BIT, temp_raw, 1, 0xFF)
 1517              		.loc 1 278 31 view .LVU299
 1518 01d0 8DF81180 		strb	r8, [sp, #17]
 278:Core/Src/main.c ****     send_reg_log(HAL_I2C_Mem_Read(&hi2c1, 0x76 << 1, 0xFA, I2C_MEMADD_SIZE_8BIT, temp_raw, 1, 0xFF)
 1519              		.loc 1 278 17 view .LVU300
 1520 01d4 8DF81080 		strb	r8, [sp, #16]
 279:Core/Src/main.c ****     send_reg_log(HAL_I2C_Mem_Read(&hi2c1, 0x76 << 1, 0xFB, I2C_MEMADD_SIZE_8BIT, temp_raw+1, 1, 0xF
ARM GAS  /tmp/ccQ9BAu1.s 			page 54


 1521              		.loc 1 279 5 is_stmt 1 view .LVU301
 1522 01d8 764E     		ldr	r6, .L48+8
 1523 01da FF27     		movs	r7, #255
 1524 01dc 0297     		str	r7, [sp, #8]
 1525 01de 0124     		movs	r4, #1
 1526 01e0 0194     		str	r4, [sp, #4]
 1527 01e2 0095     		str	r5, [sp]
 1528 01e4 2346     		mov	r3, r4
 1529 01e6 FA22     		movs	r2, #250
 1530 01e8 EC21     		movs	r1, #236
 1531 01ea 3046     		mov	r0, r6
 1532 01ec FFF7FEFF 		bl	HAL_I2C_Mem_Read
 1533              	.LVL123:
 279:Core/Src/main.c ****     send_reg_log(HAL_I2C_Mem_Read(&hi2c1, 0x76 << 1, 0xFB, I2C_MEMADD_SIZE_8BIT, temp_raw+1, 1, 0xF
 1534              		.loc 1 279 5 is_stmt 0 discriminator 1 view .LVU302
 1535 01f0 7349     		ldr	r1, .L48+20
 1536 01f2 FFF7FEFF 		bl	send_reg_log
 1537              	.LVL124:
 280:Core/Src/main.c ****     send_reg_log(HAL_I2C_Mem_Read(&hi2c1, 0x76 << 1, 0xFC, I2C_MEMADD_SIZE_8BIT, temp_raw+2, 1, 0xF
 1538              		.loc 1 280 5 is_stmt 1 view .LVU303
 1539 01f6 0297     		str	r7, [sp, #8]
 1540 01f8 0194     		str	r4, [sp, #4]
 1541 01fa 0DF11103 		add	r3, sp, #17
 1542 01fe 0093     		str	r3, [sp]
 1543 0200 2346     		mov	r3, r4
 1544 0202 FB22     		movs	r2, #251
 1545 0204 EC21     		movs	r1, #236
 1546 0206 3046     		mov	r0, r6
 1547 0208 FFF7FEFF 		bl	HAL_I2C_Mem_Read
 1548              	.LVL125:
 280:Core/Src/main.c ****     send_reg_log(HAL_I2C_Mem_Read(&hi2c1, 0x76 << 1, 0xFC, I2C_MEMADD_SIZE_8BIT, temp_raw+2, 1, 0xF
 1549              		.loc 1 280 5 is_stmt 0 discriminator 1 view .LVU304
 1550 020c 6D49     		ldr	r1, .L48+24
 1551 020e FFF7FEFF 		bl	send_reg_log
 1552              	.LVL126:
 281:Core/Src/main.c **** 
 1553              		.loc 1 281 5 is_stmt 1 view .LVU305
 1554 0212 0297     		str	r7, [sp, #8]
 1555 0214 0194     		str	r4, [sp, #4]
 1556 0216 0DF11203 		add	r3, sp, #18
 1557 021a 0093     		str	r3, [sp]
 1558 021c 2346     		mov	r3, r4
 1559 021e FC22     		movs	r2, #252
 1560 0220 EC21     		movs	r1, #236
 1561 0222 3046     		mov	r0, r6
 1562 0224 FFF7FEFF 		bl	HAL_I2C_Mem_Read
 1563              	.LVL127:
 281:Core/Src/main.c **** 
 1564              		.loc 1 281 5 is_stmt 0 discriminator 1 view .LVU306
 1565 0228 6749     		ldr	r1, .L48+28
 1566 022a FFF7FEFF 		bl	send_reg_log
 1567              	.LVL128:
 283:Core/Src/main.c ****     actual_temp = 0;
 1568              		.loc 1 283 5 is_stmt 1 view .LVU307
 283:Core/Src/main.c ****     actual_temp = 0;
 1569              		.loc 1 283 58 is_stmt 0 view .LVU308
 1570 022e 9DF81020 		ldrb	r2, [sp, #16]	@ zero_extendqisi2
ARM GAS  /tmp/ccQ9BAu1.s 			page 55


 283:Core/Src/main.c ****     actual_temp = 0;
 1571              		.loc 1 283 90 view .LVU309
 1572 0232 9DF81130 		ldrb	r3, [sp, #17]	@ zero_extendqisi2
 283:Core/Src/main.c ****     actual_temp = 0;
 1573              		.loc 1 283 94 view .LVU310
 1574 0236 1B01     		lsls	r3, r3, #4
 283:Core/Src/main.c ****     actual_temp = 0;
 1575              		.loc 1 283 69 view .LVU311
 1576 0238 43EA0233 		orr	r3, r3, r2, lsl #12
 283:Core/Src/main.c ****     actual_temp = 0;
 1577              		.loc 1 283 121 view .LVU312
 1578 023c 9DF81200 		ldrb	r0, [sp, #18]	@ zero_extendqisi2
 1579              	.LVL129:
 284:Core/Src/main.c ****     actual_temp = bmp280_compensate_T_int32(temp_raw_32);
 1580              		.loc 1 284 5 is_stmt 1 view .LVU313
 284:Core/Src/main.c ****     actual_temp = bmp280_compensate_T_int32(temp_raw_32);
 1581              		.loc 1 284 17 is_stmt 0 view .LVU314
 1582 0240 624D     		ldr	r5, .L48+32
 1583 0242 C5F80080 		str	r8, [r5]
 285:Core/Src/main.c **** 
 1584              		.loc 1 285 5 is_stmt 1 view .LVU315
 285:Core/Src/main.c **** 
 1585              		.loc 1 285 19 is_stmt 0 view .LVU316
 1586 0246 43EA1010 		orr	r0, r3, r0, lsr #4
 1587              	.LVL130:
 285:Core/Src/main.c **** 
 1588              		.loc 1 285 19 view .LVU317
 1589 024a FFF7FEFF 		bl	bmp280_compensate_T_int32
 1590              	.LVL131:
 285:Core/Src/main.c **** 
 1591              		.loc 1 285 17 discriminator 1 view .LVU318
 1592 024e 2860     		str	r0, [r5]
 287:Core/Src/main.c ****     sprintf(temp_str, "Temperature: %.2f Celsius\n\n\r", ((float)actual_temp)/100);
 1593              		.loc 1 287 5 is_stmt 1 view .LVU319
 288:Core/Src/main.c ****     send_message(temp_str, PRIORITY_HIGH);
 1594              		.loc 1 288 5 view .LVU320
 288:Core/Src/main.c ****     send_message(temp_str, PRIORITY_HIGH);
 1595              		.loc 1 288 59 is_stmt 0 view .LVU321
 1596 0250 07EE900A 		vmov	s15, r0	@ int
 1597 0254 F8EEE77A 		vcvt.f32.s32	s15, s15
 288:Core/Src/main.c ****     send_message(temp_str, PRIORITY_HIGH);
 1598              		.loc 1 288 5 view .LVU322
 1599 0258 9FED5D7A 		vldr.32	s14, .L48+36
 1600 025c C7EE877A 		vdiv.f32	s15, s15, s14
 1601 0260 17EE900A 		vmov	r0, s15
 1602 0264 FFF7FEFF 		bl	__aeabi_f2d
 1603              	.LVL132:
 1604 0268 0246     		mov	r2, r0
 1605 026a 0B46     		mov	r3, r1
 1606 026c 25AD     		add	r5, sp, #148
 1607 026e 5949     		ldr	r1, .L48+40
 1608 0270 2846     		mov	r0, r5
 1609 0272 FFF7FEFF 		bl	sprintf
 1610              	.LVL133:
 289:Core/Src/main.c **** 
 1611              		.loc 1 289 5 is_stmt 1 view .LVU323
 1612 0276 0221     		movs	r1, #2
ARM GAS  /tmp/ccQ9BAu1.s 			page 56


 1613 0278 2846     		mov	r0, r5
 1614 027a FFF7FEFF 		bl	send_message
 1615              	.LVL134:
 291:Core/Src/main.c ****     send_reg_log(HAL_I2C_Mem_Read(&hi2c1, 0x76 << 1, 0xF7, I2C_MEMADD_SIZE_8BIT, pressure_raw, 1, 0
 1616              		.loc 1 291 5 view .LVU324
 292:Core/Src/main.c ****     send_reg_log(HAL_I2C_Mem_Read(&hi2c1, 0x76 << 1, 0xF8, I2C_MEMADD_SIZE_8BIT, pressure_raw+1, 1,
 1617              		.loc 1 292 5 view .LVU325
 1618 027e 0297     		str	r7, [sp, #8]
 1619 0280 0194     		str	r4, [sp, #4]
 1620 0282 05AD     		add	r5, sp, #20
 1621 0284 0095     		str	r5, [sp]
 1622 0286 2346     		mov	r3, r4
 1623 0288 F722     		movs	r2, #247
 1624 028a EC21     		movs	r1, #236
 1625 028c 3046     		mov	r0, r6
 1626 028e FFF7FEFF 		bl	HAL_I2C_Mem_Read
 1627              	.LVL135:
 292:Core/Src/main.c ****     send_reg_log(HAL_I2C_Mem_Read(&hi2c1, 0x76 << 1, 0xF8, I2C_MEMADD_SIZE_8BIT, pressure_raw+1, 1,
 1628              		.loc 1 292 5 is_stmt 0 discriminator 1 view .LVU326
 1629 0292 5149     		ldr	r1, .L48+44
 1630 0294 FFF7FEFF 		bl	send_reg_log
 1631              	.LVL136:
 293:Core/Src/main.c ****     send_reg_log(HAL_I2C_Mem_Read(&hi2c1, 0x76 << 1, 0xF9, I2C_MEMADD_SIZE_8BIT, pressure_raw+2, 1,
 1632              		.loc 1 293 5 is_stmt 1 view .LVU327
 1633 0298 0297     		str	r7, [sp, #8]
 1634 029a 0194     		str	r4, [sp, #4]
 1635 029c 0DF11503 		add	r3, sp, #21
 1636 02a0 0093     		str	r3, [sp]
 1637 02a2 2346     		mov	r3, r4
 1638 02a4 F822     		movs	r2, #248
 1639 02a6 EC21     		movs	r1, #236
 1640 02a8 3046     		mov	r0, r6
 1641 02aa FFF7FEFF 		bl	HAL_I2C_Mem_Read
 1642              	.LVL137:
 293:Core/Src/main.c ****     send_reg_log(HAL_I2C_Mem_Read(&hi2c1, 0x76 << 1, 0xF9, I2C_MEMADD_SIZE_8BIT, pressure_raw+2, 1,
 1643              		.loc 1 293 5 is_stmt 0 discriminator 1 view .LVU328
 1644 02ae 4B49     		ldr	r1, .L48+48
 1645 02b0 FFF7FEFF 		bl	send_reg_log
 1646              	.LVL138:
 294:Core/Src/main.c **** 
 1647              		.loc 1 294 5 is_stmt 1 view .LVU329
 1648 02b4 0297     		str	r7, [sp, #8]
 1649 02b6 0194     		str	r4, [sp, #4]
 1650 02b8 0DF11603 		add	r3, sp, #22
 1651 02bc 0093     		str	r3, [sp]
 1652 02be 2346     		mov	r3, r4
 1653 02c0 F922     		movs	r2, #249
 1654 02c2 EC21     		movs	r1, #236
 1655 02c4 3046     		mov	r0, r6
 1656 02c6 FFF7FEFF 		bl	HAL_I2C_Mem_Read
 1657              	.LVL139:
 294:Core/Src/main.c **** 
 1658              		.loc 1 294 5 is_stmt 0 discriminator 1 view .LVU330
 1659 02ca 4549     		ldr	r1, .L48+52
 1660 02cc FFF7FEFF 		bl	send_reg_log
 1661              	.LVL140:
 296:Core/Src/main.c ****     actual_pressure = bmp280_compensate_P_int64(pressure_raw_32);
ARM GAS  /tmp/ccQ9BAu1.s 			page 57


 1662              		.loc 1 296 5 is_stmt 1 view .LVU331
 296:Core/Src/main.c ****     actual_pressure = bmp280_compensate_P_int64(pressure_raw_32);
 1663              		.loc 1 296 66 is_stmt 0 view .LVU332
 1664 02d0 9DF81420 		ldrb	r2, [sp, #20]	@ zero_extendqisi2
 296:Core/Src/main.c ****     actual_pressure = bmp280_compensate_P_int64(pressure_raw_32);
 1665              		.loc 1 296 102 view .LVU333
 1666 02d4 9DF81530 		ldrb	r3, [sp, #21]	@ zero_extendqisi2
 296:Core/Src/main.c ****     actual_pressure = bmp280_compensate_P_int64(pressure_raw_32);
 1667              		.loc 1 296 106 view .LVU334
 1668 02d8 1B01     		lsls	r3, r3, #4
 296:Core/Src/main.c ****     actual_pressure = bmp280_compensate_P_int64(pressure_raw_32);
 1669              		.loc 1 296 77 view .LVU335
 1670 02da 43EA0233 		orr	r3, r3, r2, lsl #12
 296:Core/Src/main.c ****     actual_pressure = bmp280_compensate_P_int64(pressure_raw_32);
 1671              		.loc 1 296 137 view .LVU336
 1672 02de 9DF81600 		ldrb	r0, [sp, #22]	@ zero_extendqisi2
 1673              	.LVL141:
 297:Core/Src/main.c **** 
 1674              		.loc 1 297 5 is_stmt 1 view .LVU337
 297:Core/Src/main.c **** 
 1675              		.loc 1 297 23 is_stmt 0 view .LVU338
 1676 02e2 43EA1010 		orr	r0, r3, r0, lsr #4
 1677              	.LVL142:
 297:Core/Src/main.c **** 
 1678              		.loc 1 297 23 view .LVU339
 1679 02e6 FFF7FEFF 		bl	bmp280_compensate_P_int64
 1680              	.LVL143:
 297:Core/Src/main.c **** 
 1681              		.loc 1 297 21 discriminator 1 view .LVU340
 1682 02ea 3E4B     		ldr	r3, .L48+56
 1683 02ec 1860     		str	r0, [r3]
 299:Core/Src/main.c ****     sprintf(pressure_str, "Pressure: %.4f Pa\n\n\r",  ((float)actual_pressure)/256);
 1684              		.loc 1 299 5 is_stmt 1 view .LVU341
 300:Core/Src/main.c ****     send_message(pressure_str, PRIORITY_HIGH);
 1685              		.loc 1 300 5 view .LVU342
 300:Core/Src/main.c ****     send_message(pressure_str, PRIORITY_HIGH);
 1686              		.loc 1 300 56 is_stmt 0 view .LVU343
 1687 02ee 07EE900A 		vmov	s15, r0	@ int
 1688 02f2 F8EE677A 		vcvt.f32.u32	s15, s15
 300:Core/Src/main.c ****     send_message(pressure_str, PRIORITY_HIGH);
 1689              		.loc 1 300 5 view .LVU344
 1690 02f6 9FED3C7A 		vldr.32	s14, .L48+60
 1691 02fa 67EE877A 		vmul.f32	s15, s15, s14
 1692 02fe 17EE900A 		vmov	r0, s15
 1693 0302 FFF7FEFF 		bl	__aeabi_f2d
 1694              	.LVL144:
 1695 0306 0246     		mov	r2, r0
 1696 0308 0B46     		mov	r3, r1
 1697 030a 3EAC     		add	r4, sp, #248
 1698 030c 3749     		ldr	r1, .L48+64
 1699 030e 2046     		mov	r0, r4
 1700 0310 FFF7FEFF 		bl	sprintf
 1701              	.LVL145:
 301:Core/Src/main.c **** 
 1702              		.loc 1 301 5 is_stmt 1 view .LVU345
 1703 0314 0221     		movs	r1, #2
 1704 0316 2046     		mov	r0, r4
ARM GAS  /tmp/ccQ9BAu1.s 			page 58


 1705 0318 FFF7FEFF 		bl	send_message
 1706              	.LVL146:
 303:Core/Src/main.c ****     send_message(data1, PRIORITY_HIGH);
 1707              		.loc 1 303 5 view .LVU346
 303:Core/Src/main.c ****     send_message(data1, PRIORITY_HIGH);
 1708              		.loc 1 303 10 is_stmt 0 view .LVU347
 1709 031c 0DF5AE7C 		add	ip, sp, #348
 1710 0320 264E     		ldr	r6, .L48+16
 1711 0322 06F1B404 		add	r4, r6, #180
 1712 0326 6746     		mov	r7, ip
 1713 0328 E436     		adds	r6, r6, #228
 1714              	.L43:
 1715 032a 3D46     		mov	r5, r7
 1716 032c 2068     		ldr	r0, [r4]	@ unaligned
 1717 032e 6168     		ldr	r1, [r4, #4]	@ unaligned
 1718 0330 A268     		ldr	r2, [r4, #8]	@ unaligned
 1719 0332 E368     		ldr	r3, [r4, #12]	@ unaligned
 1720 0334 0FC5     		stmia	r5!, {r0, r1, r2, r3}
 1721 0336 1034     		adds	r4, r4, #16
 1722 0338 2F46     		mov	r7, r5
 1723 033a B442     		cmp	r4, r6
 1724 033c F5D1     		bne	.L43
 1725 033e 2068     		ldr	r0, [r4]	@ unaligned
 1726 0340 2860     		str	r0, [r5]
 1727 0342 2379     		ldrb	r3, [r4, #4]	@ zero_extendqisi2
 1728 0344 2B71     		strb	r3, [r5, #4]
 1729 0346 2F22     		movs	r2, #47
 1730 0348 0021     		movs	r1, #0
 1731 034a 0CF13500 		add	r0, ip, #53
 1732 034e FFF7FEFF 		bl	memset
 1733              	.LVL147:
 304:Core/Src/main.c **** 
 1734              		.loc 1 304 5 is_stmt 1 view .LVU348
 1735 0352 0221     		movs	r1, #2
 1736 0354 57A8     		add	r0, sp, #348
 1737 0356 FFF7FEFF 		bl	send_message
 1738              	.LVL148:
 306:Core/Src/main.c ****     Read_Acc(acc_vals);
 1739              		.loc 1 306 5 view .LVU349
 307:Core/Src/main.c **** 
 1740              		.loc 1 307 5 view .LVU350
 1741 035a 06AC     		add	r4, sp, #24
 1742 035c 2046     		mov	r0, r4
 1743 035e FFF7FEFF 		bl	Read_Acc
 1744              	.LVL149:
 309:Core/Src/main.c ****     sprintf(acc_str, "Acceleration: (%0.4f, %0.4f, %0.4f) \n\n\r", acc_vals[0], acc_vals[1], acc_va
 1745              		.loc 1 309 5 view .LVU351
 310:Core/Src/main.c ****     send_message(acc_str, PRIORITY_HIGH);
 1746              		.loc 1 310 5 view .LVU352
 1747 0362 70AD     		add	r5, sp, #448
 1748 0364 DDE90A23 		ldrd	r2, [sp, #40]
 1749 0368 CDE90223 		strd	r2, [sp, #8]
 1750 036c DDE90823 		ldrd	r2, [sp, #32]
 1751 0370 CDE90023 		strd	r2, [sp]
 1752 0374 DDE90623 		ldrd	r2, [sp, #24]
 1753 0378 1D49     		ldr	r1, .L48+68
 1754 037a 2846     		mov	r0, r5
ARM GAS  /tmp/ccQ9BAu1.s 			page 59


 1755 037c FFF7FEFF 		bl	sprintf
 1756              	.LVL150:
 311:Core/Src/main.c **** 
 1757              		.loc 1 311 5 view .LVU353
 1758 0380 0221     		movs	r1, #2
 1759 0382 2846     		mov	r0, r5
 1760 0384 FFF7FEFF 		bl	send_message
 1761              	.LVL151:
 1762              	.LBE13:
 269:Core/Src/main.c ****   {
 1763              		.loc 1 269 9 view .LVU354
 1764 0388 F1E6     		b	.L44
 1765              	.LVL152:
 1766              	.L40:
 1767              	.LBB14:
 255:Core/Src/main.c **** 		send_message(buffer, PRIORITY_HIGH);
 1768              		.loc 1 255 3 view .LVU355
 255:Core/Src/main.c **** 		send_message(buffer, PRIORITY_HIGH);
 1769              		.loc 1 255 8 is_stmt 0 view .LVU356
 1770 038a 70AE     		add	r6, sp, #448
 1771 038c 3446     		mov	r4, r6
 1772 038e 0B4D     		ldr	r5, .L48+16
 1773 0390 0FCD     		ldmia	r5!, {r0, r1, r2, r3}
 1774 0392 0FC4     		stmia	r4!, {r0, r1, r2, r3}
 1775 0394 2B68     		ldr	r3, [r5]
 1776 0396 2370     		strb	r3, [r4]
 1777 0398 0022     		movs	r2, #0
 1778 039a ADF8D121 		strh	r2, [sp, #465]	@ unaligned
 1779 039e 8DF8D321 		strb	r2, [sp, #467]
 256:Core/Src/main.c ****   }
 1780              		.loc 1 256 3 is_stmt 1 view .LVU357
 1781 03a2 0221     		movs	r1, #2
 1782 03a4 3046     		mov	r0, r6
 1783 03a6 FFF7FEFF 		bl	send_message
 1784              	.LVL153:
 1785 03aa CCE6     		b	.L41
 1786              	.L49:
 1787              		.align	2
 1788              	.L48:
 1789 03ac 2C000000 		.word	.LANCHOR0+44
 1790 03b0 60000000 		.word	.LANCHOR0+96
 1791 03b4 00000000 		.word	hi2c1
 1792 03b8 00000000 		.word	.LC25
 1793 03bc 00000000 		.word	.LANCHOR0
 1794 03c0 0C000000 		.word	.LC27
 1795 03c4 18000000 		.word	.LC28
 1796 03c8 24000000 		.word	.LC29
 1797 03cc 00000000 		.word	actual_temp
 1798 03d0 0000C842 		.word	1120403456
 1799 03d4 30000000 		.word	.LC30
 1800 03d8 50000000 		.word	.LC31
 1801 03dc 5C000000 		.word	.LC32
 1802 03e0 68000000 		.word	.LC33
 1803 03e4 00000000 		.word	actual_pressure
 1804 03e8 0000803B 		.word	998244352
 1805 03ec 74000000 		.word	.LC34
 1806 03f0 8C000000 		.word	.LC36
ARM GAS  /tmp/ccQ9BAu1.s 			page 60


 1807              	.LBE14:
 1808              		.cfi_endproc
 1809              	.LFE142:
 1811              		.global	t_fine
 1812              		.section	.bss.t_fine,"aw",%nobits
 1813              		.align	2
 1816              	t_fine:
 1817 0000 00000000 		.space	4
 1818              		.global	actual_pressure
 1819              		.section	.bss.actual_pressure,"aw",%nobits
 1820              		.align	2
 1823              	actual_pressure:
 1824 0000 00000000 		.space	4
 1825              		.global	actual_temp
 1826              		.section	.bss.actual_temp,"aw",%nobits
 1827              		.align	2
 1830              	actual_temp:
 1831 0000 00000000 		.space	4
 1832              		.global	dig_P9
 1833              		.section	.bss.dig_P9,"aw",%nobits
 1834              		.align	1
 1837              	dig_P9:
 1838 0000 0000     		.space	2
 1839              		.global	dig_P8
 1840              		.section	.bss.dig_P8,"aw",%nobits
 1841              		.align	1
 1844              	dig_P8:
 1845 0000 0000     		.space	2
 1846              		.global	dig_P7
 1847              		.section	.bss.dig_P7,"aw",%nobits
 1848              		.align	1
 1851              	dig_P7:
 1852 0000 0000     		.space	2
 1853              		.global	dig_P6
 1854              		.section	.bss.dig_P6,"aw",%nobits
 1855              		.align	1
 1858              	dig_P6:
 1859 0000 0000     		.space	2
 1860              		.global	dig_P5
 1861              		.section	.bss.dig_P5,"aw",%nobits
 1862              		.align	1
 1865              	dig_P5:
 1866 0000 0000     		.space	2
 1867              		.global	dig_P4
 1868              		.section	.bss.dig_P4,"aw",%nobits
 1869              		.align	1
 1872              	dig_P4:
 1873 0000 0000     		.space	2
 1874              		.global	dig_P3
 1875              		.section	.bss.dig_P3,"aw",%nobits
 1876              		.align	1
 1879              	dig_P3:
 1880 0000 0000     		.space	2
 1881              		.global	dig_P2
 1882              		.section	.bss.dig_P2,"aw",%nobits
 1883              		.align	1
 1886              	dig_P2:
ARM GAS  /tmp/ccQ9BAu1.s 			page 61


 1887 0000 0000     		.space	2
 1888              		.global	dig_P1
 1889              		.section	.bss.dig_P1,"aw",%nobits
 1890              		.align	1
 1893              	dig_P1:
 1894 0000 0000     		.space	2
 1895              		.global	dig_T3
 1896              		.section	.bss.dig_T3,"aw",%nobits
 1897              		.align	1
 1900              	dig_T3:
 1901 0000 0000     		.space	2
 1902              		.global	dig_T2
 1903              		.section	.bss.dig_T2,"aw",%nobits
 1904              		.align	1
 1907              	dig_T2:
 1908 0000 0000     		.space	2
 1909              		.global	dig_T1
 1910              		.section	.bss.dig_T1,"aw",%nobits
 1911              		.align	1
 1914              	dig_T1:
 1915 0000 0000     		.space	2
 1916              		.section	.rodata
 1917              		.align	2
 1918              		.set	.LANCHOR0,. + 0
 1919              	.LC1:
 1920 0000 424D5020 		.ascii	"BMP READ ERROR\012\015\000"
 1920      52454144 
 1920      20455252 
 1920      4F520A0D 
 1920      00
 1921 0011 000000   		.space	3
 1922              	.LC20:
 1923 0014 46343131 		.ascii	"F411 says: I'm alive\012\015\000\000"
 1923      20736179 
 1923      733A2049 
 1923      276D2061 
 1923      6C697665 
 1924              	.LC23:
 1925 002c 41434345 		.ascii	"ACCELEROMETER READ ERROR\012\015\000"
 1925      4C45524F 
 1925      4D455445 
 1925      52205245 
 1925      41442045 
 1926 0047 00000000 		.space	23
 1926      00000000 
 1926      00000000 
 1926      00000000 
 1926      00000000 
 1927 005e 0000     		.space	2
 1928              	.LC24:
 1929 0060 424D5020 		.ascii	"BMP READ SUCCESSFULLY\012\015\000"
 1929      52454144 
 1929      20535543 
 1929      43455353 
 1929      46554C4C 
 1930 0078 00000000 		.space	4
 1931              	.LC26:
ARM GAS  /tmp/ccQ9BAu1.s 			page 62


 1932 007c 2D2D2D2D 		.ascii	"------------------------BMP----------------------\012"
 1932      2D2D2D2D 
 1932      2D2D2D2D 
 1932      2D2D2D2D 
 1932      2D2D2D2D 
 1933 00ae 0D0000   		.ascii	"\015\000\000"
 1934 00b1 000000   		.space	3
 1935              	.LC35:
 1936 00b4 2D2D2D2D 		.ascii	"------------------------ACC----------------------\012"
 1936      2D2D2D2D 
 1936      2D2D2D2D 
 1936      2D2D2D2D 
 1936      2D2D2D2D 
 1937 00e6 0D0000   		.ascii	"\015\000\000"
 1938              		.text
 1939              	.Letext0:
 1940              		.file 3 "/usr/arm-none-eabi/include/machine/_default_types.h"
 1941              		.file 4 "/usr/arm-none-eabi/include/sys/_stdint.h"
 1942              		.file 5 "Drivers/CMSIS/Device/ST/STM32F4xx/Include/stm32f411xe.h"
 1943              		.file 6 "Drivers/STM32F4xx_HAL_Driver/Inc/stm32f4xx_hal_def.h"
 1944              		.file 7 "Drivers/STM32F4xx_HAL_Driver/Inc/stm32f4xx_hal_rcc_ex.h"
 1945              		.file 8 "Drivers/STM32F4xx_HAL_Driver/Inc/stm32f4xx_hal_rcc.h"
 1946              		.file 9 "Drivers/STM32F4xx_HAL_Driver/Inc/stm32f4xx_hal_dma.h"
 1947              		.file 10 "Drivers/STM32F4xx_HAL_Driver/Inc/stm32f4xx_hal_i2c.h"
 1948              		.file 11 "Drivers/STM32F4xx_HAL_Driver/Inc/stm32f4xx_hal_tim.h"
 1949              		.file 12 "Core/Inc/i2c.h"
 1950              		.file 13 "Core/Inc/tim.h"
 1951              		.file 14 "Core/Inc/modules/communication.h"
 1952              		.file 15 "/usr/arm-none-eabi/include/stdio.h"
 1953              		.file 16 "Drivers/STM32F4xx_HAL_Driver/Inc/stm32f4xx_hal.h"
 1954              		.file 17 "Core/Inc/modules/sensors/barometer.h"
 1955              		.file 18 "Core/Inc/modules/sensors/accelerometer.h"
 1956              		.file 19 "Core/Inc/usart.h"
 1957              		.file 20 "Core/Inc/gpio.h"
 1958              		.file 21 "<built-in>"
ARM GAS  /tmp/ccQ9BAu1.s 			page 63

