ARM GAS  /tmp/ccn2IIHu.s 			page 1


   1              		.cpu cortex-m4
   2              		.arch armv7e-m
   3              		.fpu fpv4-sp-d16
   4              		.eabi_attribute 27, 1
   5              		.eabi_attribute 28, 1
   6              		.eabi_attribute 20, 1
   7              		.eabi_attribute 21, 1
   8              		.eabi_attribute 23, 3
   9              		.eabi_attribute 24, 1
  10              		.eabi_attribute 25, 1
  11              		.eabi_attribute 26, 1
  12              		.eabi_attribute 30, 1
  13              		.eabi_attribute 34, 1
  14              		.eabi_attribute 18, 4
  15              		.file	"servo.c"
  16              		.text
  17              	.Ltext0:
  18              		.cfi_sections	.debug_frame
  19              		.file 1 "Core/Src/modules/sensors/servo.c"
  20              		.section	.text.set_pulse,"ax",%progbits
  21              		.align	1
  22              		.global	set_pulse
  23              		.syntax unified
  24              		.thumb
  25              		.thumb_func
  27              	set_pulse:
  28              	.LVL0:
  29              	.LFB137:
   1:Core/Src/modules/sensors/servo.c **** #include "servo.h"
   2:Core/Src/modules/sensors/servo.c **** #include <stm32f411xe.h>
   3:Core/Src/modules/sensors/servo.c **** 
   4:Core/Src/modules/sensors/servo.c **** static const uint16_t max_pulse = 25; //2.5 милисекунды
   5:Core/Src/modules/sensors/servo.c **** static const uint16_t min_pulse = 5; //0.5 милисекунды
   6:Core/Src/modules/sensors/servo.c **** static uint16_t curr_pulse = 19;
   7:Core/Src/modules/sensors/servo.c **** 
   8:Core/Src/modules/sensors/servo.c **** void set_pulse(uint16_t pulse);
   9:Core/Src/modules/sensors/servo.c **** 
  10:Core/Src/modules/sensors/servo.c **** short servo_turn_percentage(uint8_t percentage)
  11:Core/Src/modules/sensors/servo.c **** {
  12:Core/Src/modules/sensors/servo.c ****     uint16_t full_range = max_pulse - min_pulse;
  13:Core/Src/modules/sensors/servo.c ****     uint16_t new_val = full_range * ((double)percentage)/100;
  14:Core/Src/modules/sensors/servo.c ****     new_val += 5;
  15:Core/Src/modules/sensors/servo.c **** 
  16:Core/Src/modules/sensors/servo.c ****     set_pulse(new_val);
  17:Core/Src/modules/sensors/servo.c **** 
  18:Core/Src/modules/sensors/servo.c ****     return 0;
  19:Core/Src/modules/sensors/servo.c **** }
  20:Core/Src/modules/sensors/servo.c **** 
  21:Core/Src/modules/sensors/servo.c **** short servo_turn_max()
  22:Core/Src/modules/sensors/servo.c **** {
  23:Core/Src/modules/sensors/servo.c ****     set_pulse(max_pulse);
  24:Core/Src/modules/sensors/servo.c ****     return 0;
  25:Core/Src/modules/sensors/servo.c **** }
  26:Core/Src/modules/sensors/servo.c **** 
  27:Core/Src/modules/sensors/servo.c **** short servo_turn_min()
  28:Core/Src/modules/sensors/servo.c **** {
  29:Core/Src/modules/sensors/servo.c ****     set_pulse(min_pulse);
ARM GAS  /tmp/ccn2IIHu.s 			page 2


  30:Core/Src/modules/sensors/servo.c ****     return 0;
  31:Core/Src/modules/sensors/servo.c **** }
  32:Core/Src/modules/sensors/servo.c **** 
  33:Core/Src/modules/sensors/servo.c **** void set_pulse(uint16_t pulse)
  34:Core/Src/modules/sensors/servo.c **** {
  30              		.loc 1 34 1 view -0
  31              		.cfi_startproc
  32              		@ args = 0, pretend = 0, frame = 0
  33              		@ frame_needed = 0, uses_anonymous_args = 0
  34              		@ link register save eliminated.
  35:Core/Src/modules/sensors/servo.c ****     curr_pulse = pulse;
  35              		.loc 1 35 5 view .LVU1
  36              		.loc 1 35 16 is_stmt 0 view .LVU2
  37 0000 024B     		ldr	r3, .L2
  38 0002 1880     		strh	r0, [r3]	@ movhi
  36:Core/Src/modules/sensors/servo.c ****     TIM1->CCR1 = pulse;
  39              		.loc 1 36 5 is_stmt 1 view .LVU3
  40              		.loc 1 36 16 is_stmt 0 view .LVU4
  41 0004 024B     		ldr	r3, .L2+4
  42 0006 5863     		str	r0, [r3, #52]
  37:Core/Src/modules/sensors/servo.c ****     //__HAL_TIM_SET_COMPARE(&htim1, TIM_CHANNEL_1, 19);
  38:Core/Src/modules/sensors/servo.c **** }...
  43              		.loc 1 38 1 view .LVU5
  44 0008 7047     		bx	lr
  45              	.L3:
  46 000a 00BF     		.align	2
  47              	.L2:
  48 000c 00000000 		.word	curr_pulse
  49 0010 00000140 		.word	1073807360
  50              		.cfi_endproc
  51              	.LFE137:
  53              		.section	.text.servo_turn_percentage,"ax",%progbits
  54              		.align	1
  55              		.global	servo_turn_percentage
  56              		.syntax unified
  57              		.thumb
  58              		.thumb_func
  60              	servo_turn_percentage:
  61              	.LVL1:
  62              	.LFB134:
  11:Core/Src/modules/sensors/servo.c **** {
  63              		.loc 1 11 1 is_stmt 1 view -0
  64              		.cfi_startproc
  65              		@ args = 0, pretend = 0, frame = 0
  66              		@ frame_needed = 0, uses_anonymous_args = 0
  11:Core/Src/modules/sensors/servo.c **** {
  67              		.loc 1 11 1 is_stmt 0 view .LVU7
  68 0000 08B5     		push	{r3, lr}
  69              		.cfi_def_cfa_offset 8
  70              		.cfi_offset 3, -8
  71              		.cfi_offset 14, -4
  12:Core/Src/modules/sensors/servo.c ****     uint16_t full_range = max_pulse - min_pulse;
  72              		.loc 1 12 5 is_stmt 1 view .LVU8
  73              	.LVL2:
  13:Core/Src/modules/sensors/servo.c ****     uint16_t new_val = full_range * ((double)percentage)/100;
  74              		.loc 1 13 5 view .LVU9
  13:Core/Src/modules/sensors/servo.c ****     uint16_t new_val = full_range * ((double)percentage)/100;
ARM GAS  /tmp/ccn2IIHu.s 			page 3


  75              		.loc 1 13 38 is_stmt 0 view .LVU10
  76 0002 FFF7FEFF 		bl	__aeabi_ui2d
  77              	.LVL3:
  13:Core/Src/modules/sensors/servo.c ****     uint16_t new_val = full_range * ((double)percentage)/100;
  78              		.loc 1 13 35 view .LVU11
  79 0006 0022     		movs	r2, #0
  80 0008 074B     		ldr	r3, .L6
  81 000a FFF7FEFF 		bl	__aeabi_dmul
  82              	.LVL4:
  13:Core/Src/modules/sensors/servo.c ****     uint16_t new_val = full_range * ((double)percentage)/100;
  83              		.loc 1 13 57 view .LVU12
  84 000e 0022     		movs	r2, #0
  85 0010 064B     		ldr	r3, .L6+4
  86 0012 FFF7FEFF 		bl	__aeabi_ddiv
  87              	.LVL5:
  13:Core/Src/modules/sensors/servo.c ****     uint16_t new_val = full_range * ((double)percentage)/100;
  88              		.loc 1 13 14 view .LVU13
  89 0016 FFF7FEFF 		bl	__aeabi_d2uiz
  90              	.LVL6:
  91 001a 80B2     		uxth	r0, r0
  92              	.LVL7:
  14:Core/Src/modules/sensors/servo.c ****     new_val += 5;
  93              		.loc 1 14 5 is_stmt 1 view .LVU14
  14:Core/Src/modules/sensors/servo.c ****     new_val += 5;
  94              		.loc 1 14 13 is_stmt 0 view .LVU15
  95 001c 0530     		adds	r0, r0, #5
  96              	.LVL8:
  16:Core/Src/modules/sensors/servo.c ****     set_pulse(new_val);
  97              		.loc 1 16 5 is_stmt 1 view .LVU16
  98 001e 80B2     		uxth	r0, r0
  16:Core/Src/modules/sensors/servo.c ****     set_pulse(new_val);
  99              		.loc 1 16 5 is_stmt 0 view .LVU17
 100 0020 FFF7FEFF 		bl	set_pulse
 101              	.LVL9:
  18:Core/Src/modules/sensors/servo.c ****     return 0;
 102              		.loc 1 18 5 is_stmt 1 view .LVU18
  19:Core/Src/modules/sensors/servo.c **** }
 103              		.loc 1 19 1 is_stmt 0 view .LVU19
 104 0024 0020     		movs	r0, #0
 105 0026 08BD     		pop	{r3, pc}
 106              	.L7:
 107              		.align	2
 108              	.L6:
 109 0028 00003440 		.word	1077149696
 110 002c 00005940 		.word	1079574528
 111              		.cfi_endproc
 112              	.LFE134:
 114              		.section	.text.servo_turn_max,"ax",%progbits
 115              		.align	1
 116              		.global	servo_turn_max
 117              		.syntax unified
 118              		.thumb
 119              		.thumb_func
 121              	servo_turn_max:
 122              	.LFB135:
  22:Core/Src/modules/sensors/servo.c **** {
 123              		.loc 1 22 1 is_stmt 1 view -0
ARM GAS  /tmp/ccn2IIHu.s 			page 4


 124              		.cfi_startproc
 125              		@ args = 0, pretend = 0, frame = 0
 126              		@ frame_needed = 0, uses_anonymous_args = 0
 127 0000 08B5     		push	{r3, lr}
 128              		.cfi_def_cfa_offset 8
 129              		.cfi_offset 3, -8
 130              		.cfi_offset 14, -4
  23:Core/Src/modules/sensors/servo.c ****     set_pulse(max_pulse);
 131              		.loc 1 23 5 view .LVU21
 132 0002 1920     		movs	r0, #25
 133 0004 FFF7FEFF 		bl	set_pulse
 134              	.LVL10:
  24:Core/Src/modules/sensors/servo.c ****     return 0;
 135              		.loc 1 24 5 view .LVU22
  25:Core/Src/modules/sensors/servo.c **** }
 136              		.loc 1 25 1 is_stmt 0 view .LVU23
 137 0008 0020     		movs	r0, #0
 138 000a 08BD     		pop	{r3, pc}
 139              		.cfi_endproc
 140              	.LFE135:
 142              		.section	.text.servo_turn_min,"ax",%progbits
 143              		.align	1
 144              		.global	servo_turn_min
 145              		.syntax unified
 146              		.thumb
 147              		.thumb_func
 149              	servo_turn_min:
 150              	.LFB136:
  28:Core/Src/modules/sensors/servo.c **** {
 151              		.loc 1 28 1 is_stmt 1 view -0
 152              		.cfi_startproc
 153              		@ args = 0, pretend = 0, frame = 0
 154              		@ frame_needed = 0, uses_anonymous_args = 0
 155 0000 08B5     		push	{r3, lr}
 156              		.cfi_def_cfa_offset 8
 157              		.cfi_offset 3, -8
 158              		.cfi_offset 14, -4
  29:Core/Src/modules/sensors/servo.c ****     set_pulse(min_pulse);
 159              		.loc 1 29 5 view .LVU25
 160 0002 0520     		movs	r0, #5
 161 0004 FFF7FEFF 		bl	set_pulse
 162              	.LVL11:
  30:Core/Src/modules/sensors/servo.c ****     return 0;
 163              		.loc 1 30 5 view .LVU26
  31:Core/Src/modules/sensors/servo.c **** }
 164              		.loc 1 31 1 is_stmt 0 view .LVU27
 165 0008 0020     		movs	r0, #0
 166 000a 08BD     		pop	{r3, pc}
 167              		.cfi_endproc
 168              	.LFE136:
 170              		.section	.bss.curr_pulse,"aw",%nobits
 171              		.align	1
 174              	curr_pulse:
 175 0000 0000     		.space	2
 176              		.text
 177              	.Letext0:
 178              		.file 2 "/usr/arm-none-eabi/include/machine/_default_types.h"
ARM GAS  /tmp/ccn2IIHu.s 			page 5


 179              		.file 3 "/usr/arm-none-eabi/include/sys/_stdint.h"
 180              		.file 4 "Drivers/CMSIS/Device/ST/STM32F4xx/Include/stm32f411xe.h"
ARM GAS  /tmp/ccn2IIHu.s 			page 6

