
build/debug/Vela.elf:     file format elf32-littlearm

Sections:
Idx Name          Size      VMA       LMA       File off  Algn
  0 .isr_vector   00000198  08000000  08000000  00001000  2**0
                  CONTENTS, ALLOC, LOAD, READONLY, DATA
  1 .text         00006bb0  080001a0  080001a0  000011a0  2**4
                  CONTENTS, ALLOC, LOAD, READONLY, CODE
  2 .rodata       0000067c  08006d50  08006d50  00007d50  2**3
                  CONTENTS, ALLOC, LOAD, READONLY, DATA
  3 .ARM          00000008  080073cc  080073cc  000083cc  2**2
                  CONTENTS, ALLOC, LOAD, READONLY, DATA
  4 .init_array   00000004  080073d4  080073d4  000083d4  2**2
                  CONTENTS, ALLOC, LOAD, DATA
  5 .fini_array   00000004  080073d8  080073d8  000083d8  2**2
                  CONTENTS, ALLOC, LOAD, DATA
  6 .data         000001d4  20000000  080073dc  00009000  2**2
                  CONTENTS, ALLOC, LOAD, DATA
  7 .bss          00000270  200001d4  080075b0  000091d4  2**2
                  ALLOC
  8 ._user_heap_stack 00000604  20000444  080075b0  00009444  2**0
                  ALLOC
  9 .ARM.attributes 00000030  00000000  00000000  000091d4  2**0
                  CONTENTS, READONLY
 10 .debug_info   00031c05  00000000  00000000  00009204  2**0
                  CONTENTS, READONLY, DEBUGGING, OCTETS
 11 .debug_abbrev 00008a9f  00000000  00000000  0003ae09  2**0
                  CONTENTS, READONLY, DEBUGGING, OCTETS
 12 .debug_loclists 000132c1  00000000  00000000  000438a8  2**0
                  CONTENTS, READONLY, DEBUGGING, OCTETS
 13 .debug_aranges 00001978  00000000  00000000  00056b70  2**3
                  CONTENTS, READONLY, DEBUGGING, OCTETS
 14 .debug_rnglists 000013e5  00000000  00000000  000584e8  2**0
                  CONTENTS, READONLY, DEBUGGING, OCTETS
 15 .debug_line   0001cb82  00000000  00000000  000598cd  2**0
                  CONTENTS, READONLY, DEBUGGING, OCTETS
 16 .debug_str    00006f4b  00000000  00000000  0007644f  2**0
                  CONTENTS, READONLY, DEBUGGING, OCTETS
 17 .comment      0000003c  00000000  00000000  0007d39a  2**0
                  CONTENTS, READONLY
 18 .debug_frame  00003de4  00000000  00000000  0007d3d8  2**2
                  CONTENTS, READONLY, DEBUGGING, OCTETS
 19 .debug_line_str 00000189  00000000  00000000  000811bc  2**0
                  CONTENTS, READONLY, DEBUGGING, OCTETS

Disassembly of section .text:

080001a0 <memchr>:
 80001a0:	f001 01ff 	and.w	r1, r1, #255	@ 0xff
 80001a4:	2a10      	cmp	r2, #16
 80001a6:	db2b      	blt.n	8000200 <memchr+0x60>
 80001a8:	f010 0f07 	tst.w	r0, #7
 80001ac:	d008      	beq.n	80001c0 <memchr+0x20>
 80001ae:	f810 3b01 	ldrb.w	r3, [r0], #1
 80001b2:	3a01      	subs	r2, #1
 80001b4:	428b      	cmp	r3, r1
 80001b6:	d02d      	beq.n	8000214 <memchr+0x74>
 80001b8:	f010 0f07 	tst.w	r0, #7
 80001bc:	b342      	cbz	r2, 8000210 <memchr+0x70>
 80001be:	d1f6      	bne.n	80001ae <memchr+0xe>
 80001c0:	b4f0      	push	{r4, r5, r6, r7}
 80001c2:	ea41 2101 	orr.w	r1, r1, r1, lsl #8
 80001c6:	ea41 4101 	orr.w	r1, r1, r1, lsl #16
 80001ca:	f022 0407 	bic.w	r4, r2, #7
 80001ce:	f07f 0700 	mvns.w	r7, #0
 80001d2:	2300      	movs	r3, #0
 80001d4:	e8f0 5602 	ldrd	r5, r6, [r0], #8
 80001d8:	3c08      	subs	r4, #8
 80001da:	ea85 0501 	eor.w	r5, r5, r1
 80001de:	ea86 0601 	eor.w	r6, r6, r1
 80001e2:	fa85 f547 	uadd8	r5, r5, r7
 80001e6:	faa3 f587 	sel	r5, r3, r7
 80001ea:	fa86 f647 	uadd8	r6, r6, r7
 80001ee:	faa5 f687 	sel	r6, r5, r7
 80001f2:	b98e      	cbnz	r6, 8000218 <memchr+0x78>
 80001f4:	d1ee      	bne.n	80001d4 <memchr+0x34>
 80001f6:	bcf0      	pop	{r4, r5, r6, r7}
 80001f8:	f001 01ff 	and.w	r1, r1, #255	@ 0xff
 80001fc:	f002 0207 	and.w	r2, r2, #7
 8000200:	b132      	cbz	r2, 8000210 <memchr+0x70>
 8000202:	f810 3b01 	ldrb.w	r3, [r0], #1
 8000206:	3a01      	subs	r2, #1
 8000208:	ea83 0301 	eor.w	r3, r3, r1
 800020c:	b113      	cbz	r3, 8000214 <memchr+0x74>
 800020e:	d1f8      	bne.n	8000202 <memchr+0x62>
 8000210:	2000      	movs	r0, #0
 8000212:	4770      	bx	lr
 8000214:	3801      	subs	r0, #1
 8000216:	4770      	bx	lr
 8000218:	2d00      	cmp	r5, #0
 800021a:	bf06      	itte	eq
 800021c:	4635      	moveq	r5, r6
 800021e:	3803      	subeq	r0, #3
 8000220:	3807      	subne	r0, #7
 8000222:	f015 0f01 	tst.w	r5, #1
 8000226:	d107      	bne.n	8000238 <memchr+0x98>
 8000228:	3001      	adds	r0, #1
 800022a:	f415 7f80 	tst.w	r5, #256	@ 0x100
 800022e:	bf02      	ittt	eq
 8000230:	3001      	addeq	r0, #1
 8000232:	f415 3fc0 	tsteq.w	r5, #98304	@ 0x18000
 8000236:	3001      	addeq	r0, #1
 8000238:	bcf0      	pop	{r4, r5, r6, r7}
 800023a:	3801      	subs	r0, #1
 800023c:	4770      	bx	lr
 800023e:	bf00      	nop

08000240 <strlen>:
 8000240:	4603      	mov	r3, r0
 8000242:	f813 2b01 	ldrb.w	r2, [r3], #1
 8000246:	2a00      	cmp	r2, #0
 8000248:	d1fb      	bne.n	8000242 <strlen+0x2>
 800024a:	1a18      	subs	r0, r3, r0
 800024c:	3801      	subs	r0, #1
 800024e:	4770      	bx	lr

08000250 <__aeabi_drsub>:
 8000250:	f081 4100 	eor.w	r1, r1, #2147483648	@ 0x80000000
 8000254:	e002      	b.n	800025c <__adddf3>
 8000256:	bf00      	nop

08000258 <__aeabi_dsub>:
 8000258:	f083 4300 	eor.w	r3, r3, #2147483648	@ 0x80000000

0800025c <__adddf3>:
 800025c:	b530      	push	{r4, r5, lr}
 800025e:	ea4f 0441 	mov.w	r4, r1, lsl #1
 8000262:	ea4f 0543 	mov.w	r5, r3, lsl #1
 8000266:	ea94 0f05 	teq	r4, r5
 800026a:	bf08      	it	eq
 800026c:	ea90 0f02 	teqeq	r0, r2
 8000270:	bf1f      	itttt	ne
 8000272:	ea54 0c00 	orrsne.w	ip, r4, r0
 8000276:	ea55 0c02 	orrsne.w	ip, r5, r2
 800027a:	ea7f 5c64 	mvnsne.w	ip, r4, asr #21
 800027e:	ea7f 5c65 	mvnsne.w	ip, r5, asr #21
 8000282:	f000 80e2 	beq.w	800044a <__adddf3+0x1ee>
 8000286:	ea4f 5454 	mov.w	r4, r4, lsr #21
 800028a:	ebd4 5555 	rsbs	r5, r4, r5, lsr #21
 800028e:	bfb8      	it	lt
 8000290:	426d      	neglt	r5, r5
 8000292:	dd0c      	ble.n	80002ae <__adddf3+0x52>
 8000294:	442c      	add	r4, r5
 8000296:	ea80 0202 	eor.w	r2, r0, r2
 800029a:	ea81 0303 	eor.w	r3, r1, r3
 800029e:	ea82 0000 	eor.w	r0, r2, r0
 80002a2:	ea83 0101 	eor.w	r1, r3, r1
 80002a6:	ea80 0202 	eor.w	r2, r0, r2
 80002aa:	ea81 0303 	eor.w	r3, r1, r3
 80002ae:	2d36      	cmp	r5, #54	@ 0x36
 80002b0:	bf88      	it	hi
 80002b2:	bd30      	pophi	{r4, r5, pc}
 80002b4:	f011 4f00 	tst.w	r1, #2147483648	@ 0x80000000
 80002b8:	ea4f 3101 	mov.w	r1, r1, lsl #12
 80002bc:	f44f 1c80 	mov.w	ip, #1048576	@ 0x100000
 80002c0:	ea4c 3111 	orr.w	r1, ip, r1, lsr #12
 80002c4:	d002      	beq.n	80002cc <__adddf3+0x70>
 80002c6:	4240      	negs	r0, r0
 80002c8:	eb61 0141 	sbc.w	r1, r1, r1, lsl #1
 80002cc:	f013 4f00 	tst.w	r3, #2147483648	@ 0x80000000
 80002d0:	ea4f 3303 	mov.w	r3, r3, lsl #12
 80002d4:	ea4c 3313 	orr.w	r3, ip, r3, lsr #12
 80002d8:	d002      	beq.n	80002e0 <__adddf3+0x84>
 80002da:	4252      	negs	r2, r2
 80002dc:	eb63 0343 	sbc.w	r3, r3, r3, lsl #1
 80002e0:	ea94 0f05 	teq	r4, r5
 80002e4:	f000 80a7 	beq.w	8000436 <__adddf3+0x1da>
 80002e8:	f1a4 0401 	sub.w	r4, r4, #1
 80002ec:	f1d5 0e20 	rsbs	lr, r5, #32
 80002f0:	db0d      	blt.n	800030e <__adddf3+0xb2>
 80002f2:	fa02 fc0e 	lsl.w	ip, r2, lr
 80002f6:	fa22 f205 	lsr.w	r2, r2, r5
 80002fa:	1880      	adds	r0, r0, r2
 80002fc:	f141 0100 	adc.w	r1, r1, #0
 8000300:	fa03 f20e 	lsl.w	r2, r3, lr
 8000304:	1880      	adds	r0, r0, r2
 8000306:	fa43 f305 	asr.w	r3, r3, r5
 800030a:	4159      	adcs	r1, r3
 800030c:	e00e      	b.n	800032c <__adddf3+0xd0>
 800030e:	f1a5 0520 	sub.w	r5, r5, #32
 8000312:	f10e 0e20 	add.w	lr, lr, #32
 8000316:	2a01      	cmp	r2, #1
 8000318:	fa03 fc0e 	lsl.w	ip, r3, lr
 800031c:	bf28      	it	cs
 800031e:	f04c 0c02 	orrcs.w	ip, ip, #2
 8000322:	fa43 f305 	asr.w	r3, r3, r5
 8000326:	18c0      	adds	r0, r0, r3
 8000328:	eb51 71e3 	adcs.w	r1, r1, r3, asr #31
 800032c:	f001 4500 	and.w	r5, r1, #2147483648	@ 0x80000000
 8000330:	d507      	bpl.n	8000342 <__adddf3+0xe6>
 8000332:	f04f 0e00 	mov.w	lr, #0
 8000336:	f1dc 0c00 	rsbs	ip, ip, #0
 800033a:	eb7e 0000 	sbcs.w	r0, lr, r0
 800033e:	eb6e 0101 	sbc.w	r1, lr, r1
 8000342:	f5b1 1f80 	cmp.w	r1, #1048576	@ 0x100000
 8000346:	d31b      	bcc.n	8000380 <__adddf3+0x124>
 8000348:	f5b1 1f00 	cmp.w	r1, #2097152	@ 0x200000
 800034c:	d30c      	bcc.n	8000368 <__adddf3+0x10c>
 800034e:	0849      	lsrs	r1, r1, #1
 8000350:	ea5f 0030 	movs.w	r0, r0, rrx
 8000354:	ea4f 0c3c 	mov.w	ip, ip, rrx
 8000358:	f104 0401 	add.w	r4, r4, #1
 800035c:	ea4f 5244 	mov.w	r2, r4, lsl #21
 8000360:	f512 0f80 	cmn.w	r2, #4194304	@ 0x400000
 8000364:	f080 809a 	bcs.w	800049c <__adddf3+0x240>
 8000368:	f1bc 4f00 	cmp.w	ip, #2147483648	@ 0x80000000
 800036c:	bf08      	it	eq
 800036e:	ea5f 0c50 	movseq.w	ip, r0, lsr #1
 8000372:	f150 0000 	adcs.w	r0, r0, #0
 8000376:	eb41 5104 	adc.w	r1, r1, r4, lsl #20
 800037a:	ea41 0105 	orr.w	r1, r1, r5
 800037e:	bd30      	pop	{r4, r5, pc}
 8000380:	ea5f 0c4c 	movs.w	ip, ip, lsl #1
 8000384:	4140      	adcs	r0, r0
 8000386:	eb41 0101 	adc.w	r1, r1, r1
 800038a:	3c01      	subs	r4, #1
 800038c:	bf28      	it	cs
 800038e:	f5b1 1f80 	cmpcs.w	r1, #1048576	@ 0x100000
 8000392:	d2e9      	bcs.n	8000368 <__adddf3+0x10c>
 8000394:	f091 0f00 	teq	r1, #0
 8000398:	bf04      	itt	eq
 800039a:	4601      	moveq	r1, r0
 800039c:	2000      	moveq	r0, #0
 800039e:	fab1 f381 	clz	r3, r1
 80003a2:	bf08      	it	eq
 80003a4:	3320      	addeq	r3, #32
 80003a6:	f1a3 030b 	sub.w	r3, r3, #11
 80003aa:	f1b3 0220 	subs.w	r2, r3, #32
 80003ae:	da0c      	bge.n	80003ca <__adddf3+0x16e>
 80003b0:	320c      	adds	r2, #12
 80003b2:	dd08      	ble.n	80003c6 <__adddf3+0x16a>
 80003b4:	f102 0c14 	add.w	ip, r2, #20
 80003b8:	f1c2 020c 	rsb	r2, r2, #12
 80003bc:	fa01 f00c 	lsl.w	r0, r1, ip
 80003c0:	fa21 f102 	lsr.w	r1, r1, r2
 80003c4:	e00c      	b.n	80003e0 <__adddf3+0x184>
 80003c6:	f102 0214 	add.w	r2, r2, #20
 80003ca:	bfd8      	it	le
 80003cc:	f1c2 0c20 	rsble	ip, r2, #32
 80003d0:	fa01 f102 	lsl.w	r1, r1, r2
 80003d4:	fa20 fc0c 	lsr.w	ip, r0, ip
 80003d8:	bfdc      	itt	le
 80003da:	ea41 010c 	orrle.w	r1, r1, ip
 80003de:	4090      	lslle	r0, r2
 80003e0:	1ae4      	subs	r4, r4, r3
 80003e2:	bfa2      	ittt	ge
 80003e4:	eb01 5104 	addge.w	r1, r1, r4, lsl #20
 80003e8:	4329      	orrge	r1, r5
 80003ea:	bd30      	popge	{r4, r5, pc}
 80003ec:	ea6f 0404 	mvn.w	r4, r4
 80003f0:	3c1f      	subs	r4, #31
 80003f2:	da1c      	bge.n	800042e <__adddf3+0x1d2>
 80003f4:	340c      	adds	r4, #12
 80003f6:	dc0e      	bgt.n	8000416 <__adddf3+0x1ba>
 80003f8:	f104 0414 	add.w	r4, r4, #20
 80003fc:	f1c4 0220 	rsb	r2, r4, #32
 8000400:	fa20 f004 	lsr.w	r0, r0, r4
 8000404:	fa01 f302 	lsl.w	r3, r1, r2
 8000408:	ea40 0003 	orr.w	r0, r0, r3
 800040c:	fa21 f304 	lsr.w	r3, r1, r4
 8000410:	ea45 0103 	orr.w	r1, r5, r3
 8000414:	bd30      	pop	{r4, r5, pc}
 8000416:	f1c4 040c 	rsb	r4, r4, #12
 800041a:	f1c4 0220 	rsb	r2, r4, #32
 800041e:	fa20 f002 	lsr.w	r0, r0, r2
 8000422:	fa01 f304 	lsl.w	r3, r1, r4
 8000426:	ea40 0003 	orr.w	r0, r0, r3
 800042a:	4629      	mov	r1, r5
 800042c:	bd30      	pop	{r4, r5, pc}
 800042e:	fa21 f004 	lsr.w	r0, r1, r4
 8000432:	4629      	mov	r1, r5
 8000434:	bd30      	pop	{r4, r5, pc}
 8000436:	f094 0f00 	teq	r4, #0
 800043a:	f483 1380 	eor.w	r3, r3, #1048576	@ 0x100000
 800043e:	bf06      	itte	eq
 8000440:	f481 1180 	eoreq.w	r1, r1, #1048576	@ 0x100000
 8000444:	3401      	addeq	r4, #1
 8000446:	3d01      	subne	r5, #1
 8000448:	e74e      	b.n	80002e8 <__adddf3+0x8c>
 800044a:	ea7f 5c64 	mvns.w	ip, r4, asr #21
 800044e:	bf18      	it	ne
 8000450:	ea7f 5c65 	mvnsne.w	ip, r5, asr #21
 8000454:	d029      	beq.n	80004aa <__adddf3+0x24e>
 8000456:	ea94 0f05 	teq	r4, r5
 800045a:	bf08      	it	eq
 800045c:	ea90 0f02 	teqeq	r0, r2
 8000460:	d005      	beq.n	800046e <__adddf3+0x212>
 8000462:	ea54 0c00 	orrs.w	ip, r4, r0
 8000466:	bf04      	itt	eq
 8000468:	4619      	moveq	r1, r3
 800046a:	4610      	moveq	r0, r2
 800046c:	bd30      	pop	{r4, r5, pc}
 800046e:	ea91 0f03 	teq	r1, r3
 8000472:	bf1e      	ittt	ne
 8000474:	2100      	movne	r1, #0
 8000476:	2000      	movne	r0, #0
 8000478:	bd30      	popne	{r4, r5, pc}
 800047a:	ea5f 5c54 	movs.w	ip, r4, lsr #21
 800047e:	d105      	bne.n	800048c <__adddf3+0x230>
 8000480:	0040      	lsls	r0, r0, #1
 8000482:	4149      	adcs	r1, r1
 8000484:	bf28      	it	cs
 8000486:	f041 4100 	orrcs.w	r1, r1, #2147483648	@ 0x80000000
 800048a:	bd30      	pop	{r4, r5, pc}
 800048c:	f514 0480 	adds.w	r4, r4, #4194304	@ 0x400000
 8000490:	bf3c      	itt	cc
 8000492:	f501 1180 	addcc.w	r1, r1, #1048576	@ 0x100000
 8000496:	bd30      	popcc	{r4, r5, pc}
 8000498:	f001 4500 	and.w	r5, r1, #2147483648	@ 0x80000000
 800049c:	f045 41fe 	orr.w	r1, r5, #2130706432	@ 0x7f000000
 80004a0:	f441 0170 	orr.w	r1, r1, #15728640	@ 0xf00000
 80004a4:	f04f 0000 	mov.w	r0, #0
 80004a8:	bd30      	pop	{r4, r5, pc}
 80004aa:	ea7f 5c64 	mvns.w	ip, r4, asr #21
 80004ae:	bf1a      	itte	ne
 80004b0:	4619      	movne	r1, r3
 80004b2:	4610      	movne	r0, r2
 80004b4:	ea7f 5c65 	mvnseq.w	ip, r5, asr #21
 80004b8:	bf1c      	itt	ne
 80004ba:	460b      	movne	r3, r1
 80004bc:	4602      	movne	r2, r0
 80004be:	ea50 3401 	orrs.w	r4, r0, r1, lsl #12
 80004c2:	bf06      	itte	eq
 80004c4:	ea52 3503 	orrseq.w	r5, r2, r3, lsl #12
 80004c8:	ea91 0f03 	teqeq	r1, r3
 80004cc:	f441 2100 	orrne.w	r1, r1, #524288	@ 0x80000
 80004d0:	bd30      	pop	{r4, r5, pc}
 80004d2:	bf00      	nop

080004d4 <__aeabi_ui2d>:
 80004d4:	f090 0f00 	teq	r0, #0
 80004d8:	bf04      	itt	eq
 80004da:	2100      	moveq	r1, #0
 80004dc:	4770      	bxeq	lr
 80004de:	b530      	push	{r4, r5, lr}
 80004e0:	f44f 6480 	mov.w	r4, #1024	@ 0x400
 80004e4:	f104 0432 	add.w	r4, r4, #50	@ 0x32
 80004e8:	f04f 0500 	mov.w	r5, #0
 80004ec:	f04f 0100 	mov.w	r1, #0
 80004f0:	e750      	b.n	8000394 <__adddf3+0x138>
 80004f2:	bf00      	nop

080004f4 <__aeabi_i2d>:
 80004f4:	f090 0f00 	teq	r0, #0
 80004f8:	bf04      	itt	eq
 80004fa:	2100      	moveq	r1, #0
 80004fc:	4770      	bxeq	lr
 80004fe:	b530      	push	{r4, r5, lr}
 8000500:	f44f 6480 	mov.w	r4, #1024	@ 0x400
 8000504:	f104 0432 	add.w	r4, r4, #50	@ 0x32
 8000508:	f010 4500 	ands.w	r5, r0, #2147483648	@ 0x80000000
 800050c:	bf48      	it	mi
 800050e:	4240      	negmi	r0, r0
 8000510:	f04f 0100 	mov.w	r1, #0
 8000514:	e73e      	b.n	8000394 <__adddf3+0x138>
 8000516:	bf00      	nop

08000518 <__aeabi_f2d>:
 8000518:	0042      	lsls	r2, r0, #1
 800051a:	ea4f 01e2 	mov.w	r1, r2, asr #3
 800051e:	ea4f 0131 	mov.w	r1, r1, rrx
 8000522:	ea4f 7002 	mov.w	r0, r2, lsl #28
 8000526:	bf1f      	itttt	ne
 8000528:	f012 437f 	andsne.w	r3, r2, #4278190080	@ 0xff000000
 800052c:	f093 4f7f 	teqne	r3, #4278190080	@ 0xff000000
 8000530:	f081 5160 	eorne.w	r1, r1, #939524096	@ 0x38000000
 8000534:	4770      	bxne	lr
 8000536:	f032 427f 	bics.w	r2, r2, #4278190080	@ 0xff000000
 800053a:	bf08      	it	eq
 800053c:	4770      	bxeq	lr
 800053e:	f093 4f7f 	teq	r3, #4278190080	@ 0xff000000
 8000542:	bf04      	itt	eq
 8000544:	f441 2100 	orreq.w	r1, r1, #524288	@ 0x80000
 8000548:	4770      	bxeq	lr
 800054a:	b530      	push	{r4, r5, lr}
 800054c:	f44f 7460 	mov.w	r4, #896	@ 0x380
 8000550:	f001 4500 	and.w	r5, r1, #2147483648	@ 0x80000000
 8000554:	f021 4100 	bic.w	r1, r1, #2147483648	@ 0x80000000
 8000558:	e71c      	b.n	8000394 <__adddf3+0x138>
 800055a:	bf00      	nop

0800055c <__aeabi_ul2d>:
 800055c:	ea50 0201 	orrs.w	r2, r0, r1
 8000560:	bf08      	it	eq
 8000562:	4770      	bxeq	lr
 8000564:	b530      	push	{r4, r5, lr}
 8000566:	f04f 0500 	mov.w	r5, #0
 800056a:	e00a      	b.n	8000582 <__aeabi_l2d+0x16>

0800056c <__aeabi_l2d>:
 800056c:	ea50 0201 	orrs.w	r2, r0, r1
 8000570:	bf08      	it	eq
 8000572:	4770      	bxeq	lr
 8000574:	b530      	push	{r4, r5, lr}
 8000576:	f011 4500 	ands.w	r5, r1, #2147483648	@ 0x80000000
 800057a:	d502      	bpl.n	8000582 <__aeabi_l2d+0x16>
 800057c:	4240      	negs	r0, r0
 800057e:	eb61 0141 	sbc.w	r1, r1, r1, lsl #1
 8000582:	f44f 6480 	mov.w	r4, #1024	@ 0x400
 8000586:	f104 0432 	add.w	r4, r4, #50	@ 0x32
 800058a:	ea5f 5c91 	movs.w	ip, r1, lsr #22
 800058e:	f43f aed8 	beq.w	8000342 <__adddf3+0xe6>
 8000592:	f04f 0203 	mov.w	r2, #3
 8000596:	ea5f 0cdc 	movs.w	ip, ip, lsr #3
 800059a:	bf18      	it	ne
 800059c:	3203      	addne	r2, #3
 800059e:	ea5f 0cdc 	movs.w	ip, ip, lsr #3
 80005a2:	bf18      	it	ne
 80005a4:	3203      	addne	r2, #3
 80005a6:	eb02 02dc 	add.w	r2, r2, ip, lsr #3
 80005aa:	f1c2 0320 	rsb	r3, r2, #32
 80005ae:	fa00 fc03 	lsl.w	ip, r0, r3
 80005b2:	fa20 f002 	lsr.w	r0, r0, r2
 80005b6:	fa01 fe03 	lsl.w	lr, r1, r3
 80005ba:	ea40 000e 	orr.w	r0, r0, lr
 80005be:	fa21 f102 	lsr.w	r1, r1, r2
 80005c2:	4414      	add	r4, r2
 80005c4:	e6bd      	b.n	8000342 <__adddf3+0xe6>
 80005c6:	bf00      	nop

080005c8 <__aeabi_dmul>:
 80005c8:	b570      	push	{r4, r5, r6, lr}
 80005ca:	f04f 0cff 	mov.w	ip, #255	@ 0xff
 80005ce:	f44c 6ce0 	orr.w	ip, ip, #1792	@ 0x700
 80005d2:	ea1c 5411 	ands.w	r4, ip, r1, lsr #20
 80005d6:	bf1d      	ittte	ne
 80005d8:	ea1c 5513 	andsne.w	r5, ip, r3, lsr #20
 80005dc:	ea94 0f0c 	teqne	r4, ip
 80005e0:	ea95 0f0c 	teqne	r5, ip
 80005e4:	f000 f8de 	bleq	80007a4 <__aeabi_dmul+0x1dc>
 80005e8:	442c      	add	r4, r5
 80005ea:	ea81 0603 	eor.w	r6, r1, r3
 80005ee:	ea21 514c 	bic.w	r1, r1, ip, lsl #21
 80005f2:	ea23 534c 	bic.w	r3, r3, ip, lsl #21
 80005f6:	ea50 3501 	orrs.w	r5, r0, r1, lsl #12
 80005fa:	bf18      	it	ne
 80005fc:	ea52 3503 	orrsne.w	r5, r2, r3, lsl #12
 8000600:	f441 1180 	orr.w	r1, r1, #1048576	@ 0x100000
 8000604:	f443 1380 	orr.w	r3, r3, #1048576	@ 0x100000
 8000608:	d038      	beq.n	800067c <__aeabi_dmul+0xb4>
 800060a:	fba0 ce02 	umull	ip, lr, r0, r2
 800060e:	f04f 0500 	mov.w	r5, #0
 8000612:	fbe1 e502 	umlal	lr, r5, r1, r2
 8000616:	f006 4200 	and.w	r2, r6, #2147483648	@ 0x80000000
 800061a:	fbe0 e503 	umlal	lr, r5, r0, r3
 800061e:	f04f 0600 	mov.w	r6, #0
 8000622:	fbe1 5603 	umlal	r5, r6, r1, r3
 8000626:	f09c 0f00 	teq	ip, #0
 800062a:	bf18      	it	ne
 800062c:	f04e 0e01 	orrne.w	lr, lr, #1
 8000630:	f1a4 04ff 	sub.w	r4, r4, #255	@ 0xff
 8000634:	f5b6 7f00 	cmp.w	r6, #512	@ 0x200
 8000638:	f564 7440 	sbc.w	r4, r4, #768	@ 0x300
 800063c:	d204      	bcs.n	8000648 <__aeabi_dmul+0x80>
 800063e:	ea5f 0e4e 	movs.w	lr, lr, lsl #1
 8000642:	416d      	adcs	r5, r5
 8000644:	eb46 0606 	adc.w	r6, r6, r6
 8000648:	ea42 21c6 	orr.w	r1, r2, r6, lsl #11
 800064c:	ea41 5155 	orr.w	r1, r1, r5, lsr #21
 8000650:	ea4f 20c5 	mov.w	r0, r5, lsl #11
 8000654:	ea40 505e 	orr.w	r0, r0, lr, lsr #21
 8000658:	ea4f 2ece 	mov.w	lr, lr, lsl #11
 800065c:	f1b4 0cfd 	subs.w	ip, r4, #253	@ 0xfd
 8000660:	bf88      	it	hi
 8000662:	f5bc 6fe0 	cmphi.w	ip, #1792	@ 0x700
 8000666:	d81e      	bhi.n	80006a6 <__aeabi_dmul+0xde>
 8000668:	f1be 4f00 	cmp.w	lr, #2147483648	@ 0x80000000
 800066c:	bf08      	it	eq
 800066e:	ea5f 0e50 	movseq.w	lr, r0, lsr #1
 8000672:	f150 0000 	adcs.w	r0, r0, #0
 8000676:	eb41 5104 	adc.w	r1, r1, r4, lsl #20
 800067a:	bd70      	pop	{r4, r5, r6, pc}
 800067c:	f006 4600 	and.w	r6, r6, #2147483648	@ 0x80000000
 8000680:	ea46 0101 	orr.w	r1, r6, r1
 8000684:	ea40 0002 	orr.w	r0, r0, r2
 8000688:	ea81 0103 	eor.w	r1, r1, r3
 800068c:	ebb4 045c 	subs.w	r4, r4, ip, lsr #1
 8000690:	bfc2      	ittt	gt
 8000692:	ebd4 050c 	rsbsgt	r5, r4, ip
 8000696:	ea41 5104 	orrgt.w	r1, r1, r4, lsl #20
 800069a:	bd70      	popgt	{r4, r5, r6, pc}
 800069c:	f441 1180 	orr.w	r1, r1, #1048576	@ 0x100000
 80006a0:	f04f 0e00 	mov.w	lr, #0
 80006a4:	3c01      	subs	r4, #1
 80006a6:	f300 80ab 	bgt.w	8000800 <__aeabi_dmul+0x238>
 80006aa:	f114 0f36 	cmn.w	r4, #54	@ 0x36
 80006ae:	bfde      	ittt	le
 80006b0:	2000      	movle	r0, #0
 80006b2:	f001 4100 	andle.w	r1, r1, #2147483648	@ 0x80000000
 80006b6:	bd70      	pople	{r4, r5, r6, pc}
 80006b8:	f1c4 0400 	rsb	r4, r4, #0
 80006bc:	3c20      	subs	r4, #32
 80006be:	da35      	bge.n	800072c <__aeabi_dmul+0x164>
 80006c0:	340c      	adds	r4, #12
 80006c2:	dc1b      	bgt.n	80006fc <__aeabi_dmul+0x134>
 80006c4:	f104 0414 	add.w	r4, r4, #20
 80006c8:	f1c4 0520 	rsb	r5, r4, #32
 80006cc:	fa00 f305 	lsl.w	r3, r0, r5
 80006d0:	fa20 f004 	lsr.w	r0, r0, r4
 80006d4:	fa01 f205 	lsl.w	r2, r1, r5
 80006d8:	ea40 0002 	orr.w	r0, r0, r2
 80006dc:	f001 4200 	and.w	r2, r1, #2147483648	@ 0x80000000
 80006e0:	f021 4100 	bic.w	r1, r1, #2147483648	@ 0x80000000
 80006e4:	eb10 70d3 	adds.w	r0, r0, r3, lsr #31
 80006e8:	fa21 f604 	lsr.w	r6, r1, r4
 80006ec:	eb42 0106 	adc.w	r1, r2, r6
 80006f0:	ea5e 0e43 	orrs.w	lr, lr, r3, lsl #1
 80006f4:	bf08      	it	eq
 80006f6:	ea20 70d3 	biceq.w	r0, r0, r3, lsr #31
 80006fa:	bd70      	pop	{r4, r5, r6, pc}
 80006fc:	f1c4 040c 	rsb	r4, r4, #12
 8000700:	f1c4 0520 	rsb	r5, r4, #32
 8000704:	fa00 f304 	lsl.w	r3, r0, r4
 8000708:	fa20 f005 	lsr.w	r0, r0, r5
 800070c:	fa01 f204 	lsl.w	r2, r1, r4
 8000710:	ea40 0002 	orr.w	r0, r0, r2
 8000714:	f001 4100 	and.w	r1, r1, #2147483648	@ 0x80000000
 8000718:	eb10 70d3 	adds.w	r0, r0, r3, lsr #31
 800071c:	f141 0100 	adc.w	r1, r1, #0
 8000720:	ea5e 0e43 	orrs.w	lr, lr, r3, lsl #1
 8000724:	bf08      	it	eq
 8000726:	ea20 70d3 	biceq.w	r0, r0, r3, lsr #31
 800072a:	bd70      	pop	{r4, r5, r6, pc}
 800072c:	f1c4 0520 	rsb	r5, r4, #32
 8000730:	fa00 f205 	lsl.w	r2, r0, r5
 8000734:	ea4e 0e02 	orr.w	lr, lr, r2
 8000738:	fa20 f304 	lsr.w	r3, r0, r4
 800073c:	fa01 f205 	lsl.w	r2, r1, r5
 8000740:	ea43 0302 	orr.w	r3, r3, r2
 8000744:	fa21 f004 	lsr.w	r0, r1, r4
 8000748:	f001 4100 	and.w	r1, r1, #2147483648	@ 0x80000000
 800074c:	fa21 f204 	lsr.w	r2, r1, r4
 8000750:	ea20 0002 	bic.w	r0, r0, r2
 8000754:	eb00 70d3 	add.w	r0, r0, r3, lsr #31
 8000758:	ea5e 0e43 	orrs.w	lr, lr, r3, lsl #1
 800075c:	bf08      	it	eq
 800075e:	ea20 70d3 	biceq.w	r0, r0, r3, lsr #31
 8000762:	bd70      	pop	{r4, r5, r6, pc}
 8000764:	f094 0f00 	teq	r4, #0
 8000768:	d10f      	bne.n	800078a <__aeabi_dmul+0x1c2>
 800076a:	f001 4600 	and.w	r6, r1, #2147483648	@ 0x80000000
 800076e:	0040      	lsls	r0, r0, #1
 8000770:	eb41 0101 	adc.w	r1, r1, r1
 8000774:	f411 1f80 	tst.w	r1, #1048576	@ 0x100000
 8000778:	bf08      	it	eq
 800077a:	3c01      	subeq	r4, #1
 800077c:	d0f7      	beq.n	800076e <__aeabi_dmul+0x1a6>
 800077e:	ea41 0106 	orr.w	r1, r1, r6
 8000782:	f095 0f00 	teq	r5, #0
 8000786:	bf18      	it	ne
 8000788:	4770      	bxne	lr
 800078a:	f003 4600 	and.w	r6, r3, #2147483648	@ 0x80000000
 800078e:	0052      	lsls	r2, r2, #1
 8000790:	eb43 0303 	adc.w	r3, r3, r3
 8000794:	f413 1f80 	tst.w	r3, #1048576	@ 0x100000
 8000798:	bf08      	it	eq
 800079a:	3d01      	subeq	r5, #1
 800079c:	d0f7      	beq.n	800078e <__aeabi_dmul+0x1c6>
 800079e:	ea43 0306 	orr.w	r3, r3, r6
 80007a2:	4770      	bx	lr
 80007a4:	ea94 0f0c 	teq	r4, ip
 80007a8:	ea0c 5513 	and.w	r5, ip, r3, lsr #20
 80007ac:	bf18      	it	ne
 80007ae:	ea95 0f0c 	teqne	r5, ip
 80007b2:	d00c      	beq.n	80007ce <__aeabi_dmul+0x206>
 80007b4:	ea50 0641 	orrs.w	r6, r0, r1, lsl #1
 80007b8:	bf18      	it	ne
 80007ba:	ea52 0643 	orrsne.w	r6, r2, r3, lsl #1
 80007be:	d1d1      	bne.n	8000764 <__aeabi_dmul+0x19c>
 80007c0:	ea81 0103 	eor.w	r1, r1, r3
 80007c4:	f001 4100 	and.w	r1, r1, #2147483648	@ 0x80000000
 80007c8:	f04f 0000 	mov.w	r0, #0
 80007cc:	bd70      	pop	{r4, r5, r6, pc}
 80007ce:	ea50 0641 	orrs.w	r6, r0, r1, lsl #1
 80007d2:	bf06      	itte	eq
 80007d4:	4610      	moveq	r0, r2
 80007d6:	4619      	moveq	r1, r3
 80007d8:	ea52 0643 	orrsne.w	r6, r2, r3, lsl #1
 80007dc:	d019      	beq.n	8000812 <__aeabi_dmul+0x24a>
 80007de:	ea94 0f0c 	teq	r4, ip
 80007e2:	d102      	bne.n	80007ea <__aeabi_dmul+0x222>
 80007e4:	ea50 3601 	orrs.w	r6, r0, r1, lsl #12
 80007e8:	d113      	bne.n	8000812 <__aeabi_dmul+0x24a>
 80007ea:	ea95 0f0c 	teq	r5, ip
 80007ee:	d105      	bne.n	80007fc <__aeabi_dmul+0x234>
 80007f0:	ea52 3603 	orrs.w	r6, r2, r3, lsl #12
 80007f4:	bf1c      	itt	ne
 80007f6:	4610      	movne	r0, r2
 80007f8:	4619      	movne	r1, r3
 80007fa:	d10a      	bne.n	8000812 <__aeabi_dmul+0x24a>
 80007fc:	ea81 0103 	eor.w	r1, r1, r3
 8000800:	f001 4100 	and.w	r1, r1, #2147483648	@ 0x80000000
 8000804:	f041 41fe 	orr.w	r1, r1, #2130706432	@ 0x7f000000
 8000808:	f441 0170 	orr.w	r1, r1, #15728640	@ 0xf00000
 800080c:	f04f 0000 	mov.w	r0, #0
 8000810:	bd70      	pop	{r4, r5, r6, pc}
 8000812:	f041 41fe 	orr.w	r1, r1, #2130706432	@ 0x7f000000
 8000816:	f441 0178 	orr.w	r1, r1, #16252928	@ 0xf80000
 800081a:	bd70      	pop	{r4, r5, r6, pc}

0800081c <__aeabi_ddiv>:
 800081c:	b570      	push	{r4, r5, r6, lr}
 800081e:	f04f 0cff 	mov.w	ip, #255	@ 0xff
 8000822:	f44c 6ce0 	orr.w	ip, ip, #1792	@ 0x700
 8000826:	ea1c 5411 	ands.w	r4, ip, r1, lsr #20
 800082a:	bf1d      	ittte	ne
 800082c:	ea1c 5513 	andsne.w	r5, ip, r3, lsr #20
 8000830:	ea94 0f0c 	teqne	r4, ip
 8000834:	ea95 0f0c 	teqne	r5, ip
 8000838:	f000 f8a7 	bleq	800098a <__aeabi_ddiv+0x16e>
 800083c:	eba4 0405 	sub.w	r4, r4, r5
 8000840:	ea81 0e03 	eor.w	lr, r1, r3
 8000844:	ea52 3503 	orrs.w	r5, r2, r3, lsl #12
 8000848:	ea4f 3101 	mov.w	r1, r1, lsl #12
 800084c:	f000 8088 	beq.w	8000960 <__aeabi_ddiv+0x144>
 8000850:	ea4f 3303 	mov.w	r3, r3, lsl #12
 8000854:	f04f 5580 	mov.w	r5, #268435456	@ 0x10000000
 8000858:	ea45 1313 	orr.w	r3, r5, r3, lsr #4
 800085c:	ea43 6312 	orr.w	r3, r3, r2, lsr #24
 8000860:	ea4f 2202 	mov.w	r2, r2, lsl #8
 8000864:	ea45 1511 	orr.w	r5, r5, r1, lsr #4
 8000868:	ea45 6510 	orr.w	r5, r5, r0, lsr #24
 800086c:	ea4f 2600 	mov.w	r6, r0, lsl #8
 8000870:	f00e 4100 	and.w	r1, lr, #2147483648	@ 0x80000000
 8000874:	429d      	cmp	r5, r3
 8000876:	bf08      	it	eq
 8000878:	4296      	cmpeq	r6, r2
 800087a:	f144 04fd 	adc.w	r4, r4, #253	@ 0xfd
 800087e:	f504 7440 	add.w	r4, r4, #768	@ 0x300
 8000882:	d202      	bcs.n	800088a <__aeabi_ddiv+0x6e>
 8000884:	085b      	lsrs	r3, r3, #1
 8000886:	ea4f 0232 	mov.w	r2, r2, rrx
 800088a:	1ab6      	subs	r6, r6, r2
 800088c:	eb65 0503 	sbc.w	r5, r5, r3
 8000890:	085b      	lsrs	r3, r3, #1
 8000892:	ea4f 0232 	mov.w	r2, r2, rrx
 8000896:	f44f 1080 	mov.w	r0, #1048576	@ 0x100000
 800089a:	f44f 2c00 	mov.w	ip, #524288	@ 0x80000
 800089e:	ebb6 0e02 	subs.w	lr, r6, r2
 80008a2:	eb75 0e03 	sbcs.w	lr, r5, r3
 80008a6:	bf22      	ittt	cs
 80008a8:	1ab6      	subcs	r6, r6, r2
 80008aa:	4675      	movcs	r5, lr
 80008ac:	ea40 000c 	orrcs.w	r0, r0, ip
 80008b0:	085b      	lsrs	r3, r3, #1
 80008b2:	ea4f 0232 	mov.w	r2, r2, rrx
 80008b6:	ebb6 0e02 	subs.w	lr, r6, r2
 80008ba:	eb75 0e03 	sbcs.w	lr, r5, r3
 80008be:	bf22      	ittt	cs
 80008c0:	1ab6      	subcs	r6, r6, r2
 80008c2:	4675      	movcs	r5, lr
 80008c4:	ea40 005c 	orrcs.w	r0, r0, ip, lsr #1
 80008c8:	085b      	lsrs	r3, r3, #1
 80008ca:	ea4f 0232 	mov.w	r2, r2, rrx
 80008ce:	ebb6 0e02 	subs.w	lr, r6, r2
 80008d2:	eb75 0e03 	sbcs.w	lr, r5, r3
 80008d6:	bf22      	ittt	cs
 80008d8:	1ab6      	subcs	r6, r6, r2
 80008da:	4675      	movcs	r5, lr
 80008dc:	ea40 009c 	orrcs.w	r0, r0, ip, lsr #2
 80008e0:	085b      	lsrs	r3, r3, #1
 80008e2:	ea4f 0232 	mov.w	r2, r2, rrx
 80008e6:	ebb6 0e02 	subs.w	lr, r6, r2
 80008ea:	eb75 0e03 	sbcs.w	lr, r5, r3
 80008ee:	bf22      	ittt	cs
 80008f0:	1ab6      	subcs	r6, r6, r2
 80008f2:	4675      	movcs	r5, lr
 80008f4:	ea40 00dc 	orrcs.w	r0, r0, ip, lsr #3
 80008f8:	ea55 0e06 	orrs.w	lr, r5, r6
 80008fc:	d018      	beq.n	8000930 <__aeabi_ddiv+0x114>
 80008fe:	ea4f 1505 	mov.w	r5, r5, lsl #4
 8000902:	ea45 7516 	orr.w	r5, r5, r6, lsr #28
 8000906:	ea4f 1606 	mov.w	r6, r6, lsl #4
 800090a:	ea4f 03c3 	mov.w	r3, r3, lsl #3
 800090e:	ea43 7352 	orr.w	r3, r3, r2, lsr #29
 8000912:	ea4f 02c2 	mov.w	r2, r2, lsl #3
 8000916:	ea5f 1c1c 	movs.w	ip, ip, lsr #4
 800091a:	d1c0      	bne.n	800089e <__aeabi_ddiv+0x82>
 800091c:	f411 1f80 	tst.w	r1, #1048576	@ 0x100000
 8000920:	d10b      	bne.n	800093a <__aeabi_ddiv+0x11e>
 8000922:	ea41 0100 	orr.w	r1, r1, r0
 8000926:	f04f 0000 	mov.w	r0, #0
 800092a:	f04f 4c00 	mov.w	ip, #2147483648	@ 0x80000000
 800092e:	e7b6      	b.n	800089e <__aeabi_ddiv+0x82>
 8000930:	f411 1f80 	tst.w	r1, #1048576	@ 0x100000
 8000934:	bf04      	itt	eq
 8000936:	4301      	orreq	r1, r0
 8000938:	2000      	moveq	r0, #0
 800093a:	f1b4 0cfd 	subs.w	ip, r4, #253	@ 0xfd
 800093e:	bf88      	it	hi
 8000940:	f5bc 6fe0 	cmphi.w	ip, #1792	@ 0x700
 8000944:	f63f aeaf 	bhi.w	80006a6 <__aeabi_dmul+0xde>
 8000948:	ebb5 0c03 	subs.w	ip, r5, r3
 800094c:	bf04      	itt	eq
 800094e:	ebb6 0c02 	subseq.w	ip, r6, r2
 8000952:	ea5f 0c50 	movseq.w	ip, r0, lsr #1
 8000956:	f150 0000 	adcs.w	r0, r0, #0
 800095a:	eb41 5104 	adc.w	r1, r1, r4, lsl #20
 800095e:	bd70      	pop	{r4, r5, r6, pc}
 8000960:	f00e 4e00 	and.w	lr, lr, #2147483648	@ 0x80000000
 8000964:	ea4e 3111 	orr.w	r1, lr, r1, lsr #12
 8000968:	eb14 045c 	adds.w	r4, r4, ip, lsr #1
 800096c:	bfc2      	ittt	gt
 800096e:	ebd4 050c 	rsbsgt	r5, r4, ip
 8000972:	ea41 5104 	orrgt.w	r1, r1, r4, lsl #20
 8000976:	bd70      	popgt	{r4, r5, r6, pc}
 8000978:	f441 1180 	orr.w	r1, r1, #1048576	@ 0x100000
 800097c:	f04f 0e00 	mov.w	lr, #0
 8000980:	3c01      	subs	r4, #1
 8000982:	e690      	b.n	80006a6 <__aeabi_dmul+0xde>
 8000984:	ea45 0e06 	orr.w	lr, r5, r6
 8000988:	e68d      	b.n	80006a6 <__aeabi_dmul+0xde>
 800098a:	ea0c 5513 	and.w	r5, ip, r3, lsr #20
 800098e:	ea94 0f0c 	teq	r4, ip
 8000992:	bf08      	it	eq
 8000994:	ea95 0f0c 	teqeq	r5, ip
 8000998:	f43f af3b 	beq.w	8000812 <__aeabi_dmul+0x24a>
 800099c:	ea94 0f0c 	teq	r4, ip
 80009a0:	d10a      	bne.n	80009b8 <__aeabi_ddiv+0x19c>
 80009a2:	ea50 3401 	orrs.w	r4, r0, r1, lsl #12
 80009a6:	f47f af34 	bne.w	8000812 <__aeabi_dmul+0x24a>
 80009aa:	ea95 0f0c 	teq	r5, ip
 80009ae:	f47f af25 	bne.w	80007fc <__aeabi_dmul+0x234>
 80009b2:	4610      	mov	r0, r2
 80009b4:	4619      	mov	r1, r3
 80009b6:	e72c      	b.n	8000812 <__aeabi_dmul+0x24a>
 80009b8:	ea95 0f0c 	teq	r5, ip
 80009bc:	d106      	bne.n	80009cc <__aeabi_ddiv+0x1b0>
 80009be:	ea52 3503 	orrs.w	r5, r2, r3, lsl #12
 80009c2:	f43f aefd 	beq.w	80007c0 <__aeabi_dmul+0x1f8>
 80009c6:	4610      	mov	r0, r2
 80009c8:	4619      	mov	r1, r3
 80009ca:	e722      	b.n	8000812 <__aeabi_dmul+0x24a>
 80009cc:	ea50 0641 	orrs.w	r6, r0, r1, lsl #1
 80009d0:	bf18      	it	ne
 80009d2:	ea52 0643 	orrsne.w	r6, r2, r3, lsl #1
 80009d6:	f47f aec5 	bne.w	8000764 <__aeabi_dmul+0x19c>
 80009da:	ea50 0441 	orrs.w	r4, r0, r1, lsl #1
 80009de:	f47f af0d 	bne.w	80007fc <__aeabi_dmul+0x234>
 80009e2:	ea52 0543 	orrs.w	r5, r2, r3, lsl #1
 80009e6:	f47f aeeb 	bne.w	80007c0 <__aeabi_dmul+0x1f8>
 80009ea:	e712      	b.n	8000812 <__aeabi_dmul+0x24a>

080009ec <__gedf2>:
 80009ec:	f04f 3cff 	mov.w	ip, #4294967295	@ 0xffffffff
 80009f0:	e006      	b.n	8000a00 <__cmpdf2+0x4>
 80009f2:	bf00      	nop

080009f4 <__ledf2>:
 80009f4:	f04f 0c01 	mov.w	ip, #1
 80009f8:	e002      	b.n	8000a00 <__cmpdf2+0x4>
 80009fa:	bf00      	nop

080009fc <__cmpdf2>:
 80009fc:	f04f 0c01 	mov.w	ip, #1
 8000a00:	f84d cd04 	str.w	ip, [sp, #-4]!
 8000a04:	ea4f 0c41 	mov.w	ip, r1, lsl #1
 8000a08:	ea7f 5c6c 	mvns.w	ip, ip, asr #21
 8000a0c:	ea4f 0c43 	mov.w	ip, r3, lsl #1
 8000a10:	bf18      	it	ne
 8000a12:	ea7f 5c6c 	mvnsne.w	ip, ip, asr #21
 8000a16:	d01b      	beq.n	8000a50 <__cmpdf2+0x54>
 8000a18:	b001      	add	sp, #4
 8000a1a:	ea50 0c41 	orrs.w	ip, r0, r1, lsl #1
 8000a1e:	bf0c      	ite	eq
 8000a20:	ea52 0c43 	orrseq.w	ip, r2, r3, lsl #1
 8000a24:	ea91 0f03 	teqne	r1, r3
 8000a28:	bf02      	ittt	eq
 8000a2a:	ea90 0f02 	teqeq	r0, r2
 8000a2e:	2000      	moveq	r0, #0
 8000a30:	4770      	bxeq	lr
 8000a32:	f110 0f00 	cmn.w	r0, #0
 8000a36:	ea91 0f03 	teq	r1, r3
 8000a3a:	bf58      	it	pl
 8000a3c:	4299      	cmppl	r1, r3
 8000a3e:	bf08      	it	eq
 8000a40:	4290      	cmpeq	r0, r2
 8000a42:	bf2c      	ite	cs
 8000a44:	17d8      	asrcs	r0, r3, #31
 8000a46:	ea6f 70e3 	mvncc.w	r0, r3, asr #31
 8000a4a:	f040 0001 	orr.w	r0, r0, #1
 8000a4e:	4770      	bx	lr
 8000a50:	ea4f 0c41 	mov.w	ip, r1, lsl #1
 8000a54:	ea7f 5c6c 	mvns.w	ip, ip, asr #21
 8000a58:	d102      	bne.n	8000a60 <__cmpdf2+0x64>
 8000a5a:	ea50 3c01 	orrs.w	ip, r0, r1, lsl #12
 8000a5e:	d107      	bne.n	8000a70 <__cmpdf2+0x74>
 8000a60:	ea4f 0c43 	mov.w	ip, r3, lsl #1
 8000a64:	ea7f 5c6c 	mvns.w	ip, ip, asr #21
 8000a68:	d1d6      	bne.n	8000a18 <__cmpdf2+0x1c>
 8000a6a:	ea52 3c03 	orrs.w	ip, r2, r3, lsl #12
 8000a6e:	d0d3      	beq.n	8000a18 <__cmpdf2+0x1c>
 8000a70:	f85d 0b04 	ldr.w	r0, [sp], #4
 8000a74:	4770      	bx	lr
 8000a76:	bf00      	nop

08000a78 <__aeabi_cdrcmple>:
 8000a78:	4684      	mov	ip, r0
 8000a7a:	4610      	mov	r0, r2
 8000a7c:	4662      	mov	r2, ip
 8000a7e:	468c      	mov	ip, r1
 8000a80:	4619      	mov	r1, r3
 8000a82:	4663      	mov	r3, ip
 8000a84:	e000      	b.n	8000a88 <__aeabi_cdcmpeq>
 8000a86:	bf00      	nop

08000a88 <__aeabi_cdcmpeq>:
 8000a88:	b501      	push	{r0, lr}
 8000a8a:	f7ff ffb7 	bl	80009fc <__cmpdf2>
 8000a8e:	2800      	cmp	r0, #0
 8000a90:	bf48      	it	mi
 8000a92:	f110 0f00 	cmnmi.w	r0, #0
 8000a96:	bd01      	pop	{r0, pc}

08000a98 <__aeabi_dcmpeq>:
 8000a98:	f84d ed08 	str.w	lr, [sp, #-8]!
 8000a9c:	f7ff fff4 	bl	8000a88 <__aeabi_cdcmpeq>
 8000aa0:	bf0c      	ite	eq
 8000aa2:	2001      	moveq	r0, #1
 8000aa4:	2000      	movne	r0, #0
 8000aa6:	f85d fb08 	ldr.w	pc, [sp], #8
 8000aaa:	bf00      	nop

08000aac <__aeabi_dcmplt>:
 8000aac:	f84d ed08 	str.w	lr, [sp, #-8]!
 8000ab0:	f7ff ffea 	bl	8000a88 <__aeabi_cdcmpeq>
 8000ab4:	bf34      	ite	cc
 8000ab6:	2001      	movcc	r0, #1
 8000ab8:	2000      	movcs	r0, #0
 8000aba:	f85d fb08 	ldr.w	pc, [sp], #8
 8000abe:	bf00      	nop

08000ac0 <__aeabi_dcmple>:
 8000ac0:	f84d ed08 	str.w	lr, [sp, #-8]!
 8000ac4:	f7ff ffe0 	bl	8000a88 <__aeabi_cdcmpeq>
 8000ac8:	bf94      	ite	ls
 8000aca:	2001      	movls	r0, #1
 8000acc:	2000      	movhi	r0, #0
 8000ace:	f85d fb08 	ldr.w	pc, [sp], #8
 8000ad2:	bf00      	nop

08000ad4 <__aeabi_dcmpge>:
 8000ad4:	f84d ed08 	str.w	lr, [sp, #-8]!
 8000ad8:	f7ff ffce 	bl	8000a78 <__aeabi_cdrcmple>
 8000adc:	bf94      	ite	ls
 8000ade:	2001      	movls	r0, #1
 8000ae0:	2000      	movhi	r0, #0
 8000ae2:	f85d fb08 	ldr.w	pc, [sp], #8
 8000ae6:	bf00      	nop

08000ae8 <__aeabi_dcmpgt>:
 8000ae8:	f84d ed08 	str.w	lr, [sp, #-8]!
 8000aec:	f7ff ffc4 	bl	8000a78 <__aeabi_cdrcmple>
 8000af0:	bf34      	ite	cc
 8000af2:	2001      	movcc	r0, #1
 8000af4:	2000      	movcs	r0, #0
 8000af6:	f85d fb08 	ldr.w	pc, [sp], #8
 8000afa:	bf00      	nop

08000afc <__aeabi_dcmpun>:
 8000afc:	ea4f 0c41 	mov.w	ip, r1, lsl #1
 8000b00:	ea7f 5c6c 	mvns.w	ip, ip, asr #21
 8000b04:	d102      	bne.n	8000b0c <__aeabi_dcmpun+0x10>
 8000b06:	ea50 3c01 	orrs.w	ip, r0, r1, lsl #12
 8000b0a:	d10a      	bne.n	8000b22 <__aeabi_dcmpun+0x26>
 8000b0c:	ea4f 0c43 	mov.w	ip, r3, lsl #1
 8000b10:	ea7f 5c6c 	mvns.w	ip, ip, asr #21
 8000b14:	d102      	bne.n	8000b1c <__aeabi_dcmpun+0x20>
 8000b16:	ea52 3c03 	orrs.w	ip, r2, r3, lsl #12
 8000b1a:	d102      	bne.n	8000b22 <__aeabi_dcmpun+0x26>
 8000b1c:	f04f 0000 	mov.w	r0, #0
 8000b20:	4770      	bx	lr
 8000b22:	f04f 0001 	mov.w	r0, #1
 8000b26:	4770      	bx	lr

08000b28 <__aeabi_d2iz>:
 8000b28:	ea4f 0241 	mov.w	r2, r1, lsl #1
 8000b2c:	f512 1200 	adds.w	r2, r2, #2097152	@ 0x200000
 8000b30:	d215      	bcs.n	8000b5e <__aeabi_d2iz+0x36>
 8000b32:	d511      	bpl.n	8000b58 <__aeabi_d2iz+0x30>
 8000b34:	f46f 7378 	mvn.w	r3, #992	@ 0x3e0
 8000b38:	ebb3 5262 	subs.w	r2, r3, r2, asr #21
 8000b3c:	d912      	bls.n	8000b64 <__aeabi_d2iz+0x3c>
 8000b3e:	ea4f 23c1 	mov.w	r3, r1, lsl #11
 8000b42:	f043 4300 	orr.w	r3, r3, #2147483648	@ 0x80000000
 8000b46:	ea43 5350 	orr.w	r3, r3, r0, lsr #21
 8000b4a:	f011 4f00 	tst.w	r1, #2147483648	@ 0x80000000
 8000b4e:	fa23 f002 	lsr.w	r0, r3, r2
 8000b52:	bf18      	it	ne
 8000b54:	4240      	negne	r0, r0
 8000b56:	4770      	bx	lr
 8000b58:	f04f 0000 	mov.w	r0, #0
 8000b5c:	4770      	bx	lr
 8000b5e:	ea50 3001 	orrs.w	r0, r0, r1, lsl #12
 8000b62:	d105      	bne.n	8000b70 <__aeabi_d2iz+0x48>
 8000b64:	f011 4000 	ands.w	r0, r1, #2147483648	@ 0x80000000
 8000b68:	bf08      	it	eq
 8000b6a:	f06f 4000 	mvneq.w	r0, #2147483648	@ 0x80000000
 8000b6e:	4770      	bx	lr
 8000b70:	f04f 0000 	mov.w	r0, #0
 8000b74:	4770      	bx	lr
 8000b76:	bf00      	nop

08000b78 <__aeabi_ldivmod>:
 8000b78:	b97b      	cbnz	r3, 8000b9a <__aeabi_ldivmod+0x22>
 8000b7a:	b972      	cbnz	r2, 8000b9a <__aeabi_ldivmod+0x22>
 8000b7c:	2900      	cmp	r1, #0
 8000b7e:	bfbe      	ittt	lt
 8000b80:	2000      	movlt	r0, #0
 8000b82:	f04f 4100 	movlt.w	r1, #2147483648	@ 0x80000000
 8000b86:	e006      	blt.n	8000b96 <__aeabi_ldivmod+0x1e>
 8000b88:	bf08      	it	eq
 8000b8a:	2800      	cmpeq	r0, #0
 8000b8c:	bf1c      	itt	ne
 8000b8e:	f06f 4100 	mvnne.w	r1, #2147483648	@ 0x80000000
 8000b92:	f04f 30ff 	movne.w	r0, #4294967295	@ 0xffffffff
 8000b96:	f000 b857 	b.w	8000c48 <__aeabi_idiv0>
 8000b9a:	f1ad 0c08 	sub.w	ip, sp, #8
 8000b9e:	e96d ce04 	strd	ip, lr, [sp, #-16]!
 8000ba2:	2900      	cmp	r1, #0
 8000ba4:	db09      	blt.n	8000bba <__aeabi_ldivmod+0x42>
 8000ba6:	2b00      	cmp	r3, #0
 8000ba8:	db1a      	blt.n	8000be0 <__aeabi_ldivmod+0x68>
 8000baa:	f005 ff67 	bl	8006a7c <__udivmoddi4>
 8000bae:	f8dd e004 	ldr.w	lr, [sp, #4]
 8000bb2:	e9dd 2302 	ldrd	r2, r3, [sp, #8]
 8000bb6:	b004      	add	sp, #16
 8000bb8:	4770      	bx	lr
 8000bba:	4240      	negs	r0, r0
 8000bbc:	eb61 0141 	sbc.w	r1, r1, r1, lsl #1
 8000bc0:	2b00      	cmp	r3, #0
 8000bc2:	db1b      	blt.n	8000bfc <__aeabi_ldivmod+0x84>
 8000bc4:	f005 ff5a 	bl	8006a7c <__udivmoddi4>
 8000bc8:	f8dd e004 	ldr.w	lr, [sp, #4]
 8000bcc:	e9dd 2302 	ldrd	r2, r3, [sp, #8]
 8000bd0:	b004      	add	sp, #16
 8000bd2:	4240      	negs	r0, r0
 8000bd4:	eb61 0141 	sbc.w	r1, r1, r1, lsl #1
 8000bd8:	4252      	negs	r2, r2
 8000bda:	eb63 0343 	sbc.w	r3, r3, r3, lsl #1
 8000bde:	4770      	bx	lr
 8000be0:	4252      	negs	r2, r2
 8000be2:	eb63 0343 	sbc.w	r3, r3, r3, lsl #1
 8000be6:	f005 ff49 	bl	8006a7c <__udivmoddi4>
 8000bea:	f8dd e004 	ldr.w	lr, [sp, #4]
 8000bee:	e9dd 2302 	ldrd	r2, r3, [sp, #8]
 8000bf2:	b004      	add	sp, #16
 8000bf4:	4240      	negs	r0, r0
 8000bf6:	eb61 0141 	sbc.w	r1, r1, r1, lsl #1
 8000bfa:	4770      	bx	lr
 8000bfc:	4252      	negs	r2, r2
 8000bfe:	eb63 0343 	sbc.w	r3, r3, r3, lsl #1
 8000c02:	f005 ff3b 	bl	8006a7c <__udivmoddi4>
 8000c06:	f8dd e004 	ldr.w	lr, [sp, #4]
 8000c0a:	e9dd 2302 	ldrd	r2, r3, [sp, #8]
 8000c0e:	b004      	add	sp, #16
 8000c10:	4252      	negs	r2, r2
 8000c12:	eb63 0343 	sbc.w	r3, r3, r3, lsl #1
 8000c16:	4770      	bx	lr

08000c18 <__aeabi_uldivmod>:
 8000c18:	b953      	cbnz	r3, 8000c30 <__aeabi_uldivmod+0x18>
 8000c1a:	b94a      	cbnz	r2, 8000c30 <__aeabi_uldivmod+0x18>
 8000c1c:	2900      	cmp	r1, #0
 8000c1e:	bf08      	it	eq
 8000c20:	2800      	cmpeq	r0, #0
 8000c22:	bf1c      	itt	ne
 8000c24:	f04f 31ff 	movne.w	r1, #4294967295	@ 0xffffffff
 8000c28:	f04f 30ff 	movne.w	r0, #4294967295	@ 0xffffffff
 8000c2c:	f000 b80c 	b.w	8000c48 <__aeabi_idiv0>
 8000c30:	f1ad 0c08 	sub.w	ip, sp, #8
 8000c34:	e96d ce04 	strd	ip, lr, [sp, #-16]!
 8000c38:	f005 ff20 	bl	8006a7c <__udivmoddi4>
 8000c3c:	f8dd e004 	ldr.w	lr, [sp, #4]
 8000c40:	e9dd 2302 	ldrd	r2, r3, [sp, #8]
 8000c44:	b004      	add	sp, #16
 8000c46:	4770      	bx	lr

08000c48 <__aeabi_idiv0>:
 8000c48:	4770      	bx	lr
 8000c4a:	bf00      	nop

08000c4c <__do_global_dtors_aux>:
 8000c4c:	b510      	push	{r4, lr}
 8000c4e:	4c05      	ldr	r4, [pc, #20]	@ (8000c64 <__do_global_dtors_aux+0x18>)
 8000c50:	7823      	ldrb	r3, [r4, #0]
 8000c52:	b933      	cbnz	r3, 8000c62 <__do_global_dtors_aux+0x16>
 8000c54:	4b04      	ldr	r3, [pc, #16]	@ (8000c68 <__do_global_dtors_aux+0x1c>)
 8000c56:	b113      	cbz	r3, 8000c5e <__do_global_dtors_aux+0x12>
 8000c58:	4804      	ldr	r0, [pc, #16]	@ (8000c6c <__do_global_dtors_aux+0x20>)
 8000c5a:	f3af 8000 	nop.w
 8000c5e:	2301      	movs	r3, #1
 8000c60:	7023      	strb	r3, [r4, #0]
 8000c62:	bd10      	pop	{r4, pc}
 8000c64:	200001d4 	.word	0x200001d4
 8000c68:	00000000 	.word	0x00000000
 8000c6c:	08006d38 	.word	0x08006d38

08000c70 <frame_dummy>:
 8000c70:	b508      	push	{r3, lr}
 8000c72:	4b03      	ldr	r3, [pc, #12]	@ (8000c80 <frame_dummy+0x10>)
 8000c74:	b11b      	cbz	r3, 8000c7e <frame_dummy+0xe>
 8000c76:	4903      	ldr	r1, [pc, #12]	@ (8000c84 <frame_dummy+0x14>)
 8000c78:	4803      	ldr	r0, [pc, #12]	@ (8000c88 <frame_dummy+0x18>)
 8000c7a:	f3af 8000 	nop.w
 8000c7e:	bd08      	pop	{r3, pc}
 8000c80:	00000000 	.word	0x00000000
 8000c84:	200001d8 	.word	0x200001d8
 8000c88:	08006d38 	.word	0x08006d38

08000c8c <check_acc_identity>:

static const uint8_t dev_address = 0b11010100; //адрес устройства по линии I2C
static const uint32_t timeout_default = 0xFF; //Таймаут, 255 мс

short check_acc_identity()
{
 8000c8c:	b510      	push	{r4, lr}
 8000c8e:	b092      	sub	sp, #72	@ 0x48
	uint16_t register_address = 0x0F; //Адрес регистра в котором хранится значение ID
	uint8_t data; //Массив в котором МЫ будем хранить данные с регистра устройства
	uint16_t Size_ = 1; //Длина запрашиваемых данных, 1 байт = 1 регистр

	send_reg_log(HAL_I2C_Mem_Read(&hi2c1, dev_address, register_address, I2C_MEMADD_SIZE_8BIT, &data, Size_, timeout_default), "WHO AM I");
 8000c90:	23ff      	movs	r3, #255	@ 0xff
 8000c92:	9302      	str	r3, [sp, #8]
 8000c94:	2301      	movs	r3, #1
 8000c96:	9301      	str	r3, [sp, #4]
 8000c98:	f10d 0247 	add.w	r2, sp, #71	@ 0x47
 8000c9c:	9200      	str	r2, [sp, #0]
 8000c9e:	220f      	movs	r2, #15
 8000ca0:	21d4      	movs	r1, #212	@ 0xd4
 8000ca2:	4817      	ldr	r0, [pc, #92]	@ (8000d00 <check_acc_identity+0x74>)
 8000ca4:	f001 fc10 	bl	80024c8 <HAL_I2C_Mem_Read>
 8000ca8:	4916      	ldr	r1, [pc, #88]	@ (8000d04 <check_acc_identity+0x78>)
 8000caa:	f000 fbd3 	bl	8001454 <send_reg_log>
	if (data == 0x69)
 8000cae:	f89d 3047 	ldrb.w	r3, [sp, #71]	@ 0x47
 8000cb2:	2b69      	cmp	r3, #105	@ 0x69
 8000cb4:	d102      	bne.n	8000cbc <check_acc_identity+0x30>
	{
        //successfuly read register
        return 1;
 8000cb6:	2001      	movs	r0, #1
	{
		char buffer [50] = "ACCELEROMETER READ ERROR\n\r";
		send_message(buffer, PRIORITY_HIGH);
		return 0;
    }
}
 8000cb8:	b012      	add	sp, #72	@ 0x48
 8000cba:	bd10      	pop	{r4, pc}
		char buffer [50] = "ACCELEROMETER READ ERROR\n\r";
 8000cbc:	f10d 0c14 	add.w	ip, sp, #20
 8000cc0:	4c11      	ldr	r4, [pc, #68]	@ (8000d08 <check_acc_identity+0x7c>)
 8000cc2:	cc0f      	ldmia	r4!, {r0, r1, r2, r3}
 8000cc4:	e8ac 000f 	stmia.w	ip!, {r0, r1, r2, r3}
 8000cc8:	e894 0007 	ldmia.w	r4, {r0, r1, r2}
 8000ccc:	e8ac 0003 	stmia.w	ip!, {r0, r1}
 8000cd0:	f82c 2b02 	strh.w	r2, [ip], #2
 8000cd4:	0c12      	lsrs	r2, r2, #16
 8000cd6:	f88c 2000 	strb.w	r2, [ip]
 8000cda:	2400      	movs	r4, #0
 8000cdc:	f8cd 402f 	str.w	r4, [sp, #47]	@ 0x2f
 8000ce0:	f8cd 4033 	str.w	r4, [sp, #51]	@ 0x33
 8000ce4:	f8cd 4037 	str.w	r4, [sp, #55]	@ 0x37
 8000ce8:	f8cd 403b 	str.w	r4, [sp, #59]	@ 0x3b
 8000cec:	f8cd 403f 	str.w	r4, [sp, #63]	@ 0x3f
 8000cf0:	f8cd 4042 	str.w	r4, [sp, #66]	@ 0x42
		send_message(buffer, PRIORITY_HIGH);
 8000cf4:	2102      	movs	r1, #2
 8000cf6:	a805      	add	r0, sp, #20
 8000cf8:	f000 fb9e 	bl	8001438 <send_message>
		return 0;
 8000cfc:	4620      	mov	r0, r4
 8000cfe:	e7db      	b.n	8000cb8 <check_acc_identity+0x2c>
 8000d00:	2000020c 	.word	0x2000020c
 8000d04:	08006e74 	.word	0x08006e74
 8000d08:	08006d50 	.word	0x08006d50

08000d0c <acc_power_on>:

short acc_power_on()
{
 8000d0c:	b500      	push	{lr}
 8000d0e:	b087      	sub	sp, #28
	uint8_t acc_power_mode = 0b01000100;
 8000d10:	2344      	movs	r3, #68	@ 0x44
 8000d12:	f88d 3017 	strb.w	r3, [sp, #23]
	send_reg_log(HAL_I2C_Mem_Write(&hi2c1, dev_address, 0x10, I2C_MEMADD_SIZE_8BIT, &acc_power_mode, 1, timeout_default), "ctrl_meas");
 8000d16:	23ff      	movs	r3, #255	@ 0xff
 8000d18:	9302      	str	r3, [sp, #8]
 8000d1a:	2301      	movs	r3, #1
 8000d1c:	9301      	str	r3, [sp, #4]
 8000d1e:	f10d 0217 	add.w	r2, sp, #23
 8000d22:	9200      	str	r2, [sp, #0]
 8000d24:	2210      	movs	r2, #16
 8000d26:	21d4      	movs	r1, #212	@ 0xd4
 8000d28:	4804      	ldr	r0, [pc, #16]	@ (8000d3c <acc_power_on+0x30>)
 8000d2a:	f001 fb1d 	bl	8002368 <HAL_I2C_Mem_Write>
 8000d2e:	4904      	ldr	r1, [pc, #16]	@ (8000d40 <acc_power_on+0x34>)
 8000d30:	f000 fb90 	bl	8001454 <send_reg_log>

    return 0;
}
 8000d34:	2000      	movs	r0, #0
 8000d36:	b007      	add	sp, #28
 8000d38:	f85d fb04 	ldr.w	pc, [sp], #4
 8000d3c:	2000020c 	.word	0x2000020c
 8000d40:	08006e80 	.word	0x08006e80
 8000d44:	00000000 	.word	0x00000000

08000d48 <read_acceleration_xyz>:

void read_acceleration_xyz(double* buffer_xyz)
{
 8000d48:	e92d 4ff0 	stmdb	sp!, {r4, r5, r6, r7, r8, r9, sl, fp, lr}
 8000d4c:	b089      	sub	sp, #36	@ 0x24
 8000d4e:	4680      	mov	r8, r0
	uint16_t raw_val[2];

	send_reg_log(HAL_I2C_Mem_Read(&hi2c1, dev_address, 0x28, I2C_MEMADD_SIZE_8BIT, (uint8_t*)raw_val, 1, timeout_default), "OUTX_L_XL");
 8000d50:	4e5d      	ldr	r6, [pc, #372]	@ (8000ec8 <read_acceleration_xyz+0x180>)
 8000d52:	27ff      	movs	r7, #255	@ 0xff
 8000d54:	9702      	str	r7, [sp, #8]
 8000d56:	2401      	movs	r4, #1
 8000d58:	9401      	str	r4, [sp, #4]
 8000d5a:	f10d 0b1c 	add.w	fp, sp, #28
 8000d5e:	f8cd b000 	str.w	fp, [sp]
 8000d62:	4623      	mov	r3, r4
 8000d64:	2228      	movs	r2, #40	@ 0x28
 8000d66:	21d4      	movs	r1, #212	@ 0xd4
 8000d68:	4630      	mov	r0, r6
 8000d6a:	f001 fbad 	bl	80024c8 <HAL_I2C_Mem_Read>
 8000d6e:	4957      	ldr	r1, [pc, #348]	@ (8000ecc <read_acceleration_xyz+0x184>)
 8000d70:	f000 fb70 	bl	8001454 <send_reg_log>
	send_reg_log(HAL_I2C_Mem_Read(&hi2c1, dev_address, 0x29, I2C_MEMADD_SIZE_8BIT, (uint8_t*)raw_val+1, 1, timeout_default), "OUTX_H_XL");
 8000d74:	9702      	str	r7, [sp, #8]
 8000d76:	9401      	str	r4, [sp, #4]
 8000d78:	f10d 0a1d 	add.w	sl, sp, #29
 8000d7c:	f8cd a000 	str.w	sl, [sp]
 8000d80:	4623      	mov	r3, r4
 8000d82:	2229      	movs	r2, #41	@ 0x29
 8000d84:	21d4      	movs	r1, #212	@ 0xd4
 8000d86:	4630      	mov	r0, r6
 8000d88:	f001 fb9e 	bl	80024c8 <HAL_I2C_Mem_Read>
 8000d8c:	4950      	ldr	r1, [pc, #320]	@ (8000ed0 <read_acceleration_xyz+0x188>)
 8000d8e:	f000 fb61 	bl	8001454 <send_reg_log>

	int16_t x_val = raw_val[1] << 8 | raw_val[0];
 8000d92:	f8bd 501e 	ldrh.w	r5, [sp, #30]
 8000d96:	022d      	lsls	r5, r5, #8
 8000d98:	b22d      	sxth	r5, r5
 8000d9a:	f9bd 301c 	ldrsh.w	r3, [sp, #28]
 8000d9e:	431d      	orrs	r5, r3
	raw_val[0] = raw_val[1] = 0;
 8000da0:	f04f 0900 	mov.w	r9, #0
 8000da4:	f8ad 901e 	strh.w	r9, [sp, #30]
 8000da8:	f8ad 901c 	strh.w	r9, [sp, #28]
  
	send_reg_log(HAL_I2C_Mem_Read(&hi2c1, dev_address, 0x2A, I2C_MEMADD_SIZE_8BIT, (uint8_t*)raw_val, 1, timeout_default), "OUTY_L_XL");
 8000dac:	9702      	str	r7, [sp, #8]
 8000dae:	9401      	str	r4, [sp, #4]
 8000db0:	f8cd b000 	str.w	fp, [sp]
 8000db4:	4623      	mov	r3, r4
 8000db6:	222a      	movs	r2, #42	@ 0x2a
 8000db8:	21d4      	movs	r1, #212	@ 0xd4
 8000dba:	4630      	mov	r0, r6
 8000dbc:	f001 fb84 	bl	80024c8 <HAL_I2C_Mem_Read>
 8000dc0:	4944      	ldr	r1, [pc, #272]	@ (8000ed4 <read_acceleration_xyz+0x18c>)
 8000dc2:	f000 fb47 	bl	8001454 <send_reg_log>
	send_reg_log(HAL_I2C_Mem_Read(&hi2c1, dev_address, 0x2B, I2C_MEMADD_SIZE_8BIT, (uint8_t*)raw_val+1, 1, timeout_default), "OUTY_H_XL");
 8000dc6:	9702      	str	r7, [sp, #8]
 8000dc8:	9401      	str	r4, [sp, #4]
 8000dca:	f8cd a000 	str.w	sl, [sp]
 8000dce:	4623      	mov	r3, r4
 8000dd0:	222b      	movs	r2, #43	@ 0x2b
 8000dd2:	21d4      	movs	r1, #212	@ 0xd4
 8000dd4:	4630      	mov	r0, r6
 8000dd6:	f001 fb77 	bl	80024c8 <HAL_I2C_Mem_Read>
 8000dda:	493f      	ldr	r1, [pc, #252]	@ (8000ed8 <read_acceleration_xyz+0x190>)
 8000ddc:	f000 fb3a 	bl	8001454 <send_reg_log>

	int16_t y_val = raw_val[1] << 8 | raw_val[0];
 8000de0:	f8bd 301e 	ldrh.w	r3, [sp, #30]
 8000de4:	021b      	lsls	r3, r3, #8
 8000de6:	b21b      	sxth	r3, r3
 8000de8:	f9bd 201c 	ldrsh.w	r2, [sp, #28]
 8000dec:	4313      	orrs	r3, r2
 8000dee:	9305      	str	r3, [sp, #20]
	raw_val[0] = raw_val[1] = 0;
 8000df0:	f8ad 901e 	strh.w	r9, [sp, #30]
 8000df4:	f8ad 901c 	strh.w	r9, [sp, #28]
  
	send_reg_log(HAL_I2C_Mem_Read(&hi2c1, dev_address, 0x2C, I2C_MEMADD_SIZE_8BIT, (uint8_t*)raw_val, 1, timeout_default), "OUTZ_L_XL");
 8000df8:	9702      	str	r7, [sp, #8]
 8000dfa:	9401      	str	r4, [sp, #4]
 8000dfc:	f8cd b000 	str.w	fp, [sp]
 8000e00:	4623      	mov	r3, r4
 8000e02:	222c      	movs	r2, #44	@ 0x2c
 8000e04:	21d4      	movs	r1, #212	@ 0xd4
 8000e06:	4630      	mov	r0, r6
 8000e08:	f001 fb5e 	bl	80024c8 <HAL_I2C_Mem_Read>
 8000e0c:	4933      	ldr	r1, [pc, #204]	@ (8000edc <read_acceleration_xyz+0x194>)
 8000e0e:	f000 fb21 	bl	8001454 <send_reg_log>
	send_reg_log(HAL_I2C_Mem_Read(&hi2c1, dev_address, 0x2D, I2C_MEMADD_SIZE_8BIT, (uint8_t*)raw_val+1, 1, timeout_default), "OUTZ_H_XL");
 8000e12:	9702      	str	r7, [sp, #8]
 8000e14:	9401      	str	r4, [sp, #4]
 8000e16:	f8cd a000 	str.w	sl, [sp]
 8000e1a:	4623      	mov	r3, r4
 8000e1c:	222d      	movs	r2, #45	@ 0x2d
 8000e1e:	21d4      	movs	r1, #212	@ 0xd4
 8000e20:	4630      	mov	r0, r6
 8000e22:	f001 fb51 	bl	80024c8 <HAL_I2C_Mem_Read>
 8000e26:	492e      	ldr	r1, [pc, #184]	@ (8000ee0 <read_acceleration_xyz+0x198>)
 8000e28:	f000 fb14 	bl	8001454 <send_reg_log>

	int16_t z_val = raw_val[1] << 8 | raw_val[0];
 8000e2c:	f8bd 401e 	ldrh.w	r4, [sp, #30]
 8000e30:	0224      	lsls	r4, r4, #8
 8000e32:	b224      	sxth	r4, r4
 8000e34:	f9bd 301c 	ldrsh.w	r3, [sp, #28]
 8000e38:	431c      	orrs	r4, r3

	buffer_xyz[0] = ((double)x_val * 0.488/1000)*9.81;
 8000e3a:	4628      	mov	r0, r5
 8000e3c:	f7ff fb5a 	bl	80004f4 <__aeabi_i2d>
 8000e40:	a31d      	add	r3, pc, #116	@ (adr r3, 8000eb8 <read_acceleration_xyz+0x170>)
 8000e42:	e9d3 2300 	ldrd	r2, r3, [r3]
 8000e46:	f7ff fbbf 	bl	80005c8 <__aeabi_dmul>
 8000e4a:	2200      	movs	r2, #0
 8000e4c:	4b25      	ldr	r3, [pc, #148]	@ (8000ee4 <read_acceleration_xyz+0x19c>)
 8000e4e:	f7ff fce5 	bl	800081c <__aeabi_ddiv>
 8000e52:	a31b      	add	r3, pc, #108	@ (adr r3, 8000ec0 <read_acceleration_xyz+0x178>)
 8000e54:	e9d3 2300 	ldrd	r2, r3, [r3]
 8000e58:	f7ff fbb6 	bl	80005c8 <__aeabi_dmul>
 8000e5c:	e9c8 0100 	strd	r0, r1, [r8]
	buffer_xyz[1] = ((double)y_val * 0.488/1000)*9.81;
 8000e60:	9805      	ldr	r0, [sp, #20]
 8000e62:	f7ff fb47 	bl	80004f4 <__aeabi_i2d>
 8000e66:	a314      	add	r3, pc, #80	@ (adr r3, 8000eb8 <read_acceleration_xyz+0x170>)
 8000e68:	e9d3 2300 	ldrd	r2, r3, [r3]
 8000e6c:	f7ff fbac 	bl	80005c8 <__aeabi_dmul>
 8000e70:	2200      	movs	r2, #0
 8000e72:	4b1c      	ldr	r3, [pc, #112]	@ (8000ee4 <read_acceleration_xyz+0x19c>)
 8000e74:	f7ff fcd2 	bl	800081c <__aeabi_ddiv>
 8000e78:	a311      	add	r3, pc, #68	@ (adr r3, 8000ec0 <read_acceleration_xyz+0x178>)
 8000e7a:	e9d3 2300 	ldrd	r2, r3, [r3]
 8000e7e:	f7ff fba3 	bl	80005c8 <__aeabi_dmul>
 8000e82:	e9c8 0102 	strd	r0, r1, [r8, #8]
	buffer_xyz[2] = ((double)z_val * 0.488/1000)*9.81;
 8000e86:	4620      	mov	r0, r4
 8000e88:	f7ff fb34 	bl	80004f4 <__aeabi_i2d>
 8000e8c:	a30a      	add	r3, pc, #40	@ (adr r3, 8000eb8 <read_acceleration_xyz+0x170>)
 8000e8e:	e9d3 2300 	ldrd	r2, r3, [r3]
 8000e92:	f7ff fb99 	bl	80005c8 <__aeabi_dmul>
 8000e96:	2200      	movs	r2, #0
 8000e98:	4b12      	ldr	r3, [pc, #72]	@ (8000ee4 <read_acceleration_xyz+0x19c>)
 8000e9a:	f7ff fcbf 	bl	800081c <__aeabi_ddiv>
 8000e9e:	a308      	add	r3, pc, #32	@ (adr r3, 8000ec0 <read_acceleration_xyz+0x178>)
 8000ea0:	e9d3 2300 	ldrd	r2, r3, [r3]
 8000ea4:	f7ff fb90 	bl	80005c8 <__aeabi_dmul>
 8000ea8:	e9c8 0104 	strd	r0, r1, [r8, #16]
 8000eac:	b009      	add	sp, #36	@ 0x24
 8000eae:	e8bd 8ff0 	ldmia.w	sp!, {r4, r5, r6, r7, r8, r9, sl, fp, pc}
 8000eb2:	bf00      	nop
 8000eb4:	f3af 8000 	nop.w
 8000eb8:	5a1cac08 	.word	0x5a1cac08
 8000ebc:	3fdf3b64 	.word	0x3fdf3b64
 8000ec0:	51eb851f 	.word	0x51eb851f
 8000ec4:	40239eb8 	.word	0x40239eb8
 8000ec8:	2000020c 	.word	0x2000020c
 8000ecc:	08006e8c 	.word	0x08006e8c
 8000ed0:	08006e98 	.word	0x08006e98
 8000ed4:	08006ea4 	.word	0x08006ea4
 8000ed8:	08006eb0 	.word	0x08006eb0
 8000edc:	08006ebc 	.word	0x08006ebc
 8000ee0:	08006ec8 	.word	0x08006ec8
 8000ee4:	408f4000 	.word	0x408f4000

08000ee8 <check_barometer_identity>:
    int32_t actual_temp = bmp280_compensate_T_int32(temp_raw_32);
	return actual_temp;
}

short check_barometer_identity()
{
 8000ee8:	b500      	push	{lr}
 8000eea:	b087      	sub	sp, #28
	uint16_t Register_ID = 0xD0; //Адрес регистра в котором хранится значение ID
	uint8_t Data[1]; //Массив в котором МЫ будем хранить данные с регистра устройства
	uint16_t Size_ = 1; //Длина запрашиваемых данных, 1 байт = 1 регистр

	HAL_I2C_Mem_Read(&hi2c1, dev_address, Register_ID, I2C_MEMADD_SIZE_8BIT, Data, Size_, timeout_default);
 8000eec:	23ff      	movs	r3, #255	@ 0xff
 8000eee:	9302      	str	r3, [sp, #8]
 8000ef0:	2301      	movs	r3, #1
 8000ef2:	9301      	str	r3, [sp, #4]
 8000ef4:	aa05      	add	r2, sp, #20
 8000ef6:	9200      	str	r2, [sp, #0]
 8000ef8:	22d0      	movs	r2, #208	@ 0xd0
 8000efa:	21ec      	movs	r1, #236	@ 0xec
 8000efc:	4806      	ldr	r0, [pc, #24]	@ (8000f18 <check_barometer_identity+0x30>)
 8000efe:	f001 fae3 	bl	80024c8 <HAL_I2C_Mem_Read>
	if (Data[0] == 0x58)
 8000f02:	f89d 3014 	ldrb.w	r3, [sp, #20]
 8000f06:	2b58      	cmp	r3, #88	@ 0x58
 8000f08:	d003      	beq.n	8000f12 <check_barometer_identity+0x2a>
	{
        return 1;
	} else
	{
        return 0;
 8000f0a:	2000      	movs	r0, #0
	}

    return 0;
}
 8000f0c:	b007      	add	sp, #28
 8000f0e:	f85d fb04 	ldr.w	pc, [sp], #4
        return 1;
 8000f12:	2001      	movs	r0, #1
 8000f14:	e7fa      	b.n	8000f0c <check_barometer_identity+0x24>
 8000f16:	bf00      	nop
 8000f18:	2000020c 	.word	0x2000020c

08000f1c <read_dig_variables>:

void read_dig_variables()
{
 8000f1c:	b570      	push	{r4, r5, r6, lr}
 8000f1e:	b084      	sub	sp, #16
  send_reg_log(HAL_I2C_Mem_Read(&hi2c1, dev_address, 0x88, I2C_MEMADD_SIZE_8BIT, (uint8_t *)&dig_T1, 2, timeout_default), "dig_T1");
 8000f20:	4c50      	ldr	r4, [pc, #320]	@ (8001064 <read_dig_variables+0x148>)
 8000f22:	26ff      	movs	r6, #255	@ 0xff
 8000f24:	9602      	str	r6, [sp, #8]
 8000f26:	2502      	movs	r5, #2
 8000f28:	9501      	str	r5, [sp, #4]
 8000f2a:	4b4f      	ldr	r3, [pc, #316]	@ (8001068 <read_dig_variables+0x14c>)
 8000f2c:	9300      	str	r3, [sp, #0]
 8000f2e:	2301      	movs	r3, #1
 8000f30:	2288      	movs	r2, #136	@ 0x88
 8000f32:	21ec      	movs	r1, #236	@ 0xec
 8000f34:	4620      	mov	r0, r4
 8000f36:	f001 fac7 	bl	80024c8 <HAL_I2C_Mem_Read>
 8000f3a:	494c      	ldr	r1, [pc, #304]	@ (800106c <read_dig_variables+0x150>)
 8000f3c:	f000 fa8a 	bl	8001454 <send_reg_log>
  send_reg_log(HAL_I2C_Mem_Read(&hi2c1, dev_address, 0x8A, I2C_MEMADD_SIZE_8BIT, (uint8_t *)&dig_T2, 2, timeout_default), "dig_T2");
 8000f40:	9602      	str	r6, [sp, #8]
 8000f42:	9501      	str	r5, [sp, #4]
 8000f44:	4b4a      	ldr	r3, [pc, #296]	@ (8001070 <read_dig_variables+0x154>)
 8000f46:	9300      	str	r3, [sp, #0]
 8000f48:	2301      	movs	r3, #1
 8000f4a:	228a      	movs	r2, #138	@ 0x8a
 8000f4c:	21ec      	movs	r1, #236	@ 0xec
 8000f4e:	4620      	mov	r0, r4
 8000f50:	f001 faba 	bl	80024c8 <HAL_I2C_Mem_Read>
 8000f54:	4947      	ldr	r1, [pc, #284]	@ (8001074 <read_dig_variables+0x158>)
 8000f56:	f000 fa7d 	bl	8001454 <send_reg_log>
  send_reg_log(HAL_I2C_Mem_Read(&hi2c1, dev_address, 0x8C, I2C_MEMADD_SIZE_8BIT, (uint8_t *)&dig_T3, 2, timeout_default), "dig_T3");
 8000f5a:	9602      	str	r6, [sp, #8]
 8000f5c:	9501      	str	r5, [sp, #4]
 8000f5e:	4b46      	ldr	r3, [pc, #280]	@ (8001078 <read_dig_variables+0x15c>)
 8000f60:	9300      	str	r3, [sp, #0]
 8000f62:	2301      	movs	r3, #1
 8000f64:	228c      	movs	r2, #140	@ 0x8c
 8000f66:	21ec      	movs	r1, #236	@ 0xec
 8000f68:	4620      	mov	r0, r4
 8000f6a:	f001 faad 	bl	80024c8 <HAL_I2C_Mem_Read>
 8000f6e:	4943      	ldr	r1, [pc, #268]	@ (800107c <read_dig_variables+0x160>)
 8000f70:	f000 fa70 	bl	8001454 <send_reg_log>
  
  send_reg_log(HAL_I2C_Mem_Read(&hi2c1, dev_address, 0x8E, I2C_MEMADD_SIZE_8BIT, (uint8_t *)&dig_P1, 2, timeout_default), "dig_P1");
 8000f74:	9602      	str	r6, [sp, #8]
 8000f76:	9501      	str	r5, [sp, #4]
 8000f78:	4b41      	ldr	r3, [pc, #260]	@ (8001080 <read_dig_variables+0x164>)
 8000f7a:	9300      	str	r3, [sp, #0]
 8000f7c:	2301      	movs	r3, #1
 8000f7e:	228e      	movs	r2, #142	@ 0x8e
 8000f80:	21ec      	movs	r1, #236	@ 0xec
 8000f82:	4620      	mov	r0, r4
 8000f84:	f001 faa0 	bl	80024c8 <HAL_I2C_Mem_Read>
 8000f88:	493e      	ldr	r1, [pc, #248]	@ (8001084 <read_dig_variables+0x168>)
 8000f8a:	f000 fa63 	bl	8001454 <send_reg_log>
  send_reg_log(HAL_I2C_Mem_Read(&hi2c1, dev_address, 0x90, I2C_MEMADD_SIZE_8BIT, (uint8_t *)&dig_P2, 2, timeout_default), "dig_P2");
 8000f8e:	9602      	str	r6, [sp, #8]
 8000f90:	9501      	str	r5, [sp, #4]
 8000f92:	4b3d      	ldr	r3, [pc, #244]	@ (8001088 <read_dig_variables+0x16c>)
 8000f94:	9300      	str	r3, [sp, #0]
 8000f96:	2301      	movs	r3, #1
 8000f98:	2290      	movs	r2, #144	@ 0x90
 8000f9a:	21ec      	movs	r1, #236	@ 0xec
 8000f9c:	4620      	mov	r0, r4
 8000f9e:	f001 fa93 	bl	80024c8 <HAL_I2C_Mem_Read>
 8000fa2:	493a      	ldr	r1, [pc, #232]	@ (800108c <read_dig_variables+0x170>)
 8000fa4:	f000 fa56 	bl	8001454 <send_reg_log>
  send_reg_log(HAL_I2C_Mem_Read(&hi2c1, dev_address, 0x92, I2C_MEMADD_SIZE_8BIT, (uint8_t *)&dig_P3, 2, timeout_default), "dig_P3");
 8000fa8:	9602      	str	r6, [sp, #8]
 8000faa:	9501      	str	r5, [sp, #4]
 8000fac:	4b38      	ldr	r3, [pc, #224]	@ (8001090 <read_dig_variables+0x174>)
 8000fae:	9300      	str	r3, [sp, #0]
 8000fb0:	2301      	movs	r3, #1
 8000fb2:	2292      	movs	r2, #146	@ 0x92
 8000fb4:	21ec      	movs	r1, #236	@ 0xec
 8000fb6:	4620      	mov	r0, r4
 8000fb8:	f001 fa86 	bl	80024c8 <HAL_I2C_Mem_Read>
 8000fbc:	4935      	ldr	r1, [pc, #212]	@ (8001094 <read_dig_variables+0x178>)
 8000fbe:	f000 fa49 	bl	8001454 <send_reg_log>
  send_reg_log(HAL_I2C_Mem_Read(&hi2c1, dev_address, 0x94, I2C_MEMADD_SIZE_8BIT, (uint8_t *)&dig_P4, 2, timeout_default), "dig_P4");
 8000fc2:	9602      	str	r6, [sp, #8]
 8000fc4:	9501      	str	r5, [sp, #4]
 8000fc6:	4b34      	ldr	r3, [pc, #208]	@ (8001098 <read_dig_variables+0x17c>)
 8000fc8:	9300      	str	r3, [sp, #0]
 8000fca:	2301      	movs	r3, #1
 8000fcc:	2294      	movs	r2, #148	@ 0x94
 8000fce:	21ec      	movs	r1, #236	@ 0xec
 8000fd0:	4620      	mov	r0, r4
 8000fd2:	f001 fa79 	bl	80024c8 <HAL_I2C_Mem_Read>
 8000fd6:	4931      	ldr	r1, [pc, #196]	@ (800109c <read_dig_variables+0x180>)
 8000fd8:	f000 fa3c 	bl	8001454 <send_reg_log>
  send_reg_log(HAL_I2C_Mem_Read(&hi2c1, dev_address, 0x96, I2C_MEMADD_SIZE_8BIT, (uint8_t *)&dig_P5, 2, timeout_default), "dig_P5");
 8000fdc:	9602      	str	r6, [sp, #8]
 8000fde:	9501      	str	r5, [sp, #4]
 8000fe0:	4b2f      	ldr	r3, [pc, #188]	@ (80010a0 <read_dig_variables+0x184>)
 8000fe2:	9300      	str	r3, [sp, #0]
 8000fe4:	2301      	movs	r3, #1
 8000fe6:	2296      	movs	r2, #150	@ 0x96
 8000fe8:	21ec      	movs	r1, #236	@ 0xec
 8000fea:	4620      	mov	r0, r4
 8000fec:	f001 fa6c 	bl	80024c8 <HAL_I2C_Mem_Read>
 8000ff0:	492c      	ldr	r1, [pc, #176]	@ (80010a4 <read_dig_variables+0x188>)
 8000ff2:	f000 fa2f 	bl	8001454 <send_reg_log>
  send_reg_log(HAL_I2C_Mem_Read(&hi2c1, dev_address, 0x98, I2C_MEMADD_SIZE_8BIT, (uint8_t *)&dig_P6, 2, timeout_default), "dig_P6");
 8000ff6:	9602      	str	r6, [sp, #8]
 8000ff8:	9501      	str	r5, [sp, #4]
 8000ffa:	4b2b      	ldr	r3, [pc, #172]	@ (80010a8 <read_dig_variables+0x18c>)
 8000ffc:	9300      	str	r3, [sp, #0]
 8000ffe:	2301      	movs	r3, #1
 8001000:	2298      	movs	r2, #152	@ 0x98
 8001002:	21ec      	movs	r1, #236	@ 0xec
 8001004:	4620      	mov	r0, r4
 8001006:	f001 fa5f 	bl	80024c8 <HAL_I2C_Mem_Read>
 800100a:	4928      	ldr	r1, [pc, #160]	@ (80010ac <read_dig_variables+0x190>)
 800100c:	f000 fa22 	bl	8001454 <send_reg_log>
  send_reg_log(HAL_I2C_Mem_Read(&hi2c1, dev_address, 0x9A, I2C_MEMADD_SIZE_8BIT, (uint8_t *)&dig_P7, 2, timeout_default), "dig_P7");
 8001010:	9602      	str	r6, [sp, #8]
 8001012:	9501      	str	r5, [sp, #4]
 8001014:	4b26      	ldr	r3, [pc, #152]	@ (80010b0 <read_dig_variables+0x194>)
 8001016:	9300      	str	r3, [sp, #0]
 8001018:	2301      	movs	r3, #1
 800101a:	229a      	movs	r2, #154	@ 0x9a
 800101c:	21ec      	movs	r1, #236	@ 0xec
 800101e:	4620      	mov	r0, r4
 8001020:	f001 fa52 	bl	80024c8 <HAL_I2C_Mem_Read>
 8001024:	4923      	ldr	r1, [pc, #140]	@ (80010b4 <read_dig_variables+0x198>)
 8001026:	f000 fa15 	bl	8001454 <send_reg_log>
  send_reg_log(HAL_I2C_Mem_Read(&hi2c1, dev_address, 0x9C, I2C_MEMADD_SIZE_8BIT, (uint8_t *)&dig_P8, 2, timeout_default), "dig_P8");
 800102a:	9602      	str	r6, [sp, #8]
 800102c:	9501      	str	r5, [sp, #4]
 800102e:	4b22      	ldr	r3, [pc, #136]	@ (80010b8 <read_dig_variables+0x19c>)
 8001030:	9300      	str	r3, [sp, #0]
 8001032:	2301      	movs	r3, #1
 8001034:	229c      	movs	r2, #156	@ 0x9c
 8001036:	21ec      	movs	r1, #236	@ 0xec
 8001038:	4620      	mov	r0, r4
 800103a:	f001 fa45 	bl	80024c8 <HAL_I2C_Mem_Read>
 800103e:	491f      	ldr	r1, [pc, #124]	@ (80010bc <read_dig_variables+0x1a0>)
 8001040:	f000 fa08 	bl	8001454 <send_reg_log>
  send_reg_log(HAL_I2C_Mem_Read(&hi2c1, dev_address, 0x9E, I2C_MEMADD_SIZE_8BIT, (uint8_t *)&dig_P9, 2, timeout_default), "dig_P9");
 8001044:	9602      	str	r6, [sp, #8]
 8001046:	9501      	str	r5, [sp, #4]
 8001048:	4b1d      	ldr	r3, [pc, #116]	@ (80010c0 <read_dig_variables+0x1a4>)
 800104a:	9300      	str	r3, [sp, #0]
 800104c:	2301      	movs	r3, #1
 800104e:	229e      	movs	r2, #158	@ 0x9e
 8001050:	21ec      	movs	r1, #236	@ 0xec
 8001052:	4620      	mov	r0, r4
 8001054:	f001 fa38 	bl	80024c8 <HAL_I2C_Mem_Read>
 8001058:	491a      	ldr	r1, [pc, #104]	@ (80010c4 <read_dig_variables+0x1a8>)
 800105a:	f000 f9fb 	bl	8001454 <send_reg_log>
}
 800105e:	b004      	add	sp, #16
 8001060:	bd70      	pop	{r4, r5, r6, pc}
 8001062:	bf00      	nop
 8001064:	2000020c 	.word	0x2000020c
 8001068:	2000020a 	.word	0x2000020a
 800106c:	08006ed4 	.word	0x08006ed4
 8001070:	20000208 	.word	0x20000208
 8001074:	08006edc 	.word	0x08006edc
 8001078:	20000206 	.word	0x20000206
 800107c:	08006ee4 	.word	0x08006ee4
 8001080:	20000204 	.word	0x20000204
 8001084:	08006eec 	.word	0x08006eec
 8001088:	20000202 	.word	0x20000202
 800108c:	08006ef4 	.word	0x08006ef4
 8001090:	20000200 	.word	0x20000200
 8001094:	08006efc 	.word	0x08006efc
 8001098:	200001fe 	.word	0x200001fe
 800109c:	08006f04 	.word	0x08006f04
 80010a0:	200001fc 	.word	0x200001fc
 80010a4:	08006f0c 	.word	0x08006f0c
 80010a8:	200001fa 	.word	0x200001fa
 80010ac:	08006f14 	.word	0x08006f14
 80010b0:	200001f8 	.word	0x200001f8
 80010b4:	08006f1c 	.word	0x08006f1c
 80010b8:	200001f6 	.word	0x200001f6
 80010bc:	08006f24 	.word	0x08006f24
 80010c0:	200001f4 	.word	0x200001f4
 80010c4:	08006f2c 	.word	0x08006f2c

080010c8 <barometer_power_on>:

short barometer_power_on()
{
 80010c8:	b500      	push	{lr}
 80010ca:	b087      	sub	sp, #28
	read_dig_variables();
 80010cc:	f7ff ff26 	bl	8000f1c <read_dig_variables>

	//datasheet page 25, register ctrl_meas
	uint8_t ctrl_meas = 0b01001001;
 80010d0:	2349      	movs	r3, #73	@ 0x49
 80010d2:	f88d 3017 	strb.w	r3, [sp, #23]
	send_reg_log(HAL_I2C_Mem_Write(&hi2c1, dev_address, 0xF4, I2C_MEMADD_SIZE_8BIT, &ctrl_meas, 1, timeout_default), "ctrl_meas");
 80010d6:	23ff      	movs	r3, #255	@ 0xff
 80010d8:	9302      	str	r3, [sp, #8]
 80010da:	2301      	movs	r3, #1
 80010dc:	9301      	str	r3, [sp, #4]
 80010de:	f10d 0217 	add.w	r2, sp, #23
 80010e2:	9200      	str	r2, [sp, #0]
 80010e4:	22f4      	movs	r2, #244	@ 0xf4
 80010e6:	21ec      	movs	r1, #236	@ 0xec
 80010e8:	4804      	ldr	r0, [pc, #16]	@ (80010fc <barometer_power_on+0x34>)
 80010ea:	f001 f93d 	bl	8002368 <HAL_I2C_Mem_Write>
 80010ee:	4904      	ldr	r1, [pc, #16]	@ (8001100 <barometer_power_on+0x38>)
 80010f0:	f000 f9b0 	bl	8001454 <send_reg_log>

    return 0;
}
 80010f4:	2000      	movs	r0, #0
 80010f6:	b007      	add	sp, #28
 80010f8:	f85d fb04 	ldr.w	pc, [sp], #4
 80010fc:	2000020c 	.word	0x2000020c
 8001100:	08006e80 	.word	0x08006e80

08001104 <bmp280_compensate_T_int32>:

static int32_t t_fine;
int32_t bmp280_compensate_T_int32(int32_t adc_T)
{
	int32_t var1, var2, T;
	var1 = ((((adc_T>>3) - ((int32_t)dig_T1<<1))) * ((int32_t)dig_T2)) >> 11;
 8001104:	4b0e      	ldr	r3, [pc, #56]	@ (8001140 <bmp280_compensate_T_int32+0x3c>)
 8001106:	881b      	ldrh	r3, [r3, #0]
 8001108:	005a      	lsls	r2, r3, #1
 800110a:	ebc2 02e0 	rsb	r2, r2, r0, asr #3
 800110e:	490d      	ldr	r1, [pc, #52]	@ (8001144 <bmp280_compensate_T_int32+0x40>)
 8001110:	f9b1 1000 	ldrsh.w	r1, [r1]
 8001114:	fb01 f202 	mul.w	r2, r1, r2
	var2 = (((((adc_T>>4) - ((int32_t)dig_T1)) * ((adc_T>>4) - ((int32_t)dig_T1)))
 8001118:	ebc3 1020 	rsb	r0, r3, r0, asr #4
 800111c:	fb00 f000 	mul.w	r0, r0, r0
	>> 12) *
 8001120:	1300      	asrs	r0, r0, #12
	((int32_t)dig_T3)) >> 14;
 8001122:	4b09      	ldr	r3, [pc, #36]	@ (8001148 <bmp280_compensate_T_int32+0x44>)
 8001124:	f9b3 3000 	ldrsh.w	r3, [r3]
	>> 12) *
 8001128:	fb03 f000 	mul.w	r0, r3, r0
	var2 = (((((adc_T>>4) - ((int32_t)dig_T1)) * ((adc_T>>4) - ((int32_t)dig_T1)))
 800112c:	1380      	asrs	r0, r0, #14
	t_fine = var1 + var2;
 800112e:	eb00 20e2 	add.w	r0, r0, r2, asr #11
 8001132:	4b06      	ldr	r3, [pc, #24]	@ (800114c <bmp280_compensate_T_int32+0x48>)
 8001134:	6018      	str	r0, [r3, #0]
	T = (t_fine * 5 + 128) >> 8;
 8001136:	eb00 0080 	add.w	r0, r0, r0, lsl #2
 800113a:	3080      	adds	r0, #128	@ 0x80
	return T;
}
 800113c:	1200      	asrs	r0, r0, #8
 800113e:	4770      	bx	lr
 8001140:	2000020a 	.word	0x2000020a
 8001144:	20000208 	.word	0x20000208
 8001148:	20000206 	.word	0x20000206
 800114c:	200001f0 	.word	0x200001f0

08001150 <read_temp>:
{
 8001150:	b570      	push	{r4, r5, r6, lr}
 8001152:	b086      	sub	sp, #24
    temp_raw[0] = temp_raw[1] = temp_raw[2]  = 0;
 8001154:	2300      	movs	r3, #0
 8001156:	f88d 3016 	strb.w	r3, [sp, #22]
 800115a:	f88d 3015 	strb.w	r3, [sp, #21]
 800115e:	f88d 3014 	strb.w	r3, [sp, #20]
    send_reg_log(HAL_I2C_Mem_Read(&hi2c1, dev_address, 0xFA, I2C_MEMADD_SIZE_8BIT, temp_raw, 1, timeout_default), "temp_msb");
 8001162:	4d1d      	ldr	r5, [pc, #116]	@ (80011d8 <read_temp+0x88>)
 8001164:	26ff      	movs	r6, #255	@ 0xff
 8001166:	9602      	str	r6, [sp, #8]
 8001168:	2401      	movs	r4, #1
 800116a:	9401      	str	r4, [sp, #4]
 800116c:	ab05      	add	r3, sp, #20
 800116e:	9300      	str	r3, [sp, #0]
 8001170:	4623      	mov	r3, r4
 8001172:	22fa      	movs	r2, #250	@ 0xfa
 8001174:	21ec      	movs	r1, #236	@ 0xec
 8001176:	4628      	mov	r0, r5
 8001178:	f001 f9a6 	bl	80024c8 <HAL_I2C_Mem_Read>
 800117c:	4917      	ldr	r1, [pc, #92]	@ (80011dc <read_temp+0x8c>)
 800117e:	f000 f969 	bl	8001454 <send_reg_log>
    send_reg_log(HAL_I2C_Mem_Read(&hi2c1, dev_address, 0xFB, I2C_MEMADD_SIZE_8BIT, temp_raw+1, 1, timeout_default), "temp_lsb");
 8001182:	9602      	str	r6, [sp, #8]
 8001184:	9401      	str	r4, [sp, #4]
 8001186:	f10d 0315 	add.w	r3, sp, #21
 800118a:	9300      	str	r3, [sp, #0]
 800118c:	4623      	mov	r3, r4
 800118e:	22fb      	movs	r2, #251	@ 0xfb
 8001190:	21ec      	movs	r1, #236	@ 0xec
 8001192:	4628      	mov	r0, r5
 8001194:	f001 f998 	bl	80024c8 <HAL_I2C_Mem_Read>
 8001198:	4911      	ldr	r1, [pc, #68]	@ (80011e0 <read_temp+0x90>)
 800119a:	f000 f95b 	bl	8001454 <send_reg_log>
    send_reg_log(HAL_I2C_Mem_Read(&hi2c1, dev_address, 0xFC, I2C_MEMADD_SIZE_8BIT, temp_raw+2, 1, timeout_default), "temp_xlsb");
 800119e:	9602      	str	r6, [sp, #8]
 80011a0:	9401      	str	r4, [sp, #4]
 80011a2:	f10d 0316 	add.w	r3, sp, #22
 80011a6:	9300      	str	r3, [sp, #0]
 80011a8:	4623      	mov	r3, r4
 80011aa:	22fc      	movs	r2, #252	@ 0xfc
 80011ac:	21ec      	movs	r1, #236	@ 0xec
 80011ae:	4628      	mov	r0, r5
 80011b0:	f001 f98a 	bl	80024c8 <HAL_I2C_Mem_Read>
 80011b4:	490b      	ldr	r1, [pc, #44]	@ (80011e4 <read_temp+0x94>)
 80011b6:	f000 f94d 	bl	8001454 <send_reg_log>
    int32_t temp_raw_32 = (int32_t) ( ((uint32_t)temp_raw[0] << 12) | ((uint32_t)temp_raw[1] << 4) | ((uint32_t)temp_raw[2] >> 4) );
 80011ba:	f89d 2014 	ldrb.w	r2, [sp, #20]
 80011be:	f89d 3015 	ldrb.w	r3, [sp, #21]
 80011c2:	011b      	lsls	r3, r3, #4
 80011c4:	ea43 3302 	orr.w	r3, r3, r2, lsl #12
 80011c8:	f89d 0016 	ldrb.w	r0, [sp, #22]
    int32_t actual_temp = bmp280_compensate_T_int32(temp_raw_32);
 80011cc:	ea43 1010 	orr.w	r0, r3, r0, lsr #4
 80011d0:	f7ff ff98 	bl	8001104 <bmp280_compensate_T_int32>
}
 80011d4:	b006      	add	sp, #24
 80011d6:	bd70      	pop	{r4, r5, r6, pc}
 80011d8:	2000020c 	.word	0x2000020c
 80011dc:	08006f34 	.word	0x08006f34
 80011e0:	08006f40 	.word	0x08006f40
 80011e4:	08006f4c 	.word	0x08006f4c

080011e8 <bmp280_compensate_P_int64>:

uint32_t bmp280_compensate_P_int64(int32_t adc_P)
{
 80011e8:	b5f8      	push	{r3, r4, r5, r6, r7, lr}
	int64_t var1, var2, p;
	var1 = ((int64_t)t_fine) - 128000;
 80011ea:	4b66      	ldr	r3, [pc, #408]	@ (8001384 <bmp280_compensate_P_int64+0x19c>)
 80011ec:	6819      	ldr	r1, [r3, #0]
 80011ee:	17cb      	asrs	r3, r1, #31
 80011f0:	f5b1 31fa 	subs.w	r1, r1, #128000	@ 0x1f400
 80011f4:	f143 33ff 	adc.w	r3, r3, #4294967295	@ 0xffffffff
	var2 = var1 * var1 * (int64_t)dig_P6;
 80011f8:	fb01 f403 	mul.w	r4, r1, r3
 80011fc:	fba1 2601 	umull	r2, r6, r1, r1
 8001200:	eb06 0644 	add.w	r6, r6, r4, lsl #1
 8001204:	4c60      	ldr	r4, [pc, #384]	@ (8001388 <bmp280_compensate_P_int64+0x1a0>)
 8001206:	f9b4 5000 	ldrsh.w	r5, [r4]
 800120a:	17ec      	asrs	r4, r5, #31
 800120c:	fb02 f404 	mul.w	r4, r2, r4
 8001210:	fb05 4406 	mla	r4, r5, r6, r4
 8001214:	fba2 7505 	umull	r7, r5, r2, r5
 8001218:	442c      	add	r4, r5
	var2 = var2 + ((var1*(int64_t)dig_P5)<<17);
 800121a:	4d5c      	ldr	r5, [pc, #368]	@ (800138c <bmp280_compensate_P_int64+0x1a4>)
 800121c:	f9b5 c000 	ldrsh.w	ip, [r5]
 8001220:	ea4f 75ec 	mov.w	r5, ip, asr #31
 8001224:	fb0c fe03 	mul.w	lr, ip, r3
 8001228:	fb01 ee05 	mla	lr, r1, r5, lr
 800122c:	fbac c501 	umull	ip, r5, ip, r1
 8001230:	44ae      	add	lr, r5
 8001232:	ea4f 4e4e 	mov.w	lr, lr, lsl #17
 8001236:	ea4e 3edc 	orr.w	lr, lr, ip, lsr #15
 800123a:	ea4f 4c4c 	mov.w	ip, ip, lsl #17
 800123e:	eb1c 0c07 	adds.w	ip, ip, r7
 8001242:	eb44 040e 	adc.w	r4, r4, lr
	var2 = var2 + (((int64_t)dig_P4)<<35);
 8001246:	4d52      	ldr	r5, [pc, #328]	@ (8001390 <bmp280_compensate_P_int64+0x1a8>)
 8001248:	f9b5 5000 	ldrsh.w	r5, [r5]
 800124c:	eb04 04c5 	add.w	r4, r4, r5, lsl #3
	var1 = ((var1 * var1 * (int64_t)dig_P3)>>8) + ((var1 * (int64_t)dig_P2)<<12);
 8001250:	4d50      	ldr	r5, [pc, #320]	@ (8001394 <bmp280_compensate_P_int64+0x1ac>)
 8001252:	f9b5 e000 	ldrsh.w	lr, [r5]
 8001256:	ea4f 75ee 	mov.w	r5, lr, asr #31
 800125a:	fb02 f505 	mul.w	r5, r2, r5
 800125e:	fb0e 5506 	mla	r5, lr, r6, r5
 8001262:	fba2 2e0e 	umull	r2, lr, r2, lr
 8001266:	4475      	add	r5, lr
 8001268:	0a12      	lsrs	r2, r2, #8
 800126a:	ea42 6205 	orr.w	r2, r2, r5, lsl #24
 800126e:	4e4a      	ldr	r6, [pc, #296]	@ (8001398 <bmp280_compensate_P_int64+0x1b0>)
 8001270:	f9b6 e000 	ldrsh.w	lr, [r6]
 8001274:	ea4f 76ee 	mov.w	r6, lr, asr #31
 8001278:	fb0e f303 	mul.w	r3, lr, r3
 800127c:	fb01 3306 	mla	r3, r1, r6, r3
 8001280:	fbae e101 	umull	lr, r1, lr, r1
 8001284:	440b      	add	r3, r1
 8001286:	031b      	lsls	r3, r3, #12
 8001288:	ea43 531e 	orr.w	r3, r3, lr, lsr #20
 800128c:	ea4f 3e0e 	mov.w	lr, lr, lsl #12
 8001290:	eb12 020e 	adds.w	r2, r2, lr
 8001294:	eb43 2325 	adc.w	r3, r3, r5, asr #8
	var1 = (((((int64_t)1)<<47)+var1))*((int64_t)dig_P1)>>33;
 8001298:	f503 4300 	add.w	r3, r3, #32768	@ 0x8000
 800129c:	493f      	ldr	r1, [pc, #252]	@ (800139c <bmp280_compensate_P_int64+0x1b4>)
 800129e:	880d      	ldrh	r5, [r1, #0]
 80012a0:	fba2 2105 	umull	r2, r1, r2, r5
 80012a4:	fb05 1103 	mla	r1, r5, r3, r1
 80012a8:	104a      	asrs	r2, r1, #1
 80012aa:	17cb      	asrs	r3, r1, #31

	if (var1 == 0)
 80012ac:	ea53 0161 	orrs.w	r1, r3, r1, asr #1
 80012b0:	d065      	beq.n	800137e <bmp280_compensate_P_int64+0x196>
	{
		return 0; // avoid exception caused by division by zero
	}

	p = 1048576-adc_P;
 80012b2:	f5c0 1e80 	rsb	lr, r0, #1048576	@ 0x100000
	p = (((p<<31)-var2)*3125)/var1;
 80012b6:	ea4f 016e 	mov.w	r1, lr, asr #1
 80012ba:	ea4f 7ece 	mov.w	lr, lr, lsl #31
 80012be:	ebbe 0e0c 	subs.w	lr, lr, ip
 80012c2:	eb61 0404 	sbc.w	r4, r1, r4
 80012c6:	eb1e 0c0e 	adds.w	ip, lr, lr
 80012ca:	eb44 0104 	adc.w	r1, r4, r4
 80012ce:	eb1c 0c0e 	adds.w	ip, ip, lr
 80012d2:	eb44 0101 	adc.w	r1, r4, r1
 80012d6:	0188      	lsls	r0, r1, #6
 80012d8:	ea40 609c 	orr.w	r0, r0, ip, lsr #26
 80012dc:	ea4f 158c 	mov.w	r5, ip, lsl #6
 80012e0:	eb1c 0c05 	adds.w	ip, ip, r5
 80012e4:	eb41 0100 	adc.w	r1, r1, r0
 80012e8:	0089      	lsls	r1, r1, #2
 80012ea:	ea41 719c 	orr.w	r1, r1, ip, lsr #30
 80012ee:	ea4f 0c8c 	mov.w	ip, ip, lsl #2
 80012f2:	eb1c 0c0e 	adds.w	ip, ip, lr
 80012f6:	eb44 0101 	adc.w	r1, r4, r1
 80012fa:	0089      	lsls	r1, r1, #2
 80012fc:	ea41 719c 	orr.w	r1, r1, ip, lsr #30
 8001300:	ea4f 008c 	mov.w	r0, ip, lsl #2
 8001304:	eb10 000e 	adds.w	r0, r0, lr
 8001308:	eb44 0101 	adc.w	r1, r4, r1
 800130c:	f7ff fc34 	bl	8000b78 <__aeabi_ldivmod>
 8001310:	4603      	mov	r3, r0
	var1 = (((int64_t)dig_P9) * (p>>13) * (p>>13)) >> 25;
 8001312:	4a23      	ldr	r2, [pc, #140]	@ (80013a0 <bmp280_compensate_P_int64+0x1b8>)
 8001314:	f9b2 5000 	ldrsh.w	r5, [r2]
 8001318:	17ef      	asrs	r7, r5, #31
 800131a:	0b42      	lsrs	r2, r0, #13
 800131c:	ea42 42c1 	orr.w	r2, r2, r1, lsl #19
 8001320:	134e      	asrs	r6, r1, #13
 8001322:	fb05 f406 	mul.w	r4, r5, r6
 8001326:	fb02 4407 	mla	r4, r2, r7, r4
 800132a:	fba5 5702 	umull	r5, r7, r5, r2
 800132e:	443c      	add	r4, r7
 8001330:	fb02 f404 	mul.w	r4, r2, r4
 8001334:	fb05 4406 	mla	r4, r5, r6, r4
 8001338:	fba2 2505 	umull	r2, r5, r2, r5
 800133c:	442c      	add	r4, r5
 800133e:	0e52      	lsrs	r2, r2, #25
 8001340:	ea42 12c4 	orr.w	r2, r2, r4, lsl #7
	var2 = (((int64_t)dig_P8) * p) >> 19;
 8001344:	4d17      	ldr	r5, [pc, #92]	@ (80013a4 <bmp280_compensate_P_int64+0x1bc>)
 8001346:	f9b5 5000 	ldrsh.w	r5, [r5]
 800134a:	17ef      	asrs	r7, r5, #31
 800134c:	fb05 f601 	mul.w	r6, r5, r1
 8001350:	fb07 6000 	mla	r0, r7, r0, r6
 8001354:	fba5 5603 	umull	r5, r6, r5, r3
 8001358:	4430      	add	r0, r6
 800135a:	0ced      	lsrs	r5, r5, #19
 800135c:	ea45 3540 	orr.w	r5, r5, r0, lsl #13
	p = ((p + var1 + var2) >> 8) + (((int64_t)dig_P7)<<4);
 8001360:	189b      	adds	r3, r3, r2
 8001362:	eb41 6164 	adc.w	r1, r1, r4, asr #25
 8001366:	195b      	adds	r3, r3, r5
 8001368:	eb41 41e0 	adc.w	r1, r1, r0, asr #19
 800136c:	0a18      	lsrs	r0, r3, #8
 800136e:	ea40 6001 	orr.w	r0, r0, r1, lsl #24
 8001372:	4b0d      	ldr	r3, [pc, #52]	@ (80013a8 <bmp280_compensate_P_int64+0x1c0>)
 8001374:	f9b3 3000 	ldrsh.w	r3, [r3]
	return (uint32_t)p;
 8001378:	eb00 1003 	add.w	r0, r0, r3, lsl #4
 800137c:	bdf8      	pop	{r3, r4, r5, r6, r7, pc}
		return 0; // avoid exception caused by division by zero
 800137e:	2000      	movs	r0, #0
 8001380:	e7fc      	b.n	800137c <bmp280_compensate_P_int64+0x194>
 8001382:	bf00      	nop
 8001384:	200001f0 	.word	0x200001f0
 8001388:	200001fa 	.word	0x200001fa
 800138c:	200001fc 	.word	0x200001fc
 8001390:	200001fe 	.word	0x200001fe
 8001394:	20000200 	.word	0x20000200
 8001398:	20000202 	.word	0x20000202
 800139c:	20000204 	.word	0x20000204
 80013a0:	200001f4 	.word	0x200001f4
 80013a4:	200001f6 	.word	0x200001f6
 80013a8:	200001f8 	.word	0x200001f8

080013ac <read_pressure>:
{
 80013ac:	b570      	push	{r4, r5, r6, lr}
 80013ae:	b086      	sub	sp, #24
    send_reg_log(HAL_I2C_Mem_Read(&hi2c1, dev_address, 0xF7, I2C_MEMADD_SIZE_8BIT, pressure_raw, 1, timeout_default), "press_msb");
 80013b0:	4d1d      	ldr	r5, [pc, #116]	@ (8001428 <read_pressure+0x7c>)
 80013b2:	26ff      	movs	r6, #255	@ 0xff
 80013b4:	9602      	str	r6, [sp, #8]
 80013b6:	2401      	movs	r4, #1
 80013b8:	9401      	str	r4, [sp, #4]
 80013ba:	ab05      	add	r3, sp, #20
 80013bc:	9300      	str	r3, [sp, #0]
 80013be:	4623      	mov	r3, r4
 80013c0:	22f7      	movs	r2, #247	@ 0xf7
 80013c2:	21ec      	movs	r1, #236	@ 0xec
 80013c4:	4628      	mov	r0, r5
 80013c6:	f001 f87f 	bl	80024c8 <HAL_I2C_Mem_Read>
 80013ca:	4918      	ldr	r1, [pc, #96]	@ (800142c <read_pressure+0x80>)
 80013cc:	f000 f842 	bl	8001454 <send_reg_log>
    send_reg_log(HAL_I2C_Mem_Read(&hi2c1, dev_address, 0xF8, I2C_MEMADD_SIZE_8BIT, pressure_raw+1, 1, timeout_default), "press_lsb");
 80013d0:	9602      	str	r6, [sp, #8]
 80013d2:	9401      	str	r4, [sp, #4]
 80013d4:	f10d 0315 	add.w	r3, sp, #21
 80013d8:	9300      	str	r3, [sp, #0]
 80013da:	4623      	mov	r3, r4
 80013dc:	22f8      	movs	r2, #248	@ 0xf8
 80013de:	21ec      	movs	r1, #236	@ 0xec
 80013e0:	4628      	mov	r0, r5
 80013e2:	f001 f871 	bl	80024c8 <HAL_I2C_Mem_Read>
 80013e6:	4912      	ldr	r1, [pc, #72]	@ (8001430 <read_pressure+0x84>)
 80013e8:	f000 f834 	bl	8001454 <send_reg_log>
    send_reg_log(HAL_I2C_Mem_Read(&hi2c1, dev_address, 0xF9, I2C_MEMADD_SIZE_8BIT, pressure_raw+2, 1, timeout_default), "press_xlsb");
 80013ec:	9602      	str	r6, [sp, #8]
 80013ee:	9401      	str	r4, [sp, #4]
 80013f0:	f10d 0316 	add.w	r3, sp, #22
 80013f4:	9300      	str	r3, [sp, #0]
 80013f6:	4623      	mov	r3, r4
 80013f8:	22f9      	movs	r2, #249	@ 0xf9
 80013fa:	21ec      	movs	r1, #236	@ 0xec
 80013fc:	4628      	mov	r0, r5
 80013fe:	f001 f863 	bl	80024c8 <HAL_I2C_Mem_Read>
 8001402:	490c      	ldr	r1, [pc, #48]	@ (8001434 <read_pressure+0x88>)
 8001404:	f000 f826 	bl	8001454 <send_reg_log>
    int32_t pressure_raw_32 = (int32_t) ( ((uint32_t)pressure_raw[0] << 12) | ((uint32_t)pressure_raw[1] << 4) | ((uint32_t)pressure_raw[2] >> 4) );
 8001408:	f89d 2014 	ldrb.w	r2, [sp, #20]
 800140c:	f89d 3015 	ldrb.w	r3, [sp, #21]
 8001410:	011b      	lsls	r3, r3, #4
 8001412:	ea43 3302 	orr.w	r3, r3, r2, lsl #12
 8001416:	f89d 0016 	ldrb.w	r0, [sp, #22]
    uint32_t actual_pressure = bmp280_compensate_P_int64(pressure_raw_32);
 800141a:	ea43 1010 	orr.w	r0, r3, r0, lsr #4
 800141e:	f7ff fee3 	bl	80011e8 <bmp280_compensate_P_int64>
}
 8001422:	b006      	add	sp, #24
 8001424:	bd70      	pop	{r4, r5, r6, pc}
 8001426:	bf00      	nop
 8001428:	2000020c 	.word	0x2000020c
 800142c:	08006f58 	.word	0x08006f58
 8001430:	08006f64 	.word	0x08006f64
 8001434:	08006f70 	.word	0x08006f70

08001438 <send_message>:

  send_message(buffer, PRIORITY_LOW);
}

void send_message(char *msg, Msg_Priority priority)
{
 8001438:	b510      	push	{r4, lr}
 800143a:	4604      	mov	r4, r0
  HAL_UART_Transmit(&huart1, (uint8_t *)msg, strlen(msg), timeout_default);
 800143c:	f7fe ff00 	bl	8000240 <strlen>
 8001440:	23ff      	movs	r3, #255	@ 0xff
 8001442:	b282      	uxth	r2, r0
 8001444:	4621      	mov	r1, r4
 8001446:	4802      	ldr	r0, [pc, #8]	@ (8001450 <send_message+0x18>)
 8001448:	f002 fa47 	bl	80038da <HAL_UART_Transmit>
}
 800144c:	bd10      	pop	{r4, pc}
 800144e:	bf00      	nop
 8001450:	200002b0 	.word	0x200002b0

08001454 <send_reg_log>:
{
 8001454:	b530      	push	{r4, r5, lr}
 8001456:	b09b      	sub	sp, #108	@ 0x6c
  switch (status)
 8001458:	2803      	cmp	r0, #3
 800145a:	d803      	bhi.n	8001464 <send_reg_log+0x10>
 800145c:	e8df f000 	tbb	[pc, r0]
 8001460:	27250429 	.word	0x27250429
 8001464:	2500      	movs	r5, #0
 8001466:	e000      	b.n	800146a <send_reg_log+0x16>
      message = "ERROR";
 8001468:	4d13      	ldr	r5, [pc, #76]	@ (80014b8 <send_reg_log+0x64>)
  strcat(buffer, reg);
 800146a:	ac01      	add	r4, sp, #4
 800146c:	4620      	mov	r0, r4
 800146e:	f003 fa0d 	bl	800488c <strcat>
  strcat(buffer, ": ");
 8001472:	4620      	mov	r0, r4
 8001474:	f7fe fee4 	bl	8000240 <strlen>
 8001478:	1822      	adds	r2, r4, r0
 800147a:	4b10      	ldr	r3, [pc, #64]	@ (80014bc <send_reg_log+0x68>)
 800147c:	8819      	ldrh	r1, [r3, #0]
 800147e:	789b      	ldrb	r3, [r3, #2]
 8001480:	5221      	strh	r1, [r4, r0]
 8001482:	7093      	strb	r3, [r2, #2]
  strcat(buffer, message);
 8001484:	4629      	mov	r1, r5
 8001486:	4620      	mov	r0, r4
 8001488:	f003 fa00 	bl	800488c <strcat>
  strcat(buffer, "\n\r\0");
 800148c:	4620      	mov	r0, r4
 800148e:	f7fe fed7 	bl	8000240 <strlen>
 8001492:	1822      	adds	r2, r4, r0
 8001494:	4b0a      	ldr	r3, [pc, #40]	@ (80014c0 <send_reg_log+0x6c>)
 8001496:	8819      	ldrh	r1, [r3, #0]
 8001498:	789b      	ldrb	r3, [r3, #2]
 800149a:	5221      	strh	r1, [r4, r0]
 800149c:	7093      	strb	r3, [r2, #2]
  send_message(buffer, PRIORITY_LOW);
 800149e:	2100      	movs	r1, #0
 80014a0:	4620      	mov	r0, r4
 80014a2:	f7ff ffc9 	bl	8001438 <send_message>
}
 80014a6:	b01b      	add	sp, #108	@ 0x6c
 80014a8:	bd30      	pop	{r4, r5, pc}
      message = "BUSY";
 80014aa:	4d06      	ldr	r5, [pc, #24]	@ (80014c4 <send_reg_log+0x70>)
      break;
 80014ac:	e7dd      	b.n	800146a <send_reg_log+0x16>
      message = "TIMEOUT";
 80014ae:	4d06      	ldr	r5, [pc, #24]	@ (80014c8 <send_reg_log+0x74>)
      break;
 80014b0:	e7db      	b.n	800146a <send_reg_log+0x16>
      message = "OK";
 80014b2:	4d06      	ldr	r5, [pc, #24]	@ (80014cc <send_reg_log+0x78>)
 80014b4:	e7d9      	b.n	800146a <send_reg_log+0x16>
 80014b6:	bf00      	nop
 80014b8:	08006f80 	.word	0x08006f80
 80014bc:	08006f98 	.word	0x08006f98
 80014c0:	08006d84 	.word	0x08006d84
 80014c4:	08006f88 	.word	0x08006f88
 80014c8:	08006f90 	.word	0x08006f90
 80014cc:	08006f7c 	.word	0x08006f7c

080014d0 <MX_GPIO_Init>:
        * Output
        * EVENT_OUT
        * EXTI
*/
void MX_GPIO_Init(void)
{
 80014d0:	b082      	sub	sp, #8

  /* GPIO Ports Clock Enable */
  __HAL_RCC_GPIOA_CLK_ENABLE();
 80014d2:	2100      	movs	r1, #0
 80014d4:	9100      	str	r1, [sp, #0]
 80014d6:	4b0b      	ldr	r3, [pc, #44]	@ (8001504 <MX_GPIO_Init+0x34>)
 80014d8:	6b1a      	ldr	r2, [r3, #48]	@ 0x30
 80014da:	f042 0201 	orr.w	r2, r2, #1
 80014de:	631a      	str	r2, [r3, #48]	@ 0x30
 80014e0:	6b1a      	ldr	r2, [r3, #48]	@ 0x30
 80014e2:	f002 0201 	and.w	r2, r2, #1
 80014e6:	9200      	str	r2, [sp, #0]
 80014e8:	9a00      	ldr	r2, [sp, #0]
  __HAL_RCC_GPIOB_CLK_ENABLE();
 80014ea:	9101      	str	r1, [sp, #4]
 80014ec:	6b1a      	ldr	r2, [r3, #48]	@ 0x30
 80014ee:	f042 0202 	orr.w	r2, r2, #2
 80014f2:	631a      	str	r2, [r3, #48]	@ 0x30
 80014f4:	6b1b      	ldr	r3, [r3, #48]	@ 0x30
 80014f6:	f003 0302 	and.w	r3, r3, #2
 80014fa:	9301      	str	r3, [sp, #4]
 80014fc:	9b01      	ldr	r3, [sp, #4]

}
 80014fe:	b002      	add	sp, #8
 8001500:	4770      	bx	lr
 8001502:	bf00      	nop
 8001504:	40023800 	.word	0x40023800

08001508 <MX_I2C1_Init>:

I2C_HandleTypeDef hi2c1;

/* I2C1 init function */
void MX_I2C1_Init(void)
{
 8001508:	b508      	push	{r3, lr}
  /* USER CODE END I2C1_Init 0 */

  /* USER CODE BEGIN I2C1_Init 1 */

  /* USER CODE END I2C1_Init 1 */
  hi2c1.Instance = I2C1;
 800150a:	480b      	ldr	r0, [pc, #44]	@ (8001538 <MX_I2C1_Init+0x30>)
 800150c:	4b0b      	ldr	r3, [pc, #44]	@ (800153c <MX_I2C1_Init+0x34>)
 800150e:	6003      	str	r3, [r0, #0]
  hi2c1.Init.ClockSpeed = 100000;
 8001510:	4b0b      	ldr	r3, [pc, #44]	@ (8001540 <MX_I2C1_Init+0x38>)
 8001512:	6043      	str	r3, [r0, #4]
  hi2c1.Init.DutyCycle = I2C_DUTYCYCLE_2;
 8001514:	2300      	movs	r3, #0
 8001516:	6083      	str	r3, [r0, #8]
  hi2c1.Init.OwnAddress1 = 0;
 8001518:	60c3      	str	r3, [r0, #12]
  hi2c1.Init.AddressingMode = I2C_ADDRESSINGMODE_7BIT;
 800151a:	f44f 4280 	mov.w	r2, #16384	@ 0x4000
 800151e:	6102      	str	r2, [r0, #16]
  hi2c1.Init.DualAddressMode = I2C_DUALADDRESS_DISABLE;
 8001520:	6143      	str	r3, [r0, #20]
  hi2c1.Init.OwnAddress2 = 0;
 8001522:	6183      	str	r3, [r0, #24]
  hi2c1.Init.GeneralCallMode = I2C_GENERALCALL_DISABLE;
 8001524:	61c3      	str	r3, [r0, #28]
  hi2c1.Init.NoStretchMode = I2C_NOSTRETCH_DISABLE;
 8001526:	6203      	str	r3, [r0, #32]
  if (HAL_I2C_Init(&hi2c1) != HAL_OK)
 8001528:	f000 fe40 	bl	80021ac <HAL_I2C_Init>
 800152c:	b900      	cbnz	r0, 8001530 <MX_I2C1_Init+0x28>
  }
  /* USER CODE BEGIN I2C1_Init 2 */

  /* USER CODE END I2C1_Init 2 */

}
 800152e:	bd08      	pop	{r3, pc}
    Error_Handler();
 8001530:	f000 f840 	bl	80015b4 <Error_Handler>
}
 8001534:	e7fb      	b.n	800152e <MX_I2C1_Init+0x26>
 8001536:	bf00      	nop
 8001538:	2000020c 	.word	0x2000020c
 800153c:	40005400 	.word	0x40005400
 8001540:	000186a0 	.word	0x000186a0

08001544 <HAL_I2C_MspInit>:

void HAL_I2C_MspInit(I2C_HandleTypeDef* i2cHandle)
{
 8001544:	b530      	push	{r4, r5, lr}
 8001546:	b089      	sub	sp, #36	@ 0x24

  GPIO_InitTypeDef GPIO_InitStruct = {0};
 8001548:	2300      	movs	r3, #0
 800154a:	9303      	str	r3, [sp, #12]
 800154c:	9304      	str	r3, [sp, #16]
 800154e:	9305      	str	r3, [sp, #20]
 8001550:	9306      	str	r3, [sp, #24]
 8001552:	9307      	str	r3, [sp, #28]
  if(i2cHandle->Instance==I2C1)
 8001554:	6802      	ldr	r2, [r0, #0]
 8001556:	4b14      	ldr	r3, [pc, #80]	@ (80015a8 <HAL_I2C_MspInit+0x64>)
 8001558:	429a      	cmp	r2, r3
 800155a:	d001      	beq.n	8001560 <HAL_I2C_MspInit+0x1c>
    __HAL_RCC_I2C1_CLK_ENABLE();
  /* USER CODE BEGIN I2C1_MspInit 1 */

  /* USER CODE END I2C1_MspInit 1 */
  }
}
 800155c:	b009      	add	sp, #36	@ 0x24
 800155e:	bd30      	pop	{r4, r5, pc}
    __HAL_RCC_GPIOB_CLK_ENABLE();
 8001560:	2500      	movs	r5, #0
 8001562:	9501      	str	r5, [sp, #4]
 8001564:	4c11      	ldr	r4, [pc, #68]	@ (80015ac <HAL_I2C_MspInit+0x68>)
 8001566:	6b23      	ldr	r3, [r4, #48]	@ 0x30
 8001568:	f043 0302 	orr.w	r3, r3, #2
 800156c:	6323      	str	r3, [r4, #48]	@ 0x30
 800156e:	6b23      	ldr	r3, [r4, #48]	@ 0x30
 8001570:	f003 0302 	and.w	r3, r3, #2
 8001574:	9301      	str	r3, [sp, #4]
 8001576:	9b01      	ldr	r3, [sp, #4]
    GPIO_InitStruct.Pin = GPIO_PIN_6|GPIO_PIN_7;
 8001578:	23c0      	movs	r3, #192	@ 0xc0
 800157a:	9303      	str	r3, [sp, #12]
    GPIO_InitStruct.Mode = GPIO_MODE_AF_OD;
 800157c:	2312      	movs	r3, #18
 800157e:	9304      	str	r3, [sp, #16]
    GPIO_InitStruct.Speed = GPIO_SPEED_FREQ_VERY_HIGH;
 8001580:	2303      	movs	r3, #3
 8001582:	9306      	str	r3, [sp, #24]
    GPIO_InitStruct.Alternate = GPIO_AF4_I2C1;
 8001584:	2304      	movs	r3, #4
 8001586:	9307      	str	r3, [sp, #28]
    HAL_GPIO_Init(GPIOB, &GPIO_InitStruct);
 8001588:	a903      	add	r1, sp, #12
 800158a:	4809      	ldr	r0, [pc, #36]	@ (80015b0 <HAL_I2C_MspInit+0x6c>)
 800158c:	f000 faa0 	bl	8001ad0 <HAL_GPIO_Init>
    __HAL_RCC_I2C1_CLK_ENABLE();
 8001590:	9502      	str	r5, [sp, #8]
 8001592:	6c23      	ldr	r3, [r4, #64]	@ 0x40
 8001594:	f443 1300 	orr.w	r3, r3, #2097152	@ 0x200000
 8001598:	6423      	str	r3, [r4, #64]	@ 0x40
 800159a:	6c23      	ldr	r3, [r4, #64]	@ 0x40
 800159c:	f403 1300 	and.w	r3, r3, #2097152	@ 0x200000
 80015a0:	9302      	str	r3, [sp, #8]
 80015a2:	9b02      	ldr	r3, [sp, #8]
}
 80015a4:	e7da      	b.n	800155c <HAL_I2C_MspInit+0x18>
 80015a6:	bf00      	nop
 80015a8:	40005400 	.word	0x40005400
 80015ac:	40023800 	.word	0x40023800
 80015b0:	40020400 	.word	0x40020400

080015b4 <Error_Handler>:
  \details Disables IRQ interrupts by setting special-purpose register PRIMASK.
           Can only be executed in Privileged modes.
 */
__STATIC_FORCEINLINE void __disable_irq(void)
{
  __ASM volatile ("cpsid i" : : : "memory");
 80015b4:	b672      	cpsid	i
void Error_Handler(void)
{
  /* USER CODE BEGIN Error_Handler_Debug */
  /* User can add his own implementation to report the HAL error return state */
  __disable_irq();
  while (1)
 80015b6:	e7fe      	b.n	80015b6 <Error_Handler+0x2>

080015b8 <SystemClock_Config>:
{
 80015b8:	b510      	push	{r4, lr}
 80015ba:	b094      	sub	sp, #80	@ 0x50
  RCC_OscInitTypeDef RCC_OscInitStruct = {0};
 80015bc:	ac08      	add	r4, sp, #32
 80015be:	2230      	movs	r2, #48	@ 0x30
 80015c0:	2100      	movs	r1, #0
 80015c2:	4620      	mov	r0, r4
 80015c4:	f003 f95a 	bl	800487c <memset>
  RCC_ClkInitTypeDef RCC_ClkInitStruct = {0};
 80015c8:	2300      	movs	r3, #0
 80015ca:	9303      	str	r3, [sp, #12]
 80015cc:	9304      	str	r3, [sp, #16]
 80015ce:	9305      	str	r3, [sp, #20]
 80015d0:	9306      	str	r3, [sp, #24]
 80015d2:	9307      	str	r3, [sp, #28]
  __HAL_RCC_PWR_CLK_ENABLE();
 80015d4:	9301      	str	r3, [sp, #4]
 80015d6:	4a1e      	ldr	r2, [pc, #120]	@ (8001650 <SystemClock_Config+0x98>)
 80015d8:	6c11      	ldr	r1, [r2, #64]	@ 0x40
 80015da:	f041 5180 	orr.w	r1, r1, #268435456	@ 0x10000000
 80015de:	6411      	str	r1, [r2, #64]	@ 0x40
 80015e0:	6c12      	ldr	r2, [r2, #64]	@ 0x40
 80015e2:	f002 5280 	and.w	r2, r2, #268435456	@ 0x10000000
 80015e6:	9201      	str	r2, [sp, #4]
 80015e8:	9a01      	ldr	r2, [sp, #4]
  __HAL_PWR_VOLTAGESCALING_CONFIG(PWR_REGULATOR_VOLTAGE_SCALE1);
 80015ea:	9302      	str	r3, [sp, #8]
 80015ec:	4a19      	ldr	r2, [pc, #100]	@ (8001654 <SystemClock_Config+0x9c>)
 80015ee:	6811      	ldr	r1, [r2, #0]
 80015f0:	f441 4140 	orr.w	r1, r1, #49152	@ 0xc000
 80015f4:	6011      	str	r1, [r2, #0]
 80015f6:	6812      	ldr	r2, [r2, #0]
 80015f8:	f402 4240 	and.w	r2, r2, #49152	@ 0xc000
 80015fc:	9202      	str	r2, [sp, #8]
 80015fe:	9a02      	ldr	r2, [sp, #8]
  RCC_OscInitStruct.OscillatorType = RCC_OSCILLATORTYPE_HSI;
 8001600:	2202      	movs	r2, #2
 8001602:	9208      	str	r2, [sp, #32]
  RCC_OscInitStruct.HSIState = RCC_HSI_ON;
 8001604:	2101      	movs	r1, #1
 8001606:	910b      	str	r1, [sp, #44]	@ 0x2c
  RCC_OscInitStruct.HSICalibrationValue = RCC_HSICALIBRATION_DEFAULT;
 8001608:	2110      	movs	r1, #16
 800160a:	910c      	str	r1, [sp, #48]	@ 0x30
  RCC_OscInitStruct.PLL.PLLState = RCC_PLL_ON;
 800160c:	920e      	str	r2, [sp, #56]	@ 0x38
  RCC_OscInitStruct.PLL.PLLSource = RCC_PLLSOURCE_HSI;
 800160e:	930f      	str	r3, [sp, #60]	@ 0x3c
  RCC_OscInitStruct.PLL.PLLM = 8;
 8001610:	2308      	movs	r3, #8
 8001612:	9310      	str	r3, [sp, #64]	@ 0x40
  RCC_OscInitStruct.PLL.PLLN = 100;
 8001614:	2364      	movs	r3, #100	@ 0x64
 8001616:	9311      	str	r3, [sp, #68]	@ 0x44
  RCC_OscInitStruct.PLL.PLLP = RCC_PLLP_DIV2;
 8001618:	9212      	str	r2, [sp, #72]	@ 0x48
  RCC_OscInitStruct.PLL.PLLQ = 4;
 800161a:	2304      	movs	r3, #4
 800161c:	9313      	str	r3, [sp, #76]	@ 0x4c
  if (HAL_RCC_OscConfig(&RCC_OscInitStruct) != HAL_OK)
 800161e:	4620      	mov	r0, r4
 8001620:	f001 f8ea 	bl	80027f8 <HAL_RCC_OscConfig>
 8001624:	b980      	cbnz	r0, 8001648 <SystemClock_Config+0x90>
  RCC_ClkInitStruct.ClockType = RCC_CLOCKTYPE_HCLK|RCC_CLOCKTYPE_SYSCLK
 8001626:	230f      	movs	r3, #15
 8001628:	9303      	str	r3, [sp, #12]
  RCC_ClkInitStruct.SYSCLKSource = RCC_SYSCLKSOURCE_PLLCLK;
 800162a:	2302      	movs	r3, #2
 800162c:	9304      	str	r3, [sp, #16]
  RCC_ClkInitStruct.AHBCLKDivider = RCC_SYSCLK_DIV1;
 800162e:	2300      	movs	r3, #0
 8001630:	9305      	str	r3, [sp, #20]
  RCC_ClkInitStruct.APB1CLKDivider = RCC_HCLK_DIV2;
 8001632:	f44f 5280 	mov.w	r2, #4096	@ 0x1000
 8001636:	9206      	str	r2, [sp, #24]
  RCC_ClkInitStruct.APB2CLKDivider = RCC_HCLK_DIV1;
 8001638:	9307      	str	r3, [sp, #28]
  if (HAL_RCC_ClockConfig(&RCC_ClkInitStruct, FLASH_LATENCY_3) != HAL_OK)
 800163a:	2103      	movs	r1, #3
 800163c:	a803      	add	r0, sp, #12
 800163e:	f001 fb2b 	bl	8002c98 <HAL_RCC_ClockConfig>
 8001642:	b918      	cbnz	r0, 800164c <SystemClock_Config+0x94>
}
 8001644:	b014      	add	sp, #80	@ 0x50
 8001646:	bd10      	pop	{r4, pc}
    Error_Handler();
 8001648:	f7ff ffb4 	bl	80015b4 <Error_Handler>
    Error_Handler();
 800164c:	f7ff ffb2 	bl	80015b4 <Error_Handler>
 8001650:	40023800 	.word	0x40023800
 8001654:	40007000 	.word	0x40007000

08001658 <main>:
{
 8001658:	b570      	push	{r4, r5, r6, lr}
 800165a:	f5ad 7d3a 	sub.w	sp, sp, #744	@ 0x2e8
  char data[100] =  "F411 says: I'm alive\n\r\0";
 800165e:	4d9f      	ldr	r5, [pc, #636]	@ (80018dc <main+0x284>)
 8001660:	aca1      	add	r4, sp, #644	@ 0x284
 8001662:	6828      	ldr	r0, [r5, #0]
 8001664:	6869      	ldr	r1, [r5, #4]
 8001666:	68aa      	ldr	r2, [r5, #8]
 8001668:	68eb      	ldr	r3, [r5, #12]
 800166a:	c40f      	stmia	r4!, {r0, r1, r2, r3}
 800166c:	6928      	ldr	r0, [r5, #16]
 800166e:	6969      	ldr	r1, [r5, #20]
 8001670:	c403      	stmia	r4!, {r0, r1}
 8001672:	224c      	movs	r2, #76	@ 0x4c
 8001674:	2100      	movs	r1, #0
 8001676:	4620      	mov	r0, r4
 8001678:	f003 f900 	bl	800487c <memset>
  send_message(data, PRIORITY_HIGH);
 800167c:	2102      	movs	r1, #2
 800167e:	a8a1      	add	r0, sp, #644	@ 0x284
 8001680:	f7ff feda 	bl	8001438 <send_message>
  HAL_Init();
 8001684:	f000 f968 	bl	8001958 <HAL_Init>
  SystemClock_Config();
 8001688:	f7ff ff96 	bl	80015b8 <SystemClock_Config>
  MX_GPIO_Init();
 800168c:	f7ff ff20 	bl	80014d0 <MX_GPIO_Init>
  MX_I2C1_Init();
 8001690:	f7ff ff3a 	bl	8001508 <MX_I2C1_Init>
  MX_USART1_UART_Init();
 8001694:	f002 faf6 	bl	8003c84 <MX_USART1_UART_Init>
  MX_TIM1_Init();
 8001698:	f002 fa7e 	bl	8003b98 <MX_TIM1_Init>
  HAL_TIM_PWM_Start(&htim1, TIM_CHANNEL_1);
 800169c:	2100      	movs	r1, #0
 800169e:	4890      	ldr	r0, [pc, #576]	@ (80018e0 <main+0x288>)
 80016a0:	f001 ff16 	bl	80034d0 <HAL_TIM_PWM_Start>
  char str_buf[100] =  "--------------------LSM6DS33 init--------------------------\n\r";
 80016a4:	4c8f      	ldr	r4, [pc, #572]	@ (80018e4 <main+0x28c>)
 80016a6:	ae88      	add	r6, sp, #544	@ 0x220
 80016a8:	f104 0c30 	add.w	ip, r4, #48	@ 0x30
 80016ac:	4635      	mov	r5, r6
 80016ae:	6820      	ldr	r0, [r4, #0]
 80016b0:	6861      	ldr	r1, [r4, #4]
 80016b2:	68a2      	ldr	r2, [r4, #8]
 80016b4:	68e3      	ldr	r3, [r4, #12]
 80016b6:	c50f      	stmia	r5!, {r0, r1, r2, r3}
 80016b8:	3410      	adds	r4, #16
 80016ba:	462e      	mov	r6, r5
 80016bc:	4564      	cmp	r4, ip
 80016be:	d1f5      	bne.n	80016ac <main+0x54>
 80016c0:	6820      	ldr	r0, [r4, #0]
 80016c2:	6861      	ldr	r1, [r4, #4]
 80016c4:	68a2      	ldr	r2, [r4, #8]
 80016c6:	c607      	stmia	r6!, {r0, r1, r2}
 80016c8:	89a3      	ldrh	r3, [r4, #12]
 80016ca:	8033      	strh	r3, [r6, #0]
 80016cc:	2226      	movs	r2, #38	@ 0x26
 80016ce:	2100      	movs	r1, #0
 80016d0:	f20d 205e 	addw	r0, sp, #606	@ 0x25e
 80016d4:	f003 f8d2 	bl	800487c <memset>
  send_message(str_buf, PRIORITY_HIGH);
 80016d8:	2102      	movs	r1, #2
 80016da:	a888      	add	r0, sp, #544	@ 0x220
 80016dc:	f7ff feac 	bl	8001438 <send_message>
  if (check_acc_identity())
 80016e0:	f7ff fad4 	bl	8000c8c <check_acc_identity>
 80016e4:	b308      	cbz	r0, 800172a <main+0xd2>
		char buffer [100] = "ACCELEROMETER READ SUCCESSFULLY (nice)\n\r";
 80016e6:	f50d 7cde 	add.w	ip, sp, #444	@ 0x1bc
 80016ea:	4c7f      	ldr	r4, [pc, #508]	@ (80018e8 <main+0x290>)
 80016ec:	4666      	mov	r6, ip
 80016ee:	f104 0e20 	add.w	lr, r4, #32
 80016f2:	4635      	mov	r5, r6
 80016f4:	6820      	ldr	r0, [r4, #0]
 80016f6:	6861      	ldr	r1, [r4, #4]
 80016f8:	68a2      	ldr	r2, [r4, #8]
 80016fa:	68e3      	ldr	r3, [r4, #12]
 80016fc:	c50f      	stmia	r5!, {r0, r1, r2, r3}
 80016fe:	3410      	adds	r4, #16
 8001700:	462e      	mov	r6, r5
 8001702:	4574      	cmp	r4, lr
 8001704:	d1f5      	bne.n	80016f2 <main+0x9a>
 8001706:	6820      	ldr	r0, [r4, #0]
 8001708:	6861      	ldr	r1, [r4, #4]
 800170a:	c603      	stmia	r6!, {r0, r1}
 800170c:	7a23      	ldrb	r3, [r4, #8]
 800170e:	7033      	strb	r3, [r6, #0]
 8001710:	223b      	movs	r2, #59	@ 0x3b
 8001712:	2100      	movs	r1, #0
 8001714:	f10c 0029 	add.w	r0, ip, #41	@ 0x29
 8001718:	f003 f8b0 	bl	800487c <memset>
		send_message(buffer, PRIORITY_HIGH);
 800171c:	2102      	movs	r1, #2
 800171e:	a86f      	add	r0, sp, #444	@ 0x1bc
 8001720:	f7ff fe8a 	bl	8001438 <send_message>
    acc_power_on();
 8001724:	f7ff faf2 	bl	8000d0c <acc_power_on>
 8001728:	e01c      	b.n	8001764 <main+0x10c>
		char buffer [50] = "ACCELEROMETER READ ERROR\n\r";
 800172a:	ae6f      	add	r6, sp, #444	@ 0x1bc
 800172c:	4634      	mov	r4, r6
 800172e:	4d6f      	ldr	r5, [pc, #444]	@ (80018ec <main+0x294>)
 8001730:	cd0f      	ldmia	r5!, {r0, r1, r2, r3}
 8001732:	c40f      	stmia	r4!, {r0, r1, r2, r3}
 8001734:	e895 0007 	ldmia.w	r5, {r0, r1, r2}
 8001738:	c403      	stmia	r4!, {r0, r1}
 800173a:	f824 2b02 	strh.w	r2, [r4], #2
 800173e:	0c12      	lsrs	r2, r2, #16
 8001740:	7022      	strb	r2, [r4, #0]
 8001742:	2200      	movs	r2, #0
 8001744:	f8cd 21d7 	str.w	r2, [sp, #471]	@ 0x1d7
 8001748:	f8cd 21db 	str.w	r2, [sp, #475]	@ 0x1db
 800174c:	f8cd 21df 	str.w	r2, [sp, #479]	@ 0x1df
 8001750:	f8cd 21e3 	str.w	r2, [sp, #483]	@ 0x1e3
 8001754:	f8cd 21e7 	str.w	r2, [sp, #487]	@ 0x1e7
 8001758:	f8cd 21ea 	str.w	r2, [sp, #490]	@ 0x1ea
		send_message(buffer, PRIORITY_HIGH);
 800175c:	2102      	movs	r1, #2
 800175e:	4630      	mov	r0, r6
 8001760:	f7ff fe6a 	bl	8001438 <send_message>
  if (check_barometer_identity())
 8001764:	f7ff fbc0 	bl	8000ee8 <check_barometer_identity>
 8001768:	2800      	cmp	r0, #0
 800176a:	f000 80a6 	beq.w	80018ba <main+0x262>
		char buffer [28] = "BMP READ SUCCESSFULLY\n\r";
 800176e:	ae6f      	add	r6, sp, #444	@ 0x1bc
 8001770:	4634      	mov	r4, r6
 8001772:	4d5f      	ldr	r5, [pc, #380]	@ (80018f0 <main+0x298>)
 8001774:	cd0f      	ldmia	r5!, {r0, r1, r2, r3}
 8001776:	c40f      	stmia	r4!, {r0, r1, r2, r3}
 8001778:	e895 0003 	ldmia.w	r5, {r0, r1}
 800177c:	e884 0003 	stmia.w	r4, {r0, r1}
 8001780:	2300      	movs	r3, #0
 8001782:	9375      	str	r3, [sp, #468]	@ 0x1d4
		send_message(buffer, PRIORITY_HIGH);
 8001784:	2102      	movs	r1, #2
 8001786:	4630      	mov	r0, r6
 8001788:	f7ff fe56 	bl	8001438 <send_message>
  barometer_power_on();
 800178c:	f7ff fc9c 	bl	80010c8 <barometer_power_on>
    HAL_Delay(1000);
 8001790:	f44f 707a 	mov.w	r0, #1000	@ 0x3e8
 8001794:	f000 f90c 	bl	80019b0 <HAL_Delay>
    char data[100] =  "------------------------BMP----------------------\n\r\0";
 8001798:	ae0b      	add	r6, sp, #44	@ 0x2c
 800179a:	4c50      	ldr	r4, [pc, #320]	@ (80018dc <main+0x284>)
 800179c:	f104 0c7c 	add.w	ip, r4, #124	@ 0x7c
 80017a0:	4635      	mov	r5, r6
 80017a2:	34ac      	adds	r4, #172	@ 0xac
 80017a4:	46ae      	mov	lr, r5
 80017a6:	f8dc 0000 	ldr.w	r0, [ip]
 80017aa:	f8dc 1004 	ldr.w	r1, [ip, #4]
 80017ae:	f8dc 2008 	ldr.w	r2, [ip, #8]
 80017b2:	f8dc 300c 	ldr.w	r3, [ip, #12]
 80017b6:	e8ae 000f 	stmia.w	lr!, {r0, r1, r2, r3}
 80017ba:	f10c 0c10 	add.w	ip, ip, #16
 80017be:	4675      	mov	r5, lr
 80017c0:	45a4      	cmp	ip, r4
 80017c2:	d1ef      	bne.n	80017a4 <main+0x14c>
 80017c4:	f8dc 0000 	ldr.w	r0, [ip]
 80017c8:	f8ce 0000 	str.w	r0, [lr]
 80017cc:	f89c 3004 	ldrb.w	r3, [ip, #4]
 80017d0:	f88e 3004 	strb.w	r3, [lr, #4]
 80017d4:	222f      	movs	r2, #47	@ 0x2f
 80017d6:	2100      	movs	r1, #0
 80017d8:	f106 0035 	add.w	r0, r6, #53	@ 0x35
 80017dc:	f003 f84e 	bl	800487c <memset>
    send_message(data, PRIORITY_HIGH);
 80017e0:	2102      	movs	r1, #2
 80017e2:	a80b      	add	r0, sp, #44	@ 0x2c
 80017e4:	f7ff fe28 	bl	8001438 <send_message>
    int32_t actual_temp = read_temp();
 80017e8:	f7ff fcb2 	bl	8001150 <read_temp>
 80017ec:	ee07 0a90 	vmov	s15, r0
    sprintf(temp_str, "Temperature: %.2f Celsius\n\n\r", ((float)actual_temp)/100);
 80017f0:	eef8 7ae7 	vcvt.f32.s32	s15, s15
 80017f4:	ed9f 7a3f 	vldr	s14, [pc, #252]	@ 80018f4 <main+0x29c>
 80017f8:	eec7 7a87 	vdiv.f32	s15, s15, s14
 80017fc:	ee17 0a90 	vmov	r0, s15
 8001800:	f7fe fe8a 	bl	8000518 <__aeabi_f2d>
 8001804:	4602      	mov	r2, r0
 8001806:	460b      	mov	r3, r1
 8001808:	ac24      	add	r4, sp, #144	@ 0x90
 800180a:	493b      	ldr	r1, [pc, #236]	@ (80018f8 <main+0x2a0>)
 800180c:	4620      	mov	r0, r4
 800180e:	f002 ffcf 	bl	80047b0 <siprintf>
    send_message(temp_str, PRIORITY_HIGH);
 8001812:	2102      	movs	r1, #2
 8001814:	4620      	mov	r0, r4
 8001816:	f7ff fe0f 	bl	8001438 <send_message>
    uint32_t actual_pressure = read_pressure();
 800181a:	f7ff fdc7 	bl	80013ac <read_pressure>
 800181e:	ee07 0a90 	vmov	s15, r0
    sprintf(pressure_str, "Pressure: %.4f Pa\n\n\r",  ((float)actual_pressure)/256);
 8001822:	eef8 7a67 	vcvt.f32.u32	s15, s15
 8001826:	ed9f 7a35 	vldr	s14, [pc, #212]	@ 80018fc <main+0x2a4>
 800182a:	ee67 7a87 	vmul.f32	s15, s15, s14
 800182e:	ee17 0a90 	vmov	r0, s15
 8001832:	f7fe fe71 	bl	8000518 <__aeabi_f2d>
 8001836:	4602      	mov	r2, r0
 8001838:	460b      	mov	r3, r1
 800183a:	ac3d      	add	r4, sp, #244	@ 0xf4
 800183c:	4930      	ldr	r1, [pc, #192]	@ (8001900 <main+0x2a8>)
 800183e:	4620      	mov	r0, r4
 8001840:	f002 ffb6 	bl	80047b0 <siprintf>
    send_message(pressure_str, PRIORITY_HIGH);
 8001844:	2102      	movs	r1, #2
 8001846:	4620      	mov	r0, r4
 8001848:	f7ff fdf6 	bl	8001438 <send_message>
    char data1[100] =  "------------------------ACC----------------------\n\r\0";
 800184c:	f50d 7eac 	add.w	lr, sp, #344	@ 0x158
 8001850:	4e22      	ldr	r6, [pc, #136]	@ (80018dc <main+0x284>)
 8001852:	f106 04b4 	add.w	r4, r6, #180	@ 0xb4
 8001856:	46f4      	mov	ip, lr
 8001858:	36e4      	adds	r6, #228	@ 0xe4
 800185a:	4665      	mov	r5, ip
 800185c:	6820      	ldr	r0, [r4, #0]
 800185e:	6861      	ldr	r1, [r4, #4]
 8001860:	68a2      	ldr	r2, [r4, #8]
 8001862:	68e3      	ldr	r3, [r4, #12]
 8001864:	c50f      	stmia	r5!, {r0, r1, r2, r3}
 8001866:	3410      	adds	r4, #16
 8001868:	46ac      	mov	ip, r5
 800186a:	42b4      	cmp	r4, r6
 800186c:	d1f5      	bne.n	800185a <main+0x202>
 800186e:	6820      	ldr	r0, [r4, #0]
 8001870:	6028      	str	r0, [r5, #0]
 8001872:	7923      	ldrb	r3, [r4, #4]
 8001874:	712b      	strb	r3, [r5, #4]
 8001876:	222f      	movs	r2, #47	@ 0x2f
 8001878:	2100      	movs	r1, #0
 800187a:	f10e 0035 	add.w	r0, lr, #53	@ 0x35
 800187e:	f002 fffd 	bl	800487c <memset>
    send_message(data1, PRIORITY_HIGH);
 8001882:	2102      	movs	r1, #2
 8001884:	a856      	add	r0, sp, #344	@ 0x158
 8001886:	f7ff fdd7 	bl	8001438 <send_message>
    read_acceleration_xyz(acc_vals);
 800188a:	ac04      	add	r4, sp, #16
 800188c:	4620      	mov	r0, r4
 800188e:	f7ff fa5b 	bl	8000d48 <read_acceleration_xyz>
    sprintf(acc_str, "Acceleration: (%0.4f, %0.4f, %0.4f) \n\n\r", acc_vals[0], acc_vals[1], acc_vals[2]);
 8001892:	ad6f      	add	r5, sp, #444	@ 0x1bc
 8001894:	e9dd 2308 	ldrd	r2, r3, [sp, #32]
 8001898:	e9cd 2302 	strd	r2, r3, [sp, #8]
 800189c:	e9dd 2306 	ldrd	r2, r3, [sp, #24]
 80018a0:	e9cd 2300 	strd	r2, r3, [sp]
 80018a4:	e9dd 2304 	ldrd	r2, r3, [sp, #16]
 80018a8:	4916      	ldr	r1, [pc, #88]	@ (8001904 <main+0x2ac>)
 80018aa:	4628      	mov	r0, r5
 80018ac:	f002 ff80 	bl	80047b0 <siprintf>
    send_message(acc_str, PRIORITY_HIGH);
 80018b0:	2102      	movs	r1, #2
 80018b2:	4628      	mov	r0, r5
 80018b4:	f7ff fdc0 	bl	8001438 <send_message>
  while (1)
 80018b8:	e76a      	b.n	8001790 <main+0x138>
		char buffer [20] = "BMP READ ERROR\n\r";
 80018ba:	ae6f      	add	r6, sp, #444	@ 0x1bc
 80018bc:	4634      	mov	r4, r6
 80018be:	4d12      	ldr	r5, [pc, #72]	@ (8001908 <main+0x2b0>)
 80018c0:	cd0f      	ldmia	r5!, {r0, r1, r2, r3}
 80018c2:	c40f      	stmia	r4!, {r0, r1, r2, r3}
 80018c4:	682b      	ldr	r3, [r5, #0]
 80018c6:	7023      	strb	r3, [r4, #0]
 80018c8:	2200      	movs	r2, #0
 80018ca:	f8ad 21cd 	strh.w	r2, [sp, #461]	@ 0x1cd
 80018ce:	f88d 21cf 	strb.w	r2, [sp, #463]	@ 0x1cf
		send_message(buffer, PRIORITY_HIGH);
 80018d2:	2102      	movs	r1, #2
 80018d4:	4630      	mov	r0, r6
 80018d6:	f7ff fdaf 	bl	8001438 <send_message>
 80018da:	e757      	b.n	800178c <main+0x134>
 80018dc:	08006d88 	.word	0x08006d88
 80018e0:	20000268 	.word	0x20000268
 80018e4:	08006ffc 	.word	0x08006ffc
 80018e8:	0800703c 	.word	0x0800703c
 80018ec:	08006da0 	.word	0x08006da0
 80018f0:	08006dd4 	.word	0x08006dd4
 80018f4:	42c80000 	.word	0x42c80000
 80018f8:	08006f9c 	.word	0x08006f9c
 80018fc:	3b800000 	.word	0x3b800000
 8001900:	08006fbc 	.word	0x08006fbc
 8001904:	08006fd4 	.word	0x08006fd4
 8001908:	08006df0 	.word	0x08006df0

0800190c <HAL_InitTick>:
  *       implementation  in user file.
  * @param TickPriority Tick interrupt priority.
  * @retval HAL status
  */
__weak HAL_StatusTypeDef HAL_InitTick(uint32_t TickPriority)
{
 800190c:	b510      	push	{r4, lr}
 800190e:	4604      	mov	r4, r0
  /* Configure the SysTick to have interrupt in 1ms time basis*/
  if (HAL_SYSTICK_Config(SystemCoreClock / (1000U / uwTickFreq)) > 0U)
 8001910:	4b0e      	ldr	r3, [pc, #56]	@ (800194c <HAL_InitTick+0x40>)
 8001912:	781a      	ldrb	r2, [r3, #0]
 8001914:	f44f 737a 	mov.w	r3, #1000	@ 0x3e8
 8001918:	fbb3 f3f2 	udiv	r3, r3, r2
 800191c:	4a0c      	ldr	r2, [pc, #48]	@ (8001950 <HAL_InitTick+0x44>)
 800191e:	6810      	ldr	r0, [r2, #0]
 8001920:	fbb0 f0f3 	udiv	r0, r0, r3
 8001924:	f000 f8c0 	bl	8001aa8 <HAL_SYSTICK_Config>
 8001928:	b968      	cbnz	r0, 8001946 <HAL_InitTick+0x3a>
  {
    return HAL_ERROR;
  }

  /* Configure the SysTick IRQ priority */
  if (TickPriority < (1UL << __NVIC_PRIO_BITS))
 800192a:	2c0f      	cmp	r4, #15
 800192c:	d901      	bls.n	8001932 <HAL_InitTick+0x26>
    HAL_NVIC_SetPriority(SysTick_IRQn, TickPriority, 0U);
    uwTickPrio = TickPriority;
  }
  else
  {
    return HAL_ERROR;
 800192e:	2001      	movs	r0, #1
 8001930:	e00a      	b.n	8001948 <HAL_InitTick+0x3c>
    HAL_NVIC_SetPriority(SysTick_IRQn, TickPriority, 0U);
 8001932:	2200      	movs	r2, #0
 8001934:	4621      	mov	r1, r4
 8001936:	f04f 30ff 	mov.w	r0, #4294967295	@ 0xffffffff
 800193a:	f000 f8a1 	bl	8001a80 <HAL_NVIC_SetPriority>
    uwTickPrio = TickPriority;
 800193e:	4b05      	ldr	r3, [pc, #20]	@ (8001954 <HAL_InitTick+0x48>)
 8001940:	601c      	str	r4, [r3, #0]
  }

  /* Return function status */
  return HAL_OK;
 8001942:	2000      	movs	r0, #0
 8001944:	e000      	b.n	8001948 <HAL_InitTick+0x3c>
    return HAL_ERROR;
 8001946:	2001      	movs	r0, #1
}
 8001948:	bd10      	pop	{r4, pc}
 800194a:	bf00      	nop
 800194c:	20000000 	.word	0x20000000
 8001950:	20000008 	.word	0x20000008
 8001954:	20000004 	.word	0x20000004

08001958 <HAL_Init>:
{
 8001958:	b508      	push	{r3, lr}
  __HAL_FLASH_INSTRUCTION_CACHE_ENABLE();
 800195a:	4b0b      	ldr	r3, [pc, #44]	@ (8001988 <HAL_Init+0x30>)
 800195c:	681a      	ldr	r2, [r3, #0]
 800195e:	f442 7200 	orr.w	r2, r2, #512	@ 0x200
 8001962:	601a      	str	r2, [r3, #0]
  __HAL_FLASH_DATA_CACHE_ENABLE();
 8001964:	681a      	ldr	r2, [r3, #0]
 8001966:	f442 6280 	orr.w	r2, r2, #1024	@ 0x400
 800196a:	601a      	str	r2, [r3, #0]
  __HAL_FLASH_PREFETCH_BUFFER_ENABLE();
 800196c:	681a      	ldr	r2, [r3, #0]
 800196e:	f442 7280 	orr.w	r2, r2, #256	@ 0x100
 8001972:	601a      	str	r2, [r3, #0]
  HAL_NVIC_SetPriorityGrouping(NVIC_PRIORITYGROUP_4);
 8001974:	2003      	movs	r0, #3
 8001976:	f000 f871 	bl	8001a5c <HAL_NVIC_SetPriorityGrouping>
  HAL_InitTick(TICK_INT_PRIORITY);
 800197a:	200f      	movs	r0, #15
 800197c:	f7ff ffc6 	bl	800190c <HAL_InitTick>
  HAL_MspInit();
 8001980:	f000 ff1e 	bl	80027c0 <HAL_MspInit>
}
 8001984:	2000      	movs	r0, #0
 8001986:	bd08      	pop	{r3, pc}
 8001988:	40023c00 	.word	0x40023c00

0800198c <HAL_IncTick>:
  *      implementations in user file.
  * @retval None
  */
__weak void HAL_IncTick(void)
{
  uwTick += uwTickFreq;
 800198c:	4a03      	ldr	r2, [pc, #12]	@ (800199c <HAL_IncTick+0x10>)
 800198e:	6811      	ldr	r1, [r2, #0]
 8001990:	4b03      	ldr	r3, [pc, #12]	@ (80019a0 <HAL_IncTick+0x14>)
 8001992:	781b      	ldrb	r3, [r3, #0]
 8001994:	440b      	add	r3, r1
 8001996:	6013      	str	r3, [r2, #0]
}
 8001998:	4770      	bx	lr
 800199a:	bf00      	nop
 800199c:	20000260 	.word	0x20000260
 80019a0:	20000000 	.word	0x20000000

080019a4 <HAL_GetTick>:
  *       implementations in user file.
  * @retval tick value
  */
__weak uint32_t HAL_GetTick(void)
{
  return uwTick;
 80019a4:	4b01      	ldr	r3, [pc, #4]	@ (80019ac <HAL_GetTick+0x8>)
 80019a6:	6818      	ldr	r0, [r3, #0]
}
 80019a8:	4770      	bx	lr
 80019aa:	bf00      	nop
 80019ac:	20000260 	.word	0x20000260

080019b0 <HAL_Delay>:
  *       implementations in user file.
  * @param Delay specifies the delay time length, in milliseconds.
  * @retval None
  */
__weak void HAL_Delay(uint32_t Delay)
{
 80019b0:	b538      	push	{r3, r4, r5, lr}
 80019b2:	4604      	mov	r4, r0
  uint32_t tickstart = HAL_GetTick();
 80019b4:	f7ff fff6 	bl	80019a4 <HAL_GetTick>
 80019b8:	4605      	mov	r5, r0
  uint32_t wait = Delay;

  /* Add a freq to guarantee minimum wait */
  if (wait < HAL_MAX_DELAY)
 80019ba:	f1b4 3fff 	cmp.w	r4, #4294967295	@ 0xffffffff
 80019be:	d002      	beq.n	80019c6 <HAL_Delay+0x16>
  {
    wait += (uint32_t)(uwTickFreq);
 80019c0:	4b04      	ldr	r3, [pc, #16]	@ (80019d4 <HAL_Delay+0x24>)
 80019c2:	781b      	ldrb	r3, [r3, #0]
 80019c4:	441c      	add	r4, r3
  }

  while((HAL_GetTick() - tickstart) < wait)
 80019c6:	f7ff ffed 	bl	80019a4 <HAL_GetTick>
 80019ca:	1b40      	subs	r0, r0, r5
 80019cc:	42a0      	cmp	r0, r4
 80019ce:	d3fa      	bcc.n	80019c6 <HAL_Delay+0x16>
  {
  }
}
 80019d0:	bd38      	pop	{r3, r4, r5, pc}
 80019d2:	bf00      	nop
 80019d4:	20000000 	.word	0x20000000

080019d8 <__NVIC_EnableIRQ>:
  \param [in]      IRQn  Device specific interrupt number.
  \note    IRQn must not be negative.
 */
__STATIC_INLINE void __NVIC_EnableIRQ(IRQn_Type IRQn)
{
  if ((int32_t)(IRQn) >= 0)
 80019d8:	2800      	cmp	r0, #0
 80019da:	db07      	blt.n	80019ec <__NVIC_EnableIRQ+0x14>
  {
    __COMPILER_BARRIER();
    NVIC->ISER[(((uint32_t)IRQn) >> 5UL)] = (uint32_t)(1UL << (((uint32_t)IRQn) & 0x1FUL));
 80019dc:	f000 021f 	and.w	r2, r0, #31
 80019e0:	0940      	lsrs	r0, r0, #5
 80019e2:	2301      	movs	r3, #1
 80019e4:	4093      	lsls	r3, r2
 80019e6:	4a02      	ldr	r2, [pc, #8]	@ (80019f0 <__NVIC_EnableIRQ+0x18>)
 80019e8:	f842 3020 	str.w	r3, [r2, r0, lsl #2]
    __COMPILER_BARRIER();
  }
}
 80019ec:	4770      	bx	lr
 80019ee:	bf00      	nop
 80019f0:	e000e100 	.word	0xe000e100

080019f4 <__NVIC_SetPriority>:
  \param [in]  priority  Priority to set.
  \note    The priority cannot be set for every processor exception.
 */
__STATIC_INLINE void __NVIC_SetPriority(IRQn_Type IRQn, uint32_t priority)
{
  if ((int32_t)(IRQn) >= 0)
 80019f4:	2800      	cmp	r0, #0
 80019f6:	db08      	blt.n	8001a0a <__NVIC_SetPriority+0x16>
  {
    NVIC->IP[((uint32_t)IRQn)]               = (uint8_t)((priority << (8U - __NVIC_PRIO_BITS)) & (uint32_t)0xFFUL);
 80019f8:	0109      	lsls	r1, r1, #4
 80019fa:	b2c9      	uxtb	r1, r1
 80019fc:	f100 4060 	add.w	r0, r0, #3758096384	@ 0xe0000000
 8001a00:	f500 4061 	add.w	r0, r0, #57600	@ 0xe100
 8001a04:	f880 1300 	strb.w	r1, [r0, #768]	@ 0x300
 8001a08:	4770      	bx	lr
  }
  else
  {
    SCB->SHP[(((uint32_t)IRQn) & 0xFUL)-4UL] = (uint8_t)((priority << (8U - __NVIC_PRIO_BITS)) & (uint32_t)0xFFUL);
 8001a0a:	f000 000f 	and.w	r0, r0, #15
 8001a0e:	0109      	lsls	r1, r1, #4
 8001a10:	b2c9      	uxtb	r1, r1
 8001a12:	4b01      	ldr	r3, [pc, #4]	@ (8001a18 <__NVIC_SetPriority+0x24>)
 8001a14:	5419      	strb	r1, [r3, r0]
  }
}
 8001a16:	4770      	bx	lr
 8001a18:	e000ed14 	.word	0xe000ed14

08001a1c <NVIC_EncodePriority>:
  \param [in]   PreemptPriority  Preemptive priority value (starting from 0).
  \param [in]       SubPriority  Subpriority value (starting from 0).
  \return                        Encoded priority. Value can be used in the function \ref NVIC_SetPriority().
 */
__STATIC_INLINE uint32_t NVIC_EncodePriority (uint32_t PriorityGroup, uint32_t PreemptPriority, uint32_t SubPriority)
{
 8001a1c:	b500      	push	{lr}
  uint32_t PriorityGroupTmp = (PriorityGroup & (uint32_t)0x07UL);   /* only values 0..7 are used          */
 8001a1e:	f000 0007 	and.w	r0, r0, #7
  uint32_t PreemptPriorityBits;
  uint32_t SubPriorityBits;

  PreemptPriorityBits = ((7UL - PriorityGroupTmp) > (uint32_t)(__NVIC_PRIO_BITS)) ? (uint32_t)(__NVIC_PRIO_BITS) : (uint32_t)(7UL - PriorityGroupTmp);
 8001a22:	f1c0 0c07 	rsb	ip, r0, #7
 8001a26:	f1bc 0f04 	cmp.w	ip, #4
 8001a2a:	bf28      	it	cs
 8001a2c:	f04f 0c04 	movcs.w	ip, #4
  SubPriorityBits     = ((PriorityGroupTmp + (uint32_t)(__NVIC_PRIO_BITS)) < (uint32_t)7UL) ? (uint32_t)0UL : (uint32_t)((PriorityGroupTmp - 7UL) + (uint32_t)(__NVIC_PRIO_BITS));
 8001a30:	1d03      	adds	r3, r0, #4
 8001a32:	2b06      	cmp	r3, #6
 8001a34:	d90f      	bls.n	8001a56 <NVIC_EncodePriority+0x3a>
 8001a36:	1ec3      	subs	r3, r0, #3

  return (
           ((PreemptPriority & (uint32_t)((1UL << (PreemptPriorityBits)) - 1UL)) << SubPriorityBits) |
 8001a38:	f04f 3eff 	mov.w	lr, #4294967295	@ 0xffffffff
 8001a3c:	fa0e f00c 	lsl.w	r0, lr, ip
 8001a40:	ea21 0100 	bic.w	r1, r1, r0
 8001a44:	4099      	lsls	r1, r3
           ((SubPriority     & (uint32_t)((1UL << (SubPriorityBits    )) - 1UL)))
 8001a46:	fa0e fe03 	lsl.w	lr, lr, r3
 8001a4a:	ea22 020e 	bic.w	r2, r2, lr
         );
}
 8001a4e:	ea41 0002 	orr.w	r0, r1, r2
 8001a52:	f85d fb04 	ldr.w	pc, [sp], #4
  SubPriorityBits     = ((PriorityGroupTmp + (uint32_t)(__NVIC_PRIO_BITS)) < (uint32_t)7UL) ? (uint32_t)0UL : (uint32_t)((PriorityGroupTmp - 7UL) + (uint32_t)(__NVIC_PRIO_BITS));
 8001a56:	2300      	movs	r3, #0
 8001a58:	e7ee      	b.n	8001a38 <NVIC_EncodePriority+0x1c>
	...

08001a5c <HAL_NVIC_SetPriorityGrouping>:
  reg_value  =  SCB->AIRCR;                                                   /* read old register configuration    */
 8001a5c:	4a07      	ldr	r2, [pc, #28]	@ (8001a7c <HAL_NVIC_SetPriorityGrouping+0x20>)
 8001a5e:	68d3      	ldr	r3, [r2, #12]
  reg_value &= ~((uint32_t)(SCB_AIRCR_VECTKEY_Msk | SCB_AIRCR_PRIGROUP_Msk)); /* clear bits to change               */
 8001a60:	f423 63e0 	bic.w	r3, r3, #1792	@ 0x700
 8001a64:	041b      	lsls	r3, r3, #16
 8001a66:	0c1b      	lsrs	r3, r3, #16
                (PriorityGroupTmp << SCB_AIRCR_PRIGROUP_Pos)  );              /* Insert write key and priority group */
 8001a68:	0200      	lsls	r0, r0, #8
 8001a6a:	f400 60e0 	and.w	r0, r0, #1792	@ 0x700
                ((uint32_t)0x5FAUL << SCB_AIRCR_VECTKEY_Pos) |
 8001a6e:	4303      	orrs	r3, r0
  reg_value  =  (reg_value                                   |
 8001a70:	f043 63bf 	orr.w	r3, r3, #100139008	@ 0x5f80000
 8001a74:	f443 3300 	orr.w	r3, r3, #131072	@ 0x20000
  SCB->AIRCR =  reg_value;
 8001a78:	60d3      	str	r3, [r2, #12]
  /* Check the parameters */
  assert_param(IS_NVIC_PRIORITY_GROUP(PriorityGroup));
  
  /* Set the PRIGROUP[10:8] bits according to the PriorityGroup parameter value */
  NVIC_SetPriorityGrouping(PriorityGroup);
}
 8001a7a:	4770      	bx	lr
 8001a7c:	e000ed00 	.word	0xe000ed00

08001a80 <HAL_NVIC_SetPriority>:
  *         This parameter can be a value between 0 and 15
  *         A lower priority value indicates a higher priority.          
  * @retval None
  */
void HAL_NVIC_SetPriority(IRQn_Type IRQn, uint32_t PreemptPriority, uint32_t SubPriority)
{ 
 8001a80:	b510      	push	{r4, lr}
 8001a82:	4604      	mov	r4, r0
  return ((uint32_t)((SCB->AIRCR & SCB_AIRCR_PRIGROUP_Msk) >> SCB_AIRCR_PRIGROUP_Pos));
 8001a84:	4b05      	ldr	r3, [pc, #20]	@ (8001a9c <HAL_NVIC_SetPriority+0x1c>)
 8001a86:	68d8      	ldr	r0, [r3, #12]
  assert_param(IS_NVIC_SUB_PRIORITY(SubPriority));
  assert_param(IS_NVIC_PREEMPTION_PRIORITY(PreemptPriority));
  
  prioritygroup = NVIC_GetPriorityGrouping();
  
  NVIC_SetPriority(IRQn, NVIC_EncodePriority(prioritygroup, PreemptPriority, SubPriority));
 8001a88:	f3c0 2002 	ubfx	r0, r0, #8, #3
 8001a8c:	f7ff ffc6 	bl	8001a1c <NVIC_EncodePriority>
 8001a90:	4601      	mov	r1, r0
 8001a92:	4620      	mov	r0, r4
 8001a94:	f7ff ffae 	bl	80019f4 <__NVIC_SetPriority>
}
 8001a98:	bd10      	pop	{r4, pc}
 8001a9a:	bf00      	nop
 8001a9c:	e000ed00 	.word	0xe000ed00

08001aa0 <HAL_NVIC_EnableIRQ>:
  *         This parameter can be an enumerator of IRQn_Type enumeration
  *         (For the complete STM32 Devices IRQ Channels list, please refer to the appropriate CMSIS device file (stm32f4xxxx.h))
  * @retval None
  */
void HAL_NVIC_EnableIRQ(IRQn_Type IRQn)
{
 8001aa0:	b508      	push	{r3, lr}
  /* Check the parameters */
  assert_param(IS_NVIC_DEVICE_IRQ(IRQn));
  
  /* Enable interrupt */
  NVIC_EnableIRQ(IRQn);
 8001aa2:	f7ff ff99 	bl	80019d8 <__NVIC_EnableIRQ>
}
 8001aa6:	bd08      	pop	{r3, pc}

08001aa8 <HAL_SYSTICK_Config>:
           function <b>SysTick_Config</b> is not included. In this case, the file <b><i>device</i>.h</b>
           must contain a vendor-specific implementation of this function.
 */
__STATIC_INLINE uint32_t SysTick_Config(uint32_t ticks)
{
  if ((ticks - 1UL) > SysTick_LOAD_RELOAD_Msk)
 8001aa8:	3801      	subs	r0, #1
 8001aaa:	f1b0 7f80 	cmp.w	r0, #16777216	@ 0x1000000
 8001aae:	d20b      	bcs.n	8001ac8 <HAL_SYSTICK_Config+0x20>
  {
    return (1UL);                                                   /* Reload value impossible */
  }

  SysTick->LOAD  = (uint32_t)(ticks - 1UL);                         /* set reload register */
 8001ab0:	f04f 23e0 	mov.w	r3, #3758153728	@ 0xe000e000
 8001ab4:	6158      	str	r0, [r3, #20]
    SCB->SHP[(((uint32_t)IRQn) & 0xFUL)-4UL] = (uint8_t)((priority << (8U - __NVIC_PRIO_BITS)) & (uint32_t)0xFFUL);
 8001ab6:	4a05      	ldr	r2, [pc, #20]	@ (8001acc <HAL_SYSTICK_Config+0x24>)
 8001ab8:	21f0      	movs	r1, #240	@ 0xf0
 8001aba:	f882 1023 	strb.w	r1, [r2, #35]	@ 0x23
  NVIC_SetPriority (SysTick_IRQn, (1UL << __NVIC_PRIO_BITS) - 1UL); /* set Priority for Systick Interrupt */
  SysTick->VAL   = 0UL;                                             /* Load the SysTick Counter Value */
 8001abe:	2000      	movs	r0, #0
 8001ac0:	6198      	str	r0, [r3, #24]
  SysTick->CTRL  = SysTick_CTRL_CLKSOURCE_Msk |
 8001ac2:	2207      	movs	r2, #7
 8001ac4:	611a      	str	r2, [r3, #16]
                   SysTick_CTRL_TICKINT_Msk   |
                   SysTick_CTRL_ENABLE_Msk;                         /* Enable SysTick IRQ and SysTick Timer */
  return (0UL);                                                     /* Function successful */
 8001ac6:	4770      	bx	lr
    return (1UL);                                                   /* Reload value impossible */
 8001ac8:	2001      	movs	r0, #1
  *                  - 1  Function failed.
  */
uint32_t HAL_SYSTICK_Config(uint32_t TicksNumb)
{
   return SysTick_Config(TicksNumb);
}
 8001aca:	4770      	bx	lr
 8001acc:	e000ed00 	.word	0xe000ed00

08001ad0 <HAL_GPIO_Init>:
  assert_param(IS_GPIO_ALL_INSTANCE(GPIOx));
  assert_param(IS_GPIO_PIN(GPIO_Init->Pin));
  assert_param(IS_GPIO_MODE(GPIO_Init->Mode));

  /* Configure the port pins */
  for(position = 0U; position < GPIO_NUMBER; position++)
 8001ad0:	2300      	movs	r3, #0
 8001ad2:	2b0f      	cmp	r3, #15
 8001ad4:	f200 80d7 	bhi.w	8001c86 <HAL_GPIO_Init+0x1b6>
{
 8001ad8:	b570      	push	{r4, r5, r6, lr}
 8001ada:	b082      	sub	sp, #8
 8001adc:	e065      	b.n	8001baa <HAL_GPIO_Init+0xda>
          (GPIO_Init->Mode & GPIO_MODE) == MODE_AF)
      {
        /* Check the Speed parameter */
        assert_param(IS_GPIO_SPEED(GPIO_Init->Speed));
        /* Configure the IO Speed */
        temp = GPIOx->OSPEEDR; 
 8001ade:	6885      	ldr	r5, [r0, #8]
        temp &= ~(GPIO_OSPEEDER_OSPEEDR0 << (position * 2U));
 8001ae0:	ea4f 0e43 	mov.w	lr, r3, lsl #1
 8001ae4:	2403      	movs	r4, #3
 8001ae6:	fa04 f40e 	lsl.w	r4, r4, lr
 8001aea:	ea25 0504 	bic.w	r5, r5, r4
        temp |= (GPIO_Init->Speed << (position * 2U));
 8001aee:	68cc      	ldr	r4, [r1, #12]
 8001af0:	fa04 f40e 	lsl.w	r4, r4, lr
 8001af4:	432c      	orrs	r4, r5
        GPIOx->OSPEEDR = temp;
 8001af6:	6084      	str	r4, [r0, #8]

        /* Configure the IO Output Type */
        temp = GPIOx->OTYPER;
 8001af8:	6844      	ldr	r4, [r0, #4]
        temp &= ~(GPIO_OTYPER_OT_0 << position) ;
 8001afa:	ea24 0402 	bic.w	r4, r4, r2
        temp |= (((GPIO_Init->Mode & OUTPUT_TYPE) >> OUTPUT_TYPE_Pos) << position);
 8001afe:	684a      	ldr	r2, [r1, #4]
 8001b00:	f3c2 1200 	ubfx	r2, r2, #4, #1
 8001b04:	409a      	lsls	r2, r3
 8001b06:	4322      	orrs	r2, r4
        GPIOx->OTYPER = temp;
 8001b08:	6042      	str	r2, [r0, #4]
 8001b0a:	e05c      	b.n	8001bc6 <HAL_GPIO_Init+0xf6>
      if((GPIO_Init->Mode & GPIO_MODE) == MODE_AF)
      {
        /* Check the Alternate function parameter */
        assert_param(IS_GPIO_AF(GPIO_Init->Alternate));
        /* Configure Alternate function mapped with the current IO */
        temp = GPIOx->AFR[position >> 3U];
 8001b0c:	08dc      	lsrs	r4, r3, #3
 8001b0e:	3408      	adds	r4, #8
 8001b10:	f850 2024 	ldr.w	r2, [r0, r4, lsl #2]
        temp &= ~(0xFU << ((uint32_t)(position & 0x07U) * 4U)) ;
 8001b14:	f003 0507 	and.w	r5, r3, #7
 8001b18:	00ad      	lsls	r5, r5, #2
 8001b1a:	f04f 0e0f 	mov.w	lr, #15
 8001b1e:	fa0e fe05 	lsl.w	lr, lr, r5
 8001b22:	ea22 0e0e 	bic.w	lr, r2, lr
        temp |= ((uint32_t)(GPIO_Init->Alternate) << (((uint32_t)position & 0x07U) * 4U));
 8001b26:	690a      	ldr	r2, [r1, #16]
 8001b28:	40aa      	lsls	r2, r5
 8001b2a:	ea42 020e 	orr.w	r2, r2, lr
        GPIOx->AFR[position >> 3U] = temp;
 8001b2e:	f840 2024 	str.w	r2, [r0, r4, lsl #2]
 8001b32:	e05c      	b.n	8001bee <HAL_GPIO_Init+0x11e>
        /* Enable SYSCFG Clock */
        __HAL_RCC_SYSCFG_CLK_ENABLE();

        temp = SYSCFG->EXTICR[position >> 2U];
        temp &= ~(0x0FU << (4U * (position & 0x03U)));
        temp |= ((uint32_t)(GPIO_GET_INDEX(GPIOx)) << (4U * (position & 0x03U)));
 8001b34:	2204      	movs	r2, #4
 8001b36:	e000      	b.n	8001b3a <HAL_GPIO_Init+0x6a>
 8001b38:	2200      	movs	r2, #0
 8001b3a:	fa02 f20e 	lsl.w	r2, r2, lr
 8001b3e:	432a      	orrs	r2, r5
        SYSCFG->EXTICR[position >> 2U] = temp;
 8001b40:	3402      	adds	r4, #2
 8001b42:	4d51      	ldr	r5, [pc, #324]	@ (8001c88 <HAL_GPIO_Init+0x1b8>)
 8001b44:	f845 2024 	str.w	r2, [r5, r4, lsl #2]

        /* Clear Rising Falling edge configuration */
        temp = EXTI->RTSR;
 8001b48:	4a50      	ldr	r2, [pc, #320]	@ (8001c8c <HAL_GPIO_Init+0x1bc>)
 8001b4a:	6894      	ldr	r4, [r2, #8]
        temp &= ~((uint32_t)iocurrent);
 8001b4c:	ea6f 020c 	mvn.w	r2, ip
 8001b50:	ea24 050c 	bic.w	r5, r4, ip
        if((GPIO_Init->Mode & TRIGGER_RISING) != 0x00U)
 8001b54:	684e      	ldr	r6, [r1, #4]
 8001b56:	f416 1f80 	tst.w	r6, #1048576	@ 0x100000
 8001b5a:	d001      	beq.n	8001b60 <HAL_GPIO_Init+0x90>
        {
          temp |= iocurrent;
 8001b5c:	ea4c 0504 	orr.w	r5, ip, r4
        }
        EXTI->RTSR = temp;
 8001b60:	4c4a      	ldr	r4, [pc, #296]	@ (8001c8c <HAL_GPIO_Init+0x1bc>)
 8001b62:	60a5      	str	r5, [r4, #8]

        temp = EXTI->FTSR;
 8001b64:	68e4      	ldr	r4, [r4, #12]
        temp &= ~((uint32_t)iocurrent);
 8001b66:	ea02 0504 	and.w	r5, r2, r4
        if((GPIO_Init->Mode & TRIGGER_FALLING) != 0x00U)
 8001b6a:	684e      	ldr	r6, [r1, #4]
 8001b6c:	f416 1f00 	tst.w	r6, #2097152	@ 0x200000
 8001b70:	d001      	beq.n	8001b76 <HAL_GPIO_Init+0xa6>
        {
          temp |= iocurrent;
 8001b72:	ea4c 0504 	orr.w	r5, ip, r4
        }
        EXTI->FTSR = temp;
 8001b76:	4c45      	ldr	r4, [pc, #276]	@ (8001c8c <HAL_GPIO_Init+0x1bc>)
 8001b78:	60e5      	str	r5, [r4, #12]

        temp = EXTI->EMR;
 8001b7a:	6864      	ldr	r4, [r4, #4]
        temp &= ~((uint32_t)iocurrent);
 8001b7c:	ea02 0504 	and.w	r5, r2, r4
        if((GPIO_Init->Mode & EXTI_EVT) != 0x00U)
 8001b80:	684e      	ldr	r6, [r1, #4]
 8001b82:	f416 3f00 	tst.w	r6, #131072	@ 0x20000
 8001b86:	d001      	beq.n	8001b8c <HAL_GPIO_Init+0xbc>
        {
          temp |= iocurrent;
 8001b88:	ea4c 0504 	orr.w	r5, ip, r4
        }
        EXTI->EMR = temp;
 8001b8c:	4c3f      	ldr	r4, [pc, #252]	@ (8001c8c <HAL_GPIO_Init+0x1bc>)
 8001b8e:	6065      	str	r5, [r4, #4]

        /* Clear EXTI line configuration */
        temp = EXTI->IMR;
 8001b90:	6824      	ldr	r4, [r4, #0]
        temp &= ~((uint32_t)iocurrent);
 8001b92:	4022      	ands	r2, r4
        if((GPIO_Init->Mode & EXTI_IT) != 0x00U)
 8001b94:	684d      	ldr	r5, [r1, #4]
 8001b96:	f415 3f80 	tst.w	r5, #65536	@ 0x10000
 8001b9a:	d001      	beq.n	8001ba0 <HAL_GPIO_Init+0xd0>
        {
          temp |= iocurrent;
 8001b9c:	ea4c 0204 	orr.w	r2, ip, r4
        }
        EXTI->IMR = temp;
 8001ba0:	4c3a      	ldr	r4, [pc, #232]	@ (8001c8c <HAL_GPIO_Init+0x1bc>)
 8001ba2:	6022      	str	r2, [r4, #0]
  for(position = 0U; position < GPIO_NUMBER; position++)
 8001ba4:	3301      	adds	r3, #1
 8001ba6:	2b0f      	cmp	r3, #15
 8001ba8:	d86b      	bhi.n	8001c82 <HAL_GPIO_Init+0x1b2>
    ioposition = 0x01U << position;
 8001baa:	2201      	movs	r2, #1
 8001bac:	409a      	lsls	r2, r3
    iocurrent = (uint32_t)(GPIO_Init->Pin) & ioposition;
 8001bae:	680c      	ldr	r4, [r1, #0]
 8001bb0:	ea04 0c02 	and.w	ip, r4, r2
    if(iocurrent == ioposition)
 8001bb4:	ea32 0404 	bics.w	r4, r2, r4
 8001bb8:	d1f4      	bne.n	8001ba4 <HAL_GPIO_Init+0xd4>
      if(((GPIO_Init->Mode & GPIO_MODE) == MODE_OUTPUT) || \
 8001bba:	684c      	ldr	r4, [r1, #4]
 8001bbc:	f004 0403 	and.w	r4, r4, #3
 8001bc0:	3c01      	subs	r4, #1
 8001bc2:	2c01      	cmp	r4, #1
 8001bc4:	d98b      	bls.n	8001ade <HAL_GPIO_Init+0xe>
      if((GPIO_Init->Mode & GPIO_MODE) != MODE_ANALOG)
 8001bc6:	684a      	ldr	r2, [r1, #4]
 8001bc8:	f002 0203 	and.w	r2, r2, #3
 8001bcc:	2a03      	cmp	r2, #3
 8001bce:	d009      	beq.n	8001be4 <HAL_GPIO_Init+0x114>
        temp = GPIOx->PUPDR;
 8001bd0:	68c4      	ldr	r4, [r0, #12]
        temp &= ~(GPIO_PUPDR_PUPDR0 << (position * 2U));
 8001bd2:	005d      	lsls	r5, r3, #1
 8001bd4:	2203      	movs	r2, #3
 8001bd6:	40aa      	lsls	r2, r5
 8001bd8:	ea24 0402 	bic.w	r4, r4, r2
        temp |= ((GPIO_Init->Pull) << (position * 2U));
 8001bdc:	688a      	ldr	r2, [r1, #8]
 8001bde:	40aa      	lsls	r2, r5
 8001be0:	4322      	orrs	r2, r4
        GPIOx->PUPDR = temp;
 8001be2:	60c2      	str	r2, [r0, #12]
      if((GPIO_Init->Mode & GPIO_MODE) == MODE_AF)
 8001be4:	684a      	ldr	r2, [r1, #4]
 8001be6:	f002 0203 	and.w	r2, r2, #3
 8001bea:	2a02      	cmp	r2, #2
 8001bec:	d08e      	beq.n	8001b0c <HAL_GPIO_Init+0x3c>
      temp = GPIOx->MODER;
 8001bee:	6804      	ldr	r4, [r0, #0]
      temp &= ~(GPIO_MODER_MODER0 << (position * 2U));
 8001bf0:	ea4f 0e43 	mov.w	lr, r3, lsl #1
 8001bf4:	2203      	movs	r2, #3
 8001bf6:	fa02 f20e 	lsl.w	r2, r2, lr
 8001bfa:	ea24 0402 	bic.w	r4, r4, r2
      temp |= ((GPIO_Init->Mode & GPIO_MODE) << (position * 2U));
 8001bfe:	684a      	ldr	r2, [r1, #4]
 8001c00:	f002 0203 	and.w	r2, r2, #3
 8001c04:	fa02 f20e 	lsl.w	r2, r2, lr
 8001c08:	4322      	orrs	r2, r4
      GPIOx->MODER = temp;
 8001c0a:	6002      	str	r2, [r0, #0]
      if((GPIO_Init->Mode & EXTI_MODE) != 0x00U)
 8001c0c:	684a      	ldr	r2, [r1, #4]
 8001c0e:	f412 3f40 	tst.w	r2, #196608	@ 0x30000
 8001c12:	d0c7      	beq.n	8001ba4 <HAL_GPIO_Init+0xd4>
        __HAL_RCC_SYSCFG_CLK_ENABLE();
 8001c14:	2200      	movs	r2, #0
 8001c16:	9201      	str	r2, [sp, #4]
 8001c18:	4a1d      	ldr	r2, [pc, #116]	@ (8001c90 <HAL_GPIO_Init+0x1c0>)
 8001c1a:	6c54      	ldr	r4, [r2, #68]	@ 0x44
 8001c1c:	f444 4480 	orr.w	r4, r4, #16384	@ 0x4000
 8001c20:	6454      	str	r4, [r2, #68]	@ 0x44
 8001c22:	6c52      	ldr	r2, [r2, #68]	@ 0x44
 8001c24:	f402 4280 	and.w	r2, r2, #16384	@ 0x4000
 8001c28:	9201      	str	r2, [sp, #4]
 8001c2a:	9a01      	ldr	r2, [sp, #4]
        temp = SYSCFG->EXTICR[position >> 2U];
 8001c2c:	089c      	lsrs	r4, r3, #2
 8001c2e:	1ca5      	adds	r5, r4, #2
 8001c30:	4a15      	ldr	r2, [pc, #84]	@ (8001c88 <HAL_GPIO_Init+0x1b8>)
 8001c32:	f852 5025 	ldr.w	r5, [r2, r5, lsl #2]
        temp &= ~(0x0FU << (4U * (position & 0x03U)));
 8001c36:	f003 0e03 	and.w	lr, r3, #3
 8001c3a:	ea4f 0e8e 	mov.w	lr, lr, lsl #2
 8001c3e:	220f      	movs	r2, #15
 8001c40:	fa02 f20e 	lsl.w	r2, r2, lr
 8001c44:	ea25 0502 	bic.w	r5, r5, r2
        temp |= ((uint32_t)(GPIO_GET_INDEX(GPIOx)) << (4U * (position & 0x03U)));
 8001c48:	4a12      	ldr	r2, [pc, #72]	@ (8001c94 <HAL_GPIO_Init+0x1c4>)
 8001c4a:	4290      	cmp	r0, r2
 8001c4c:	f43f af74 	beq.w	8001b38 <HAL_GPIO_Init+0x68>
 8001c50:	f502 6280 	add.w	r2, r2, #1024	@ 0x400
 8001c54:	4290      	cmp	r0, r2
 8001c56:	d00e      	beq.n	8001c76 <HAL_GPIO_Init+0x1a6>
 8001c58:	f502 6280 	add.w	r2, r2, #1024	@ 0x400
 8001c5c:	4290      	cmp	r0, r2
 8001c5e:	d00c      	beq.n	8001c7a <HAL_GPIO_Init+0x1aa>
 8001c60:	f502 6280 	add.w	r2, r2, #1024	@ 0x400
 8001c64:	4290      	cmp	r0, r2
 8001c66:	d00a      	beq.n	8001c7e <HAL_GPIO_Init+0x1ae>
 8001c68:	f502 6280 	add.w	r2, r2, #1024	@ 0x400
 8001c6c:	4290      	cmp	r0, r2
 8001c6e:	f43f af61 	beq.w	8001b34 <HAL_GPIO_Init+0x64>
 8001c72:	2207      	movs	r2, #7
 8001c74:	e761      	b.n	8001b3a <HAL_GPIO_Init+0x6a>
 8001c76:	2201      	movs	r2, #1
 8001c78:	e75f      	b.n	8001b3a <HAL_GPIO_Init+0x6a>
 8001c7a:	2202      	movs	r2, #2
 8001c7c:	e75d      	b.n	8001b3a <HAL_GPIO_Init+0x6a>
 8001c7e:	2203      	movs	r2, #3
 8001c80:	e75b      	b.n	8001b3a <HAL_GPIO_Init+0x6a>
      }
    }
  }
}
 8001c82:	b002      	add	sp, #8
 8001c84:	bd70      	pop	{r4, r5, r6, pc}
 8001c86:	4770      	bx	lr
 8001c88:	40013800 	.word	0x40013800
 8001c8c:	40013c00 	.word	0x40013c00
 8001c90:	40023800 	.word	0x40023800
 8001c94:	40020000 	.word	0x40020000

08001c98 <I2C_IsAcknowledgeFailed>:
  *                the configuration information for the specified I2C.
  * @retval HAL status
  */
static HAL_StatusTypeDef I2C_IsAcknowledgeFailed(I2C_HandleTypeDef *hi2c)
{
  if (__HAL_I2C_GET_FLAG(hi2c, I2C_FLAG_AF) == SET)
 8001c98:	6803      	ldr	r3, [r0, #0]
 8001c9a:	695a      	ldr	r2, [r3, #20]
 8001c9c:	f412 6f80 	tst.w	r2, #1024	@ 0x400
 8001ca0:	d101      	bne.n	8001ca6 <I2C_IsAcknowledgeFailed+0xe>
    /* Process Unlocked */
    __HAL_UNLOCK(hi2c);

    return HAL_ERROR;
  }
  return HAL_OK;
 8001ca2:	2000      	movs	r0, #0
}
 8001ca4:	4770      	bx	lr
    __HAL_I2C_CLEAR_FLAG(hi2c, I2C_FLAG_AF);
 8001ca6:	f46f 6280 	mvn.w	r2, #1024	@ 0x400
 8001caa:	615a      	str	r2, [r3, #20]
    hi2c->PreviousState       = I2C_STATE_NONE;
 8001cac:	2300      	movs	r3, #0
 8001cae:	6303      	str	r3, [r0, #48]	@ 0x30
    hi2c->State               = HAL_I2C_STATE_READY;
 8001cb0:	2220      	movs	r2, #32
 8001cb2:	f880 203d 	strb.w	r2, [r0, #61]	@ 0x3d
    hi2c->Mode                = HAL_I2C_MODE_NONE;
 8001cb6:	f880 303e 	strb.w	r3, [r0, #62]	@ 0x3e
    hi2c->ErrorCode           |= HAL_I2C_ERROR_AF;
 8001cba:	6c02      	ldr	r2, [r0, #64]	@ 0x40
 8001cbc:	f042 0204 	orr.w	r2, r2, #4
 8001cc0:	6402      	str	r2, [r0, #64]	@ 0x40
    __HAL_UNLOCK(hi2c);
 8001cc2:	f880 303c 	strb.w	r3, [r0, #60]	@ 0x3c
    return HAL_ERROR;
 8001cc6:	2001      	movs	r0, #1
 8001cc8:	4770      	bx	lr

08001cca <I2C_WaitOnFlagUntilTimeout>:
{
 8001cca:	e92d 41f0 	stmdb	sp!, {r4, r5, r6, r7, r8, lr}
 8001cce:	4606      	mov	r6, r0
 8001cd0:	460c      	mov	r4, r1
 8001cd2:	4617      	mov	r7, r2
 8001cd4:	4698      	mov	r8, r3
  while (__HAL_I2C_GET_FLAG(hi2c, Flag) == Status)
 8001cd6:	e03b      	b.n	8001d50 <I2C_WaitOnFlagUntilTimeout+0x86>
      if (((HAL_GetTick() - Tickstart) > Timeout) || (Timeout == 0U))
 8001cd8:	f7ff fe64 	bl	80019a4 <HAL_GetTick>
 8001cdc:	9b06      	ldr	r3, [sp, #24]
 8001cde:	1ac0      	subs	r0, r0, r3
 8001ce0:	4540      	cmp	r0, r8
 8001ce2:	d802      	bhi.n	8001cea <I2C_WaitOnFlagUntilTimeout+0x20>
 8001ce4:	f1b8 0f00 	cmp.w	r8, #0
 8001ce8:	d132      	bne.n	8001d50 <I2C_WaitOnFlagUntilTimeout+0x86>
        if ((__HAL_I2C_GET_FLAG(hi2c, Flag) == Status))
 8001cea:	2d01      	cmp	r5, #1
 8001cec:	d018      	beq.n	8001d20 <I2C_WaitOnFlagUntilTimeout+0x56>
 8001cee:	6833      	ldr	r3, [r6, #0]
 8001cf0:	699b      	ldr	r3, [r3, #24]
 8001cf2:	ea24 0303 	bic.w	r3, r4, r3
 8001cf6:	b29b      	uxth	r3, r3
 8001cf8:	fab3 f383 	clz	r3, r3
 8001cfc:	095b      	lsrs	r3, r3, #5
 8001cfe:	429f      	cmp	r7, r3
 8001d00:	d126      	bne.n	8001d50 <I2C_WaitOnFlagUntilTimeout+0x86>
          hi2c->PreviousState     = I2C_STATE_NONE;
 8001d02:	2300      	movs	r3, #0
 8001d04:	6333      	str	r3, [r6, #48]	@ 0x30
          hi2c->State             = HAL_I2C_STATE_READY;
 8001d06:	2220      	movs	r2, #32
 8001d08:	f886 203d 	strb.w	r2, [r6, #61]	@ 0x3d
          hi2c->Mode              = HAL_I2C_MODE_NONE;
 8001d0c:	f886 303e 	strb.w	r3, [r6, #62]	@ 0x3e
          hi2c->ErrorCode         |= HAL_I2C_ERROR_TIMEOUT;
 8001d10:	6c32      	ldr	r2, [r6, #64]	@ 0x40
 8001d12:	f042 0220 	orr.w	r2, r2, #32
 8001d16:	6432      	str	r2, [r6, #64]	@ 0x40
          __HAL_UNLOCK(hi2c);
 8001d18:	f886 303c 	strb.w	r3, [r6, #60]	@ 0x3c
          return HAL_ERROR;
 8001d1c:	2001      	movs	r0, #1
 8001d1e:	e027      	b.n	8001d70 <I2C_WaitOnFlagUntilTimeout+0xa6>
        if ((__HAL_I2C_GET_FLAG(hi2c, Flag) == Status))
 8001d20:	6833      	ldr	r3, [r6, #0]
 8001d22:	695b      	ldr	r3, [r3, #20]
 8001d24:	ea24 0303 	bic.w	r3, r4, r3
 8001d28:	b29b      	uxth	r3, r3
 8001d2a:	fab3 f383 	clz	r3, r3
 8001d2e:	095b      	lsrs	r3, r3, #5
 8001d30:	e7e5      	b.n	8001cfe <I2C_WaitOnFlagUntilTimeout+0x34>
  while (__HAL_I2C_GET_FLAG(hi2c, Flag) == Status)
 8001d32:	6833      	ldr	r3, [r6, #0]
 8001d34:	695b      	ldr	r3, [r3, #20]
 8001d36:	ea24 0c03 	bic.w	ip, r4, r3
 8001d3a:	fa1f fc8c 	uxth.w	ip, ip
 8001d3e:	fabc fc8c 	clz	ip, ip
 8001d42:	ea4f 1c5c 	mov.w	ip, ip, lsr #5
 8001d46:	4567      	cmp	r7, ip
 8001d48:	d111      	bne.n	8001d6e <I2C_WaitOnFlagUntilTimeout+0xa4>
    if (Timeout != HAL_MAX_DELAY)
 8001d4a:	f1b8 3fff 	cmp.w	r8, #4294967295	@ 0xffffffff
 8001d4e:	d1c3      	bne.n	8001cd8 <I2C_WaitOnFlagUntilTimeout+0xe>
  while (__HAL_I2C_GET_FLAG(hi2c, Flag) == Status)
 8001d50:	f3c4 4507 	ubfx	r5, r4, #16, #8
 8001d54:	2d01      	cmp	r5, #1
 8001d56:	d0ec      	beq.n	8001d32 <I2C_WaitOnFlagUntilTimeout+0x68>
 8001d58:	6833      	ldr	r3, [r6, #0]
 8001d5a:	699b      	ldr	r3, [r3, #24]
 8001d5c:	ea24 0c03 	bic.w	ip, r4, r3
 8001d60:	fa1f fc8c 	uxth.w	ip, ip
 8001d64:	fabc fc8c 	clz	ip, ip
 8001d68:	ea4f 1c5c 	mov.w	ip, ip, lsr #5
 8001d6c:	e7eb      	b.n	8001d46 <I2C_WaitOnFlagUntilTimeout+0x7c>
  return HAL_OK;
 8001d6e:	2000      	movs	r0, #0
}
 8001d70:	e8bd 81f0 	ldmia.w	sp!, {r4, r5, r6, r7, r8, pc}

08001d74 <I2C_WaitOnMasterAddressFlagUntilTimeout>:
{
 8001d74:	e92d 43f8 	stmdb	sp!, {r3, r4, r5, r6, r7, r8, r9, lr}
 8001d78:	4605      	mov	r5, r0
 8001d7a:	460e      	mov	r6, r1
 8001d7c:	4690      	mov	r8, r2
 8001d7e:	4699      	mov	r9, r3
  while (__HAL_I2C_GET_FLAG(hi2c, Flag) == RESET)
 8001d80:	e053      	b.n	8001e2a <I2C_WaitOnMasterAddressFlagUntilTimeout+0xb6>
      SET_BIT(hi2c->Instance->CR1, I2C_CR1_STOP);
 8001d82:	681a      	ldr	r2, [r3, #0]
 8001d84:	f442 7200 	orr.w	r2, r2, #512	@ 0x200
 8001d88:	601a      	str	r2, [r3, #0]
      __HAL_I2C_CLEAR_FLAG(hi2c, I2C_FLAG_AF);
 8001d8a:	682b      	ldr	r3, [r5, #0]
 8001d8c:	f46f 6280 	mvn.w	r2, #1024	@ 0x400
 8001d90:	615a      	str	r2, [r3, #20]
      hi2c->PreviousState       = I2C_STATE_NONE;
 8001d92:	2300      	movs	r3, #0
 8001d94:	632b      	str	r3, [r5, #48]	@ 0x30
      hi2c->State               = HAL_I2C_STATE_READY;
 8001d96:	2220      	movs	r2, #32
 8001d98:	f885 203d 	strb.w	r2, [r5, #61]	@ 0x3d
      hi2c->Mode                = HAL_I2C_MODE_NONE;
 8001d9c:	f885 303e 	strb.w	r3, [r5, #62]	@ 0x3e
      hi2c->ErrorCode           |= HAL_I2C_ERROR_AF;
 8001da0:	6c2a      	ldr	r2, [r5, #64]	@ 0x40
 8001da2:	f042 0204 	orr.w	r2, r2, #4
 8001da6:	642a      	str	r2, [r5, #64]	@ 0x40
      __HAL_UNLOCK(hi2c);
 8001da8:	f885 303c 	strb.w	r3, [r5, #60]	@ 0x3c
      return HAL_ERROR;
 8001dac:	2001      	movs	r0, #1
 8001dae:	e04a      	b.n	8001e46 <I2C_WaitOnMasterAddressFlagUntilTimeout+0xd2>
      if (((HAL_GetTick() - Tickstart) > Timeout) || (Timeout == 0U))
 8001db0:	f7ff fdf8 	bl	80019a4 <HAL_GetTick>
 8001db4:	eba0 0009 	sub.w	r0, r0, r9
 8001db8:	4540      	cmp	r0, r8
 8001dba:	d802      	bhi.n	8001dc2 <I2C_WaitOnMasterAddressFlagUntilTimeout+0x4e>
 8001dbc:	f1b8 0f00 	cmp.w	r8, #0
 8001dc0:	d133      	bne.n	8001e2a <I2C_WaitOnMasterAddressFlagUntilTimeout+0xb6>
        if ((__HAL_I2C_GET_FLAG(hi2c, Flag) == RESET))
 8001dc2:	2f01      	cmp	r7, #1
 8001dc4:	d017      	beq.n	8001df6 <I2C_WaitOnMasterAddressFlagUntilTimeout+0x82>
 8001dc6:	682b      	ldr	r3, [r5, #0]
 8001dc8:	699b      	ldr	r3, [r3, #24]
 8001dca:	ea26 0303 	bic.w	r3, r6, r3
 8001dce:	b29b      	uxth	r3, r3
 8001dd0:	3b00      	subs	r3, #0
 8001dd2:	bf18      	it	ne
 8001dd4:	2301      	movne	r3, #1
 8001dd6:	b343      	cbz	r3, 8001e2a <I2C_WaitOnMasterAddressFlagUntilTimeout+0xb6>
          hi2c->PreviousState       = I2C_STATE_NONE;
 8001dd8:	2300      	movs	r3, #0
 8001dda:	632b      	str	r3, [r5, #48]	@ 0x30
          hi2c->State               = HAL_I2C_STATE_READY;
 8001ddc:	2220      	movs	r2, #32
 8001dde:	f885 203d 	strb.w	r2, [r5, #61]	@ 0x3d
          hi2c->Mode                = HAL_I2C_MODE_NONE;
 8001de2:	f885 303e 	strb.w	r3, [r5, #62]	@ 0x3e
          hi2c->ErrorCode           |= HAL_I2C_ERROR_TIMEOUT;
 8001de6:	6c2a      	ldr	r2, [r5, #64]	@ 0x40
 8001de8:	f042 0220 	orr.w	r2, r2, #32
 8001dec:	642a      	str	r2, [r5, #64]	@ 0x40
          __HAL_UNLOCK(hi2c);
 8001dee:	f885 303c 	strb.w	r3, [r5, #60]	@ 0x3c
          return HAL_ERROR;
 8001df2:	2001      	movs	r0, #1
 8001df4:	e027      	b.n	8001e46 <I2C_WaitOnMasterAddressFlagUntilTimeout+0xd2>
        if ((__HAL_I2C_GET_FLAG(hi2c, Flag) == RESET))
 8001df6:	682b      	ldr	r3, [r5, #0]
 8001df8:	695b      	ldr	r3, [r3, #20]
 8001dfa:	ea26 0303 	bic.w	r3, r6, r3
 8001dfe:	b29b      	uxth	r3, r3
 8001e00:	3b00      	subs	r3, #0
 8001e02:	bf18      	it	ne
 8001e04:	2301      	movne	r3, #1
 8001e06:	e7e6      	b.n	8001dd6 <I2C_WaitOnMasterAddressFlagUntilTimeout+0x62>
  while (__HAL_I2C_GET_FLAG(hi2c, Flag) == RESET)
 8001e08:	682b      	ldr	r3, [r5, #0]
 8001e0a:	699c      	ldr	r4, [r3, #24]
 8001e0c:	ea26 0404 	bic.w	r4, r6, r4
 8001e10:	b2a4      	uxth	r4, r4
 8001e12:	3c00      	subs	r4, #0
 8001e14:	bf18      	it	ne
 8001e16:	2401      	movne	r4, #1
 8001e18:	b1a4      	cbz	r4, 8001e44 <I2C_WaitOnMasterAddressFlagUntilTimeout+0xd0>
    if (__HAL_I2C_GET_FLAG(hi2c, I2C_FLAG_AF) == SET)
 8001e1a:	682b      	ldr	r3, [r5, #0]
 8001e1c:	695a      	ldr	r2, [r3, #20]
 8001e1e:	f412 6f80 	tst.w	r2, #1024	@ 0x400
 8001e22:	d1ae      	bne.n	8001d82 <I2C_WaitOnMasterAddressFlagUntilTimeout+0xe>
    if (Timeout != HAL_MAX_DELAY)
 8001e24:	f1b8 3fff 	cmp.w	r8, #4294967295	@ 0xffffffff
 8001e28:	d1c2      	bne.n	8001db0 <I2C_WaitOnMasterAddressFlagUntilTimeout+0x3c>
  while (__HAL_I2C_GET_FLAG(hi2c, Flag) == RESET)
 8001e2a:	f3c6 4707 	ubfx	r7, r6, #16, #8
 8001e2e:	2f01      	cmp	r7, #1
 8001e30:	d1ea      	bne.n	8001e08 <I2C_WaitOnMasterAddressFlagUntilTimeout+0x94>
 8001e32:	682b      	ldr	r3, [r5, #0]
 8001e34:	695c      	ldr	r4, [r3, #20]
 8001e36:	ea26 0404 	bic.w	r4, r6, r4
 8001e3a:	b2a4      	uxth	r4, r4
 8001e3c:	3c00      	subs	r4, #0
 8001e3e:	bf18      	it	ne
 8001e40:	2401      	movne	r4, #1
 8001e42:	e7e9      	b.n	8001e18 <I2C_WaitOnMasterAddressFlagUntilTimeout+0xa4>
  return HAL_OK;
 8001e44:	2000      	movs	r0, #0
}
 8001e46:	e8bd 83f8 	ldmia.w	sp!, {r3, r4, r5, r6, r7, r8, r9, pc}

08001e4a <I2C_WaitOnTXEFlagUntilTimeout>:
{
 8001e4a:	b570      	push	{r4, r5, r6, lr}
 8001e4c:	4604      	mov	r4, r0
 8001e4e:	460d      	mov	r5, r1
 8001e50:	4616      	mov	r6, r2
  while (__HAL_I2C_GET_FLAG(hi2c, I2C_FLAG_TXE) == RESET)
 8001e52:	6823      	ldr	r3, [r4, #0]
 8001e54:	695b      	ldr	r3, [r3, #20]
 8001e56:	f013 0f80 	tst.w	r3, #128	@ 0x80
 8001e5a:	d121      	bne.n	8001ea0 <I2C_WaitOnTXEFlagUntilTimeout+0x56>
    if (I2C_IsAcknowledgeFailed(hi2c) != HAL_OK)
 8001e5c:	4620      	mov	r0, r4
 8001e5e:	f7ff ff1b 	bl	8001c98 <I2C_IsAcknowledgeFailed>
 8001e62:	b9f8      	cbnz	r0, 8001ea4 <I2C_WaitOnTXEFlagUntilTimeout+0x5a>
    if (Timeout != HAL_MAX_DELAY)
 8001e64:	f1b5 3fff 	cmp.w	r5, #4294967295	@ 0xffffffff
 8001e68:	d0f3      	beq.n	8001e52 <I2C_WaitOnTXEFlagUntilTimeout+0x8>
      if (((HAL_GetTick() - Tickstart) > Timeout) || (Timeout == 0U))
 8001e6a:	f7ff fd9b 	bl	80019a4 <HAL_GetTick>
 8001e6e:	1b80      	subs	r0, r0, r6
 8001e70:	42a8      	cmp	r0, r5
 8001e72:	d801      	bhi.n	8001e78 <I2C_WaitOnTXEFlagUntilTimeout+0x2e>
 8001e74:	2d00      	cmp	r5, #0
 8001e76:	d1ec      	bne.n	8001e52 <I2C_WaitOnTXEFlagUntilTimeout+0x8>
        if ((__HAL_I2C_GET_FLAG(hi2c, I2C_FLAG_TXE) == RESET))
 8001e78:	6823      	ldr	r3, [r4, #0]
 8001e7a:	695b      	ldr	r3, [r3, #20]
 8001e7c:	f013 0f80 	tst.w	r3, #128	@ 0x80
 8001e80:	d1e7      	bne.n	8001e52 <I2C_WaitOnTXEFlagUntilTimeout+0x8>
          hi2c->PreviousState       = I2C_STATE_NONE;
 8001e82:	2300      	movs	r3, #0
 8001e84:	6323      	str	r3, [r4, #48]	@ 0x30
          hi2c->State               = HAL_I2C_STATE_READY;
 8001e86:	2220      	movs	r2, #32
 8001e88:	f884 203d 	strb.w	r2, [r4, #61]	@ 0x3d
          hi2c->Mode                = HAL_I2C_MODE_NONE;
 8001e8c:	f884 303e 	strb.w	r3, [r4, #62]	@ 0x3e
          hi2c->ErrorCode           |= HAL_I2C_ERROR_TIMEOUT;
 8001e90:	6c22      	ldr	r2, [r4, #64]	@ 0x40
 8001e92:	f042 0220 	orr.w	r2, r2, #32
 8001e96:	6422      	str	r2, [r4, #64]	@ 0x40
          __HAL_UNLOCK(hi2c);
 8001e98:	f884 303c 	strb.w	r3, [r4, #60]	@ 0x3c
          return HAL_ERROR;
 8001e9c:	2001      	movs	r0, #1
 8001e9e:	e000      	b.n	8001ea2 <I2C_WaitOnTXEFlagUntilTimeout+0x58>
  return HAL_OK;
 8001ea0:	2000      	movs	r0, #0
}
 8001ea2:	bd70      	pop	{r4, r5, r6, pc}
      return HAL_ERROR;
 8001ea4:	2001      	movs	r0, #1
 8001ea6:	e7fc      	b.n	8001ea2 <I2C_WaitOnTXEFlagUntilTimeout+0x58>

08001ea8 <I2C_RequestMemoryWrite>:
{
 8001ea8:	e92d 43f0 	stmdb	sp!, {r4, r5, r6, r7, r8, r9, lr}
 8001eac:	b085      	sub	sp, #20
 8001eae:	4604      	mov	r4, r0
 8001eb0:	460d      	mov	r5, r1
 8001eb2:	4691      	mov	r9, r2
 8001eb4:	461f      	mov	r7, r3
 8001eb6:	f8dd 8030 	ldr.w	r8, [sp, #48]	@ 0x30
 8001eba:	9e0d      	ldr	r6, [sp, #52]	@ 0x34
  SET_BIT(hi2c->Instance->CR1, I2C_CR1_START);
 8001ebc:	6803      	ldr	r3, [r0, #0]
 8001ebe:	6819      	ldr	r1, [r3, #0]
 8001ec0:	f441 7180 	orr.w	r1, r1, #256	@ 0x100
 8001ec4:	6019      	str	r1, [r3, #0]
  if (I2C_WaitOnFlagUntilTimeout(hi2c, I2C_FLAG_SB, RESET, Timeout, Tickstart) != HAL_OK)
 8001ec6:	9600      	str	r6, [sp, #0]
 8001ec8:	4643      	mov	r3, r8
 8001eca:	2200      	movs	r2, #0
 8001ecc:	f04f 1101 	mov.w	r1, #65537	@ 0x10001
 8001ed0:	f7ff fefb 	bl	8001cca <I2C_WaitOnFlagUntilTimeout>
 8001ed4:	b960      	cbnz	r0, 8001ef0 <I2C_RequestMemoryWrite+0x48>
  hi2c->Instance->DR = I2C_7BIT_ADD_WRITE(DevAddress);
 8001ed6:	6823      	ldr	r3, [r4, #0]
 8001ed8:	f005 05fe 	and.w	r5, r5, #254	@ 0xfe
 8001edc:	611d      	str	r5, [r3, #16]
  if (I2C_WaitOnMasterAddressFlagUntilTimeout(hi2c, I2C_FLAG_ADDR, Timeout, Tickstart) != HAL_OK)
 8001ede:	4633      	mov	r3, r6
 8001ee0:	4642      	mov	r2, r8
 8001ee2:	4926      	ldr	r1, [pc, #152]	@ (8001f7c <I2C_RequestMemoryWrite+0xd4>)
 8001ee4:	4620      	mov	r0, r4
 8001ee6:	f7ff ff45 	bl	8001d74 <I2C_WaitOnMasterAddressFlagUntilTimeout>
 8001eea:	b168      	cbz	r0, 8001f08 <I2C_RequestMemoryWrite+0x60>
    return HAL_ERROR;
 8001eec:	2001      	movs	r0, #1
 8001eee:	e008      	b.n	8001f02 <I2C_RequestMemoryWrite+0x5a>
    if (READ_BIT(hi2c->Instance->CR1, I2C_CR1_START) == I2C_CR1_START)
 8001ef0:	6823      	ldr	r3, [r4, #0]
 8001ef2:	681b      	ldr	r3, [r3, #0]
 8001ef4:	f413 7f80 	tst.w	r3, #256	@ 0x100
 8001ef8:	d002      	beq.n	8001f00 <I2C_RequestMemoryWrite+0x58>
      hi2c->ErrorCode = HAL_I2C_WRONG_START;
 8001efa:	f44f 7300 	mov.w	r3, #512	@ 0x200
 8001efe:	6423      	str	r3, [r4, #64]	@ 0x40
    return HAL_TIMEOUT;
 8001f00:	2003      	movs	r0, #3
}
 8001f02:	b005      	add	sp, #20
 8001f04:	e8bd 83f0 	ldmia.w	sp!, {r4, r5, r6, r7, r8, r9, pc}
  __HAL_I2C_CLEAR_ADDRFLAG(hi2c);
 8001f08:	2300      	movs	r3, #0
 8001f0a:	9303      	str	r3, [sp, #12]
 8001f0c:	6823      	ldr	r3, [r4, #0]
 8001f0e:	695a      	ldr	r2, [r3, #20]
 8001f10:	9203      	str	r2, [sp, #12]
 8001f12:	699b      	ldr	r3, [r3, #24]
 8001f14:	9303      	str	r3, [sp, #12]
 8001f16:	9b03      	ldr	r3, [sp, #12]
  if (I2C_WaitOnTXEFlagUntilTimeout(hi2c, Timeout, Tickstart) != HAL_OK)
 8001f18:	4632      	mov	r2, r6
 8001f1a:	4641      	mov	r1, r8
 8001f1c:	4620      	mov	r0, r4
 8001f1e:	f7ff ff94 	bl	8001e4a <I2C_WaitOnTXEFlagUntilTimeout>
 8001f22:	b930      	cbnz	r0, 8001f32 <I2C_RequestMemoryWrite+0x8a>
  if (MemAddSize == I2C_MEMADD_SIZE_8BIT)
 8001f24:	2f01      	cmp	r7, #1
 8001f26:	d10f      	bne.n	8001f48 <I2C_RequestMemoryWrite+0xa0>
    hi2c->Instance->DR = I2C_MEM_ADD_LSB(MemAddress);
 8001f28:	6823      	ldr	r3, [r4, #0]
 8001f2a:	fa5f f689 	uxtb.w	r6, r9
 8001f2e:	611e      	str	r6, [r3, #16]
 8001f30:	e7e7      	b.n	8001f02 <I2C_RequestMemoryWrite+0x5a>
    if (hi2c->ErrorCode == HAL_I2C_ERROR_AF)
 8001f32:	6c23      	ldr	r3, [r4, #64]	@ 0x40
 8001f34:	2b04      	cmp	r3, #4
 8001f36:	d001      	beq.n	8001f3c <I2C_RequestMemoryWrite+0x94>
    return HAL_ERROR;
 8001f38:	2001      	movs	r0, #1
 8001f3a:	e7e2      	b.n	8001f02 <I2C_RequestMemoryWrite+0x5a>
      SET_BIT(hi2c->Instance->CR1, I2C_CR1_STOP);
 8001f3c:	6822      	ldr	r2, [r4, #0]
 8001f3e:	6813      	ldr	r3, [r2, #0]
 8001f40:	f443 7300 	orr.w	r3, r3, #512	@ 0x200
 8001f44:	6013      	str	r3, [r2, #0]
 8001f46:	e7f7      	b.n	8001f38 <I2C_RequestMemoryWrite+0x90>
    hi2c->Instance->DR = I2C_MEM_ADD_MSB(MemAddress);
 8001f48:	6823      	ldr	r3, [r4, #0]
 8001f4a:	ea4f 2219 	mov.w	r2, r9, lsr #8
 8001f4e:	611a      	str	r2, [r3, #16]
    if (I2C_WaitOnTXEFlagUntilTimeout(hi2c, Timeout, Tickstart) != HAL_OK)
 8001f50:	4632      	mov	r2, r6
 8001f52:	4641      	mov	r1, r8
 8001f54:	4620      	mov	r0, r4
 8001f56:	f7ff ff78 	bl	8001e4a <I2C_WaitOnTXEFlagUntilTimeout>
 8001f5a:	b920      	cbnz	r0, 8001f66 <I2C_RequestMemoryWrite+0xbe>
    hi2c->Instance->DR = I2C_MEM_ADD_LSB(MemAddress);
 8001f5c:	6823      	ldr	r3, [r4, #0]
 8001f5e:	fa5f f689 	uxtb.w	r6, r9
 8001f62:	611e      	str	r6, [r3, #16]
 8001f64:	e7cd      	b.n	8001f02 <I2C_RequestMemoryWrite+0x5a>
      if (hi2c->ErrorCode == HAL_I2C_ERROR_AF)
 8001f66:	6c23      	ldr	r3, [r4, #64]	@ 0x40
 8001f68:	2b04      	cmp	r3, #4
 8001f6a:	d001      	beq.n	8001f70 <I2C_RequestMemoryWrite+0xc8>
      return HAL_ERROR;
 8001f6c:	2001      	movs	r0, #1
 8001f6e:	e7c8      	b.n	8001f02 <I2C_RequestMemoryWrite+0x5a>
        SET_BIT(hi2c->Instance->CR1, I2C_CR1_STOP);
 8001f70:	6822      	ldr	r2, [r4, #0]
 8001f72:	6813      	ldr	r3, [r2, #0]
 8001f74:	f443 7300 	orr.w	r3, r3, #512	@ 0x200
 8001f78:	6013      	str	r3, [r2, #0]
 8001f7a:	e7f7      	b.n	8001f6c <I2C_RequestMemoryWrite+0xc4>
 8001f7c:	00010002 	.word	0x00010002

08001f80 <I2C_RequestMemoryRead>:
{
 8001f80:	e92d 47f0 	stmdb	sp!, {r4, r5, r6, r7, r8, r9, sl, lr}
 8001f84:	b084      	sub	sp, #16
 8001f86:	4604      	mov	r4, r0
 8001f88:	460d      	mov	r5, r1
 8001f8a:	4616      	mov	r6, r2
 8001f8c:	4699      	mov	r9, r3
 8001f8e:	9f0c      	ldr	r7, [sp, #48]	@ 0x30
 8001f90:	f8dd 8034 	ldr.w	r8, [sp, #52]	@ 0x34
  SET_BIT(hi2c->Instance->CR1, I2C_CR1_ACK);
 8001f94:	6802      	ldr	r2, [r0, #0]
 8001f96:	6813      	ldr	r3, [r2, #0]
 8001f98:	f443 6380 	orr.w	r3, r3, #1024	@ 0x400
 8001f9c:	6013      	str	r3, [r2, #0]
  SET_BIT(hi2c->Instance->CR1, I2C_CR1_START);
 8001f9e:	6803      	ldr	r3, [r0, #0]
 8001fa0:	6819      	ldr	r1, [r3, #0]
 8001fa2:	f441 7180 	orr.w	r1, r1, #256	@ 0x100
 8001fa6:	6019      	str	r1, [r3, #0]
  if (I2C_WaitOnFlagUntilTimeout(hi2c, I2C_FLAG_SB, RESET, Timeout, Tickstart) != HAL_OK)
 8001fa8:	f8cd 8000 	str.w	r8, [sp]
 8001fac:	463b      	mov	r3, r7
 8001fae:	2200      	movs	r2, #0
 8001fb0:	f04f 1101 	mov.w	r1, #65537	@ 0x10001
 8001fb4:	f7ff fe89 	bl	8001cca <I2C_WaitOnFlagUntilTimeout>
 8001fb8:	b970      	cbnz	r0, 8001fd8 <I2C_RequestMemoryRead+0x58>
  hi2c->Instance->DR = I2C_7BIT_ADD_WRITE(DevAddress);
 8001fba:	fa5f fa85 	uxtb.w	sl, r5
 8001fbe:	6823      	ldr	r3, [r4, #0]
 8001fc0:	f005 05fe 	and.w	r5, r5, #254	@ 0xfe
 8001fc4:	611d      	str	r5, [r3, #16]
  if (I2C_WaitOnMasterAddressFlagUntilTimeout(hi2c, I2C_FLAG_ADDR, Timeout, Tickstart) != HAL_OK)
 8001fc6:	4643      	mov	r3, r8
 8001fc8:	463a      	mov	r2, r7
 8001fca:	4941      	ldr	r1, [pc, #260]	@ (80020d0 <I2C_RequestMemoryRead+0x150>)
 8001fcc:	4620      	mov	r0, r4
 8001fce:	f7ff fed1 	bl	8001d74 <I2C_WaitOnMasterAddressFlagUntilTimeout>
 8001fd2:	b168      	cbz	r0, 8001ff0 <I2C_RequestMemoryRead+0x70>
    return HAL_ERROR;
 8001fd4:	2001      	movs	r0, #1
 8001fd6:	e008      	b.n	8001fea <I2C_RequestMemoryRead+0x6a>
    if (READ_BIT(hi2c->Instance->CR1, I2C_CR1_START) == I2C_CR1_START)
 8001fd8:	6823      	ldr	r3, [r4, #0]
 8001fda:	681b      	ldr	r3, [r3, #0]
 8001fdc:	f413 7f80 	tst.w	r3, #256	@ 0x100
 8001fe0:	d002      	beq.n	8001fe8 <I2C_RequestMemoryRead+0x68>
      hi2c->ErrorCode = HAL_I2C_WRONG_START;
 8001fe2:	f44f 7300 	mov.w	r3, #512	@ 0x200
 8001fe6:	6423      	str	r3, [r4, #64]	@ 0x40
    return HAL_TIMEOUT;
 8001fe8:	2003      	movs	r0, #3
}
 8001fea:	b004      	add	sp, #16
 8001fec:	e8bd 87f0 	ldmia.w	sp!, {r4, r5, r6, r7, r8, r9, sl, pc}
  __HAL_I2C_CLEAR_ADDRFLAG(hi2c);
 8001ff0:	2300      	movs	r3, #0
 8001ff2:	9303      	str	r3, [sp, #12]
 8001ff4:	6823      	ldr	r3, [r4, #0]
 8001ff6:	695a      	ldr	r2, [r3, #20]
 8001ff8:	9203      	str	r2, [sp, #12]
 8001ffa:	699b      	ldr	r3, [r3, #24]
 8001ffc:	9303      	str	r3, [sp, #12]
 8001ffe:	9b03      	ldr	r3, [sp, #12]
  if (I2C_WaitOnTXEFlagUntilTimeout(hi2c, Timeout, Tickstart) != HAL_OK)
 8002000:	4642      	mov	r2, r8
 8002002:	4639      	mov	r1, r7
 8002004:	4620      	mov	r0, r4
 8002006:	f7ff ff20 	bl	8001e4a <I2C_WaitOnTXEFlagUntilTimeout>
 800200a:	b980      	cbnz	r0, 800202e <I2C_RequestMemoryRead+0xae>
  if (MemAddSize == I2C_MEMADD_SIZE_8BIT)
 800200c:	f1b9 0f01 	cmp.w	r9, #1
 8002010:	d118      	bne.n	8002044 <I2C_RequestMemoryRead+0xc4>
    hi2c->Instance->DR = I2C_MEM_ADD_LSB(MemAddress);
 8002012:	6823      	ldr	r3, [r4, #0]
 8002014:	b2f6      	uxtb	r6, r6
 8002016:	611e      	str	r6, [r3, #16]
  if (I2C_WaitOnTXEFlagUntilTimeout(hi2c, Timeout, Tickstart) != HAL_OK)
 8002018:	4642      	mov	r2, r8
 800201a:	4639      	mov	r1, r7
 800201c:	4620      	mov	r0, r4
 800201e:	f7ff ff14 	bl	8001e4a <I2C_WaitOnTXEFlagUntilTimeout>
 8002022:	b368      	cbz	r0, 8002080 <I2C_RequestMemoryRead+0x100>
    if (hi2c->ErrorCode == HAL_I2C_ERROR_AF)
 8002024:	6c23      	ldr	r3, [r4, #64]	@ 0x40
 8002026:	2b04      	cmp	r3, #4
 8002028:	d024      	beq.n	8002074 <I2C_RequestMemoryRead+0xf4>
    return HAL_ERROR;
 800202a:	2001      	movs	r0, #1
 800202c:	e7dd      	b.n	8001fea <I2C_RequestMemoryRead+0x6a>
    if (hi2c->ErrorCode == HAL_I2C_ERROR_AF)
 800202e:	6c23      	ldr	r3, [r4, #64]	@ 0x40
 8002030:	2b04      	cmp	r3, #4
 8002032:	d001      	beq.n	8002038 <I2C_RequestMemoryRead+0xb8>
    return HAL_ERROR;
 8002034:	2001      	movs	r0, #1
 8002036:	e7d8      	b.n	8001fea <I2C_RequestMemoryRead+0x6a>
      SET_BIT(hi2c->Instance->CR1, I2C_CR1_STOP);
 8002038:	6822      	ldr	r2, [r4, #0]
 800203a:	6813      	ldr	r3, [r2, #0]
 800203c:	f443 7300 	orr.w	r3, r3, #512	@ 0x200
 8002040:	6013      	str	r3, [r2, #0]
 8002042:	e7f7      	b.n	8002034 <I2C_RequestMemoryRead+0xb4>
    hi2c->Instance->DR = I2C_MEM_ADD_MSB(MemAddress);
 8002044:	6823      	ldr	r3, [r4, #0]
 8002046:	0a32      	lsrs	r2, r6, #8
 8002048:	611a      	str	r2, [r3, #16]
    if (I2C_WaitOnTXEFlagUntilTimeout(hi2c, Timeout, Tickstart) != HAL_OK)
 800204a:	4642      	mov	r2, r8
 800204c:	4639      	mov	r1, r7
 800204e:	4620      	mov	r0, r4
 8002050:	f7ff fefb 	bl	8001e4a <I2C_WaitOnTXEFlagUntilTimeout>
 8002054:	b918      	cbnz	r0, 800205e <I2C_RequestMemoryRead+0xde>
    hi2c->Instance->DR = I2C_MEM_ADD_LSB(MemAddress);
 8002056:	6823      	ldr	r3, [r4, #0]
 8002058:	b2f6      	uxtb	r6, r6
 800205a:	611e      	str	r6, [r3, #16]
 800205c:	e7dc      	b.n	8002018 <I2C_RequestMemoryRead+0x98>
      if (hi2c->ErrorCode == HAL_I2C_ERROR_AF)
 800205e:	6c23      	ldr	r3, [r4, #64]	@ 0x40
 8002060:	2b04      	cmp	r3, #4
 8002062:	d001      	beq.n	8002068 <I2C_RequestMemoryRead+0xe8>
      return HAL_ERROR;
 8002064:	2001      	movs	r0, #1
 8002066:	e7c0      	b.n	8001fea <I2C_RequestMemoryRead+0x6a>
        SET_BIT(hi2c->Instance->CR1, I2C_CR1_STOP);
 8002068:	6822      	ldr	r2, [r4, #0]
 800206a:	6813      	ldr	r3, [r2, #0]
 800206c:	f443 7300 	orr.w	r3, r3, #512	@ 0x200
 8002070:	6013      	str	r3, [r2, #0]
 8002072:	e7f7      	b.n	8002064 <I2C_RequestMemoryRead+0xe4>
      SET_BIT(hi2c->Instance->CR1, I2C_CR1_STOP);
 8002074:	6822      	ldr	r2, [r4, #0]
 8002076:	6813      	ldr	r3, [r2, #0]
 8002078:	f443 7300 	orr.w	r3, r3, #512	@ 0x200
 800207c:	6013      	str	r3, [r2, #0]
 800207e:	e7d4      	b.n	800202a <I2C_RequestMemoryRead+0xaa>
  SET_BIT(hi2c->Instance->CR1, I2C_CR1_START);
 8002080:	6822      	ldr	r2, [r4, #0]
 8002082:	6813      	ldr	r3, [r2, #0]
 8002084:	f443 7380 	orr.w	r3, r3, #256	@ 0x100
 8002088:	6013      	str	r3, [r2, #0]
  if (I2C_WaitOnFlagUntilTimeout(hi2c, I2C_FLAG_SB, RESET, Timeout, Tickstart) != HAL_OK)
 800208a:	f8cd 8000 	str.w	r8, [sp]
 800208e:	463b      	mov	r3, r7
 8002090:	2200      	movs	r2, #0
 8002092:	f04f 1101 	mov.w	r1, #65537	@ 0x10001
 8002096:	4620      	mov	r0, r4
 8002098:	f7ff fe17 	bl	8001cca <I2C_WaitOnFlagUntilTimeout>
 800209c:	b968      	cbnz	r0, 80020ba <I2C_RequestMemoryRead+0x13a>
  hi2c->Instance->DR = I2C_7BIT_ADD_READ(DevAddress);
 800209e:	6822      	ldr	r2, [r4, #0]
 80020a0:	f04a 0301 	orr.w	r3, sl, #1
 80020a4:	6113      	str	r3, [r2, #16]
  if (I2C_WaitOnMasterAddressFlagUntilTimeout(hi2c, I2C_FLAG_ADDR, Timeout, Tickstart) != HAL_OK)
 80020a6:	4643      	mov	r3, r8
 80020a8:	463a      	mov	r2, r7
 80020aa:	4909      	ldr	r1, [pc, #36]	@ (80020d0 <I2C_RequestMemoryRead+0x150>)
 80020ac:	4620      	mov	r0, r4
 80020ae:	f7ff fe61 	bl	8001d74 <I2C_WaitOnMasterAddressFlagUntilTimeout>
 80020b2:	2800      	cmp	r0, #0
 80020b4:	d099      	beq.n	8001fea <I2C_RequestMemoryRead+0x6a>
    return HAL_ERROR;
 80020b6:	2001      	movs	r0, #1
 80020b8:	e797      	b.n	8001fea <I2C_RequestMemoryRead+0x6a>
    if (READ_BIT(hi2c->Instance->CR1, I2C_CR1_START) == I2C_CR1_START)
 80020ba:	6823      	ldr	r3, [r4, #0]
 80020bc:	681b      	ldr	r3, [r3, #0]
 80020be:	f413 7f80 	tst.w	r3, #256	@ 0x100
 80020c2:	d002      	beq.n	80020ca <I2C_RequestMemoryRead+0x14a>
      hi2c->ErrorCode = HAL_I2C_WRONG_START;
 80020c4:	f44f 7300 	mov.w	r3, #512	@ 0x200
 80020c8:	6423      	str	r3, [r4, #64]	@ 0x40
    return HAL_TIMEOUT;
 80020ca:	2003      	movs	r0, #3
 80020cc:	e78d      	b.n	8001fea <I2C_RequestMemoryRead+0x6a>
 80020ce:	bf00      	nop
 80020d0:	00010002 	.word	0x00010002

080020d4 <I2C_WaitOnBTFFlagUntilTimeout>:
{
 80020d4:	b570      	push	{r4, r5, r6, lr}
 80020d6:	4604      	mov	r4, r0
 80020d8:	460d      	mov	r5, r1
 80020da:	4616      	mov	r6, r2
  while (__HAL_I2C_GET_FLAG(hi2c, I2C_FLAG_BTF) == RESET)
 80020dc:	6823      	ldr	r3, [r4, #0]
 80020de:	695b      	ldr	r3, [r3, #20]
 80020e0:	f013 0f04 	tst.w	r3, #4
 80020e4:	d121      	bne.n	800212a <I2C_WaitOnBTFFlagUntilTimeout+0x56>
    if (I2C_IsAcknowledgeFailed(hi2c) != HAL_OK)
 80020e6:	4620      	mov	r0, r4
 80020e8:	f7ff fdd6 	bl	8001c98 <I2C_IsAcknowledgeFailed>
 80020ec:	b9f8      	cbnz	r0, 800212e <I2C_WaitOnBTFFlagUntilTimeout+0x5a>
    if (Timeout != HAL_MAX_DELAY)
 80020ee:	f1b5 3fff 	cmp.w	r5, #4294967295	@ 0xffffffff
 80020f2:	d0f3      	beq.n	80020dc <I2C_WaitOnBTFFlagUntilTimeout+0x8>
      if (((HAL_GetTick() - Tickstart) > Timeout) || (Timeout == 0U))
 80020f4:	f7ff fc56 	bl	80019a4 <HAL_GetTick>
 80020f8:	1b80      	subs	r0, r0, r6
 80020fa:	42a8      	cmp	r0, r5
 80020fc:	d801      	bhi.n	8002102 <I2C_WaitOnBTFFlagUntilTimeout+0x2e>
 80020fe:	2d00      	cmp	r5, #0
 8002100:	d1ec      	bne.n	80020dc <I2C_WaitOnBTFFlagUntilTimeout+0x8>
        if ((__HAL_I2C_GET_FLAG(hi2c, I2C_FLAG_BTF) == RESET))
 8002102:	6823      	ldr	r3, [r4, #0]
 8002104:	695b      	ldr	r3, [r3, #20]
 8002106:	f013 0f04 	tst.w	r3, #4
 800210a:	d1e7      	bne.n	80020dc <I2C_WaitOnBTFFlagUntilTimeout+0x8>
          hi2c->PreviousState       = I2C_STATE_NONE;
 800210c:	2300      	movs	r3, #0
 800210e:	6323      	str	r3, [r4, #48]	@ 0x30
          hi2c->State               = HAL_I2C_STATE_READY;
 8002110:	2220      	movs	r2, #32
 8002112:	f884 203d 	strb.w	r2, [r4, #61]	@ 0x3d
          hi2c->Mode                = HAL_I2C_MODE_NONE;
 8002116:	f884 303e 	strb.w	r3, [r4, #62]	@ 0x3e
          hi2c->ErrorCode           |= HAL_I2C_ERROR_TIMEOUT;
 800211a:	6c22      	ldr	r2, [r4, #64]	@ 0x40
 800211c:	f042 0220 	orr.w	r2, r2, #32
 8002120:	6422      	str	r2, [r4, #64]	@ 0x40
          __HAL_UNLOCK(hi2c);
 8002122:	f884 303c 	strb.w	r3, [r4, #60]	@ 0x3c
          return HAL_ERROR;
 8002126:	2001      	movs	r0, #1
 8002128:	e000      	b.n	800212c <I2C_WaitOnBTFFlagUntilTimeout+0x58>
  return HAL_OK;
 800212a:	2000      	movs	r0, #0
}
 800212c:	bd70      	pop	{r4, r5, r6, pc}
      return HAL_ERROR;
 800212e:	2001      	movs	r0, #1
 8002130:	e7fc      	b.n	800212c <I2C_WaitOnBTFFlagUntilTimeout+0x58>

08002132 <I2C_WaitOnRXNEFlagUntilTimeout>:
{
 8002132:	b570      	push	{r4, r5, r6, lr}
 8002134:	4604      	mov	r4, r0
 8002136:	460d      	mov	r5, r1
 8002138:	4616      	mov	r6, r2
  while (__HAL_I2C_GET_FLAG(hi2c, I2C_FLAG_RXNE) == RESET)
 800213a:	e014      	b.n	8002166 <I2C_WaitOnRXNEFlagUntilTimeout+0x34>
      __HAL_I2C_CLEAR_FLAG(hi2c, I2C_FLAG_STOPF);
 800213c:	f06f 0210 	mvn.w	r2, #16
 8002140:	615a      	str	r2, [r3, #20]
      hi2c->PreviousState       = I2C_STATE_NONE;
 8002142:	2300      	movs	r3, #0
 8002144:	6323      	str	r3, [r4, #48]	@ 0x30
      hi2c->State               = HAL_I2C_STATE_READY;
 8002146:	2220      	movs	r2, #32
 8002148:	f884 203d 	strb.w	r2, [r4, #61]	@ 0x3d
      hi2c->Mode                = HAL_I2C_MODE_NONE;
 800214c:	f884 303e 	strb.w	r3, [r4, #62]	@ 0x3e
      hi2c->ErrorCode           |= HAL_I2C_ERROR_NONE;
 8002150:	6c22      	ldr	r2, [r4, #64]	@ 0x40
 8002152:	6422      	str	r2, [r4, #64]	@ 0x40
      __HAL_UNLOCK(hi2c);
 8002154:	f884 303c 	strb.w	r3, [r4, #60]	@ 0x3c
      return HAL_ERROR;
 8002158:	2001      	movs	r0, #1
 800215a:	e025      	b.n	80021a8 <I2C_WaitOnRXNEFlagUntilTimeout+0x76>
      if ((__HAL_I2C_GET_FLAG(hi2c, I2C_FLAG_RXNE) == RESET))
 800215c:	6823      	ldr	r3, [r4, #0]
 800215e:	695b      	ldr	r3, [r3, #20]
 8002160:	f013 0f40 	tst.w	r3, #64	@ 0x40
 8002164:	d010      	beq.n	8002188 <I2C_WaitOnRXNEFlagUntilTimeout+0x56>
  while (__HAL_I2C_GET_FLAG(hi2c, I2C_FLAG_RXNE) == RESET)
 8002166:	6823      	ldr	r3, [r4, #0]
 8002168:	6958      	ldr	r0, [r3, #20]
 800216a:	f010 0f40 	tst.w	r0, #64	@ 0x40
 800216e:	d11a      	bne.n	80021a6 <I2C_WaitOnRXNEFlagUntilTimeout+0x74>
    if (__HAL_I2C_GET_FLAG(hi2c, I2C_FLAG_STOPF) == SET)
 8002170:	6958      	ldr	r0, [r3, #20]
 8002172:	f010 0f10 	tst.w	r0, #16
 8002176:	d1e1      	bne.n	800213c <I2C_WaitOnRXNEFlagUntilTimeout+0xa>
    if (((HAL_GetTick() - Tickstart) > Timeout) || (Timeout == 0U))
 8002178:	f7ff fc14 	bl	80019a4 <HAL_GetTick>
 800217c:	1b80      	subs	r0, r0, r6
 800217e:	42a8      	cmp	r0, r5
 8002180:	d8ec      	bhi.n	800215c <I2C_WaitOnRXNEFlagUntilTimeout+0x2a>
 8002182:	2d00      	cmp	r5, #0
 8002184:	d1ef      	bne.n	8002166 <I2C_WaitOnRXNEFlagUntilTimeout+0x34>
 8002186:	e7e9      	b.n	800215c <I2C_WaitOnRXNEFlagUntilTimeout+0x2a>
        hi2c->PreviousState       = I2C_STATE_NONE;
 8002188:	2300      	movs	r3, #0
 800218a:	6323      	str	r3, [r4, #48]	@ 0x30
        hi2c->State               = HAL_I2C_STATE_READY;
 800218c:	2220      	movs	r2, #32
 800218e:	f884 203d 	strb.w	r2, [r4, #61]	@ 0x3d
        hi2c->Mode                = HAL_I2C_MODE_NONE;
 8002192:	f884 303e 	strb.w	r3, [r4, #62]	@ 0x3e
        hi2c->ErrorCode           |= HAL_I2C_ERROR_TIMEOUT;
 8002196:	6c22      	ldr	r2, [r4, #64]	@ 0x40
 8002198:	f042 0220 	orr.w	r2, r2, #32
 800219c:	6422      	str	r2, [r4, #64]	@ 0x40
        __HAL_UNLOCK(hi2c);
 800219e:	f884 303c 	strb.w	r3, [r4, #60]	@ 0x3c
        return HAL_ERROR;
 80021a2:	2001      	movs	r0, #1
 80021a4:	e000      	b.n	80021a8 <I2C_WaitOnRXNEFlagUntilTimeout+0x76>
  return HAL_OK;
 80021a6:	2000      	movs	r0, #0
}
 80021a8:	bd70      	pop	{r4, r5, r6, pc}
	...

080021ac <HAL_I2C_Init>:
  if (hi2c == NULL)
 80021ac:	2800      	cmp	r0, #0
 80021ae:	f000 80cc 	beq.w	800234a <HAL_I2C_Init+0x19e>
{
 80021b2:	b570      	push	{r4, r5, r6, lr}
 80021b4:	4604      	mov	r4, r0
  if (hi2c->State == HAL_I2C_STATE_RESET)
 80021b6:	f890 303d 	ldrb.w	r3, [r0, #61]	@ 0x3d
 80021ba:	2b00      	cmp	r3, #0
 80021bc:	d077      	beq.n	80022ae <HAL_I2C_Init+0x102>
  hi2c->State = HAL_I2C_STATE_BUSY;
 80021be:	2324      	movs	r3, #36	@ 0x24
 80021c0:	f884 303d 	strb.w	r3, [r4, #61]	@ 0x3d
  __HAL_I2C_DISABLE(hi2c);
 80021c4:	6822      	ldr	r2, [r4, #0]
 80021c6:	6813      	ldr	r3, [r2, #0]
 80021c8:	f023 0301 	bic.w	r3, r3, #1
 80021cc:	6013      	str	r3, [r2, #0]
  hi2c->Instance->CR1 |= I2C_CR1_SWRST;
 80021ce:	6822      	ldr	r2, [r4, #0]
 80021d0:	6813      	ldr	r3, [r2, #0]
 80021d2:	f443 4300 	orr.w	r3, r3, #32768	@ 0x8000
 80021d6:	6013      	str	r3, [r2, #0]
  hi2c->Instance->CR1 &= ~I2C_CR1_SWRST;
 80021d8:	6822      	ldr	r2, [r4, #0]
 80021da:	6813      	ldr	r3, [r2, #0]
 80021dc:	f423 4300 	bic.w	r3, r3, #32768	@ 0x8000
 80021e0:	6013      	str	r3, [r2, #0]
  pclk1 = HAL_RCC_GetPCLK1Freq();
 80021e2:	f000 fe0f 	bl	8002e04 <HAL_RCC_GetPCLK1Freq>
  if (I2C_MIN_PCLK_FREQ(pclk1, hi2c->Init.ClockSpeed) == 1U)
 80021e6:	6862      	ldr	r2, [r4, #4]
 80021e8:	4b5a      	ldr	r3, [pc, #360]	@ (8002354 <HAL_I2C_Init+0x1a8>)
 80021ea:	429a      	cmp	r2, r3
 80021ec:	d864      	bhi.n	80022b8 <HAL_I2C_Init+0x10c>
 80021ee:	4b5a      	ldr	r3, [pc, #360]	@ (8002358 <HAL_I2C_Init+0x1ac>)
 80021f0:	4298      	cmp	r0, r3
 80021f2:	bf8c      	ite	hi
 80021f4:	2300      	movhi	r3, #0
 80021f6:	2301      	movls	r3, #1
 80021f8:	2b00      	cmp	r3, #0
 80021fa:	f040 80a8 	bne.w	800234e <HAL_I2C_Init+0x1a2>
  freqrange = I2C_FREQRANGE(pclk1);
 80021fe:	4957      	ldr	r1, [pc, #348]	@ (800235c <HAL_I2C_Init+0x1b0>)
 8002200:	fba1 3100 	umull	r3, r1, r1, r0
 8002204:	0c8b      	lsrs	r3, r1, #18
  MODIFY_REG(hi2c->Instance->CR2, I2C_CR2_FREQ, freqrange);
 8002206:	6825      	ldr	r5, [r4, #0]
 8002208:	686a      	ldr	r2, [r5, #4]
 800220a:	f022 023f 	bic.w	r2, r2, #63	@ 0x3f
 800220e:	ea42 4291 	orr.w	r2, r2, r1, lsr #18
 8002212:	606a      	str	r2, [r5, #4]
  MODIFY_REG(hi2c->Instance->TRISE, I2C_TRISE_TRISE, I2C_RISE_TIME(freqrange, hi2c->Init.ClockSpeed));
 8002214:	6821      	ldr	r1, [r4, #0]
 8002216:	6a0a      	ldr	r2, [r1, #32]
 8002218:	f022 023f 	bic.w	r2, r2, #63	@ 0x3f
 800221c:	6866      	ldr	r6, [r4, #4]
 800221e:	4d4d      	ldr	r5, [pc, #308]	@ (8002354 <HAL_I2C_Init+0x1a8>)
 8002220:	42ae      	cmp	r6, r5
 8002222:	d84f      	bhi.n	80022c4 <HAL_I2C_Init+0x118>
 8002224:	3301      	adds	r3, #1
 8002226:	4313      	orrs	r3, r2
 8002228:	620b      	str	r3, [r1, #32]
  MODIFY_REG(hi2c->Instance->CCR, (I2C_CCR_FS | I2C_CCR_DUTY | I2C_CCR_CCR), I2C_SPEED(pclk1, hi2c->Init.ClockSpeed, hi2c->Init.DutyCycle));
 800222a:	6821      	ldr	r1, [r4, #0]
 800222c:	69ca      	ldr	r2, [r1, #28]
 800222e:	f422 424f 	bic.w	r2, r2, #52992	@ 0xcf00
 8002232:	f022 02ff 	bic.w	r2, r2, #255	@ 0xff
 8002236:	6865      	ldr	r5, [r4, #4]
 8002238:	4b46      	ldr	r3, [pc, #280]	@ (8002354 <HAL_I2C_Init+0x1a8>)
 800223a:	429d      	cmp	r5, r3
 800223c:	d84c      	bhi.n	80022d8 <HAL_I2C_Init+0x12c>
 800223e:	1e43      	subs	r3, r0, #1
 8002240:	006d      	lsls	r5, r5, #1
 8002242:	fbb3 f3f5 	udiv	r3, r3, r5
 8002246:	3301      	adds	r3, #1
 8002248:	f640 70fc 	movw	r0, #4092	@ 0xffc
 800224c:	4203      	tst	r3, r0
 800224e:	d078      	beq.n	8002342 <HAL_I2C_Init+0x196>
 8002250:	f3c3 030b 	ubfx	r3, r3, #0, #12
 8002254:	431a      	orrs	r2, r3
 8002256:	61ca      	str	r2, [r1, #28]
  MODIFY_REG(hi2c->Instance->CR1, (I2C_CR1_ENGC | I2C_CR1_NOSTRETCH), (hi2c->Init.GeneralCallMode | hi2c->Init.NoStretchMode));
 8002258:	6821      	ldr	r1, [r4, #0]
 800225a:	680b      	ldr	r3, [r1, #0]
 800225c:	f023 03c0 	bic.w	r3, r3, #192	@ 0xc0
 8002260:	69e2      	ldr	r2, [r4, #28]
 8002262:	6a20      	ldr	r0, [r4, #32]
 8002264:	4302      	orrs	r2, r0
 8002266:	4313      	orrs	r3, r2
 8002268:	600b      	str	r3, [r1, #0]
  MODIFY_REG(hi2c->Instance->OAR1, (I2C_OAR1_ADDMODE | I2C_OAR1_ADD8_9 | I2C_OAR1_ADD1_7 | I2C_OAR1_ADD0), (hi2c->Init.AddressingMode | hi2c->Init.OwnAddress1));
 800226a:	6821      	ldr	r1, [r4, #0]
 800226c:	688b      	ldr	r3, [r1, #8]
 800226e:	f423 4303 	bic.w	r3, r3, #33536	@ 0x8300
 8002272:	f023 03ff 	bic.w	r3, r3, #255	@ 0xff
 8002276:	6922      	ldr	r2, [r4, #16]
 8002278:	68e0      	ldr	r0, [r4, #12]
 800227a:	4302      	orrs	r2, r0
 800227c:	4313      	orrs	r3, r2
 800227e:	608b      	str	r3, [r1, #8]
  MODIFY_REG(hi2c->Instance->OAR2, (I2C_OAR2_ENDUAL | I2C_OAR2_ADD2), (hi2c->Init.DualAddressMode | hi2c->Init.OwnAddress2));
 8002280:	6821      	ldr	r1, [r4, #0]
 8002282:	68cb      	ldr	r3, [r1, #12]
 8002284:	f023 03ff 	bic.w	r3, r3, #255	@ 0xff
 8002288:	6962      	ldr	r2, [r4, #20]
 800228a:	69a0      	ldr	r0, [r4, #24]
 800228c:	4302      	orrs	r2, r0
 800228e:	4313      	orrs	r3, r2
 8002290:	60cb      	str	r3, [r1, #12]
  __HAL_I2C_ENABLE(hi2c);
 8002292:	6822      	ldr	r2, [r4, #0]
 8002294:	6813      	ldr	r3, [r2, #0]
 8002296:	f043 0301 	orr.w	r3, r3, #1
 800229a:	6013      	str	r3, [r2, #0]
  hi2c->ErrorCode = HAL_I2C_ERROR_NONE;
 800229c:	2000      	movs	r0, #0
 800229e:	6420      	str	r0, [r4, #64]	@ 0x40
  hi2c->State = HAL_I2C_STATE_READY;
 80022a0:	2320      	movs	r3, #32
 80022a2:	f884 303d 	strb.w	r3, [r4, #61]	@ 0x3d
  hi2c->PreviousState = I2C_STATE_NONE;
 80022a6:	6320      	str	r0, [r4, #48]	@ 0x30
  hi2c->Mode = HAL_I2C_MODE_NONE;
 80022a8:	f884 003e 	strb.w	r0, [r4, #62]	@ 0x3e
}
 80022ac:	bd70      	pop	{r4, r5, r6, pc}
    hi2c->Lock = HAL_UNLOCKED;
 80022ae:	f880 303c 	strb.w	r3, [r0, #60]	@ 0x3c
    HAL_I2C_MspInit(hi2c);
 80022b2:	f7ff f947 	bl	8001544 <HAL_I2C_MspInit>
 80022b6:	e782      	b.n	80021be <HAL_I2C_Init+0x12>
  if (I2C_MIN_PCLK_FREQ(pclk1, hi2c->Init.ClockSpeed) == 1U)
 80022b8:	4b29      	ldr	r3, [pc, #164]	@ (8002360 <HAL_I2C_Init+0x1b4>)
 80022ba:	4298      	cmp	r0, r3
 80022bc:	bf8c      	ite	hi
 80022be:	2300      	movhi	r3, #0
 80022c0:	2301      	movls	r3, #1
 80022c2:	e799      	b.n	80021f8 <HAL_I2C_Init+0x4c>
  MODIFY_REG(hi2c->Instance->TRISE, I2C_TRISE_TRISE, I2C_RISE_TIME(freqrange, hi2c->Init.ClockSpeed));
 80022c4:	f44f 7596 	mov.w	r5, #300	@ 0x12c
 80022c8:	fb05 f303 	mul.w	r3, r5, r3
 80022cc:	4d25      	ldr	r5, [pc, #148]	@ (8002364 <HAL_I2C_Init+0x1b8>)
 80022ce:	fba5 5303 	umull	r5, r3, r5, r3
 80022d2:	099b      	lsrs	r3, r3, #6
 80022d4:	3301      	adds	r3, #1
 80022d6:	e7a6      	b.n	8002226 <HAL_I2C_Init+0x7a>
  MODIFY_REG(hi2c->Instance->CCR, (I2C_CCR_FS | I2C_CCR_DUTY | I2C_CCR_CCR), I2C_SPEED(pclk1, hi2c->Init.ClockSpeed, hi2c->Init.DutyCycle));
 80022d8:	68a6      	ldr	r6, [r4, #8]
 80022da:	b9be      	cbnz	r6, 800230c <HAL_I2C_Init+0x160>
 80022dc:	1e43      	subs	r3, r0, #1
 80022de:	eb05 0c45 	add.w	ip, r5, r5, lsl #1
 80022e2:	fbb3 f3fc 	udiv	r3, r3, ip
 80022e6:	3301      	adds	r3, #1
 80022e8:	f3c3 030b 	ubfx	r3, r3, #0, #12
 80022ec:	fab3 f383 	clz	r3, r3
 80022f0:	095b      	lsrs	r3, r3, #5
 80022f2:	bb43      	cbnz	r3, 8002346 <HAL_I2C_Init+0x19a>
 80022f4:	b9c6      	cbnz	r6, 8002328 <HAL_I2C_Init+0x17c>
 80022f6:	1e43      	subs	r3, r0, #1
 80022f8:	eb05 0545 	add.w	r5, r5, r5, lsl #1
 80022fc:	fbb3 f3f5 	udiv	r3, r3, r5
 8002300:	3301      	adds	r3, #1
 8002302:	f3c3 030b 	ubfx	r3, r3, #0, #12
 8002306:	f443 4300 	orr.w	r3, r3, #32768	@ 0x8000
 800230a:	e7a3      	b.n	8002254 <HAL_I2C_Init+0xa8>
 800230c:	1e43      	subs	r3, r0, #1
 800230e:	eb05 0c85 	add.w	ip, r5, r5, lsl #2
 8002312:	eb0c 0c8c 	add.w	ip, ip, ip, lsl #2
 8002316:	fbb3 f3fc 	udiv	r3, r3, ip
 800231a:	3301      	adds	r3, #1
 800231c:	f3c3 030b 	ubfx	r3, r3, #0, #12
 8002320:	fab3 f383 	clz	r3, r3
 8002324:	095b      	lsrs	r3, r3, #5
 8002326:	e7e4      	b.n	80022f2 <HAL_I2C_Init+0x146>
 8002328:	1e43      	subs	r3, r0, #1
 800232a:	eb05 0585 	add.w	r5, r5, r5, lsl #2
 800232e:	eb05 0585 	add.w	r5, r5, r5, lsl #2
 8002332:	fbb3 f3f5 	udiv	r3, r3, r5
 8002336:	3301      	adds	r3, #1
 8002338:	f3c3 030b 	ubfx	r3, r3, #0, #12
 800233c:	f443 4340 	orr.w	r3, r3, #49152	@ 0xc000
 8002340:	e788      	b.n	8002254 <HAL_I2C_Init+0xa8>
 8002342:	2304      	movs	r3, #4
 8002344:	e786      	b.n	8002254 <HAL_I2C_Init+0xa8>
 8002346:	2301      	movs	r3, #1
 8002348:	e784      	b.n	8002254 <HAL_I2C_Init+0xa8>
    return HAL_ERROR;
 800234a:	2001      	movs	r0, #1
}
 800234c:	4770      	bx	lr
    return HAL_ERROR;
 800234e:	2001      	movs	r0, #1
 8002350:	e7ac      	b.n	80022ac <HAL_I2C_Init+0x100>
 8002352:	bf00      	nop
 8002354:	000186a0 	.word	0x000186a0
 8002358:	001e847f 	.word	0x001e847f
 800235c:	431bde83 	.word	0x431bde83
 8002360:	003d08ff 	.word	0x003d08ff
 8002364:	10624dd3 	.word	0x10624dd3

08002368 <HAL_I2C_Mem_Write>:
{
 8002368:	e92d 43f0 	stmdb	sp!, {r4, r5, r6, r7, r8, r9, lr}
 800236c:	b083      	sub	sp, #12
 800236e:	4604      	mov	r4, r0
 8002370:	460f      	mov	r7, r1
 8002372:	4690      	mov	r8, r2
 8002374:	4699      	mov	r9, r3
 8002376:	9e0c      	ldr	r6, [sp, #48]	@ 0x30
  uint32_t tickstart = HAL_GetTick();
 8002378:	f7ff fb14 	bl	80019a4 <HAL_GetTick>
  if (hi2c->State == HAL_I2C_STATE_READY)
 800237c:	f894 203d 	ldrb.w	r2, [r4, #61]	@ 0x3d
 8002380:	2a20      	cmp	r2, #32
 8002382:	d003      	beq.n	800238c <HAL_I2C_Mem_Write+0x24>
    return HAL_BUSY;
 8002384:	2002      	movs	r0, #2
}
 8002386:	b003      	add	sp, #12
 8002388:	e8bd 83f0 	ldmia.w	sp!, {r4, r5, r6, r7, r8, r9, pc}
 800238c:	4605      	mov	r5, r0
    if (I2C_WaitOnFlagUntilTimeout(hi2c, I2C_FLAG_BUSY, SET, I2C_TIMEOUT_BUSY_FLAG, tickstart) != HAL_OK)
 800238e:	9000      	str	r0, [sp, #0]
 8002390:	2319      	movs	r3, #25
 8002392:	2201      	movs	r2, #1
 8002394:	494a      	ldr	r1, [pc, #296]	@ (80024c0 <HAL_I2C_Mem_Write+0x158>)
 8002396:	4620      	mov	r0, r4
 8002398:	f7ff fc97 	bl	8001cca <I2C_WaitOnFlagUntilTimeout>
 800239c:	2800      	cmp	r0, #0
 800239e:	f040 8089 	bne.w	80024b4 <HAL_I2C_Mem_Write+0x14c>
    __HAL_LOCK(hi2c);
 80023a2:	f894 303c 	ldrb.w	r3, [r4, #60]	@ 0x3c
 80023a6:	2b01      	cmp	r3, #1
 80023a8:	f000 8086 	beq.w	80024b8 <HAL_I2C_Mem_Write+0x150>
 80023ac:	2301      	movs	r3, #1
 80023ae:	f884 303c 	strb.w	r3, [r4, #60]	@ 0x3c
    if ((hi2c->Instance->CR1 & I2C_CR1_PE) != I2C_CR1_PE)
 80023b2:	6823      	ldr	r3, [r4, #0]
 80023b4:	681a      	ldr	r2, [r3, #0]
 80023b6:	f012 0f01 	tst.w	r2, #1
 80023ba:	d103      	bne.n	80023c4 <HAL_I2C_Mem_Write+0x5c>
      __HAL_I2C_ENABLE(hi2c);
 80023bc:	681a      	ldr	r2, [r3, #0]
 80023be:	f042 0201 	orr.w	r2, r2, #1
 80023c2:	601a      	str	r2, [r3, #0]
    CLEAR_BIT(hi2c->Instance->CR1, I2C_CR1_POS);
 80023c4:	6822      	ldr	r2, [r4, #0]
 80023c6:	6813      	ldr	r3, [r2, #0]
 80023c8:	f423 6300 	bic.w	r3, r3, #2048	@ 0x800
 80023cc:	6013      	str	r3, [r2, #0]
    hi2c->State     = HAL_I2C_STATE_BUSY_TX;
 80023ce:	2321      	movs	r3, #33	@ 0x21
 80023d0:	f884 303d 	strb.w	r3, [r4, #61]	@ 0x3d
    hi2c->Mode      = HAL_I2C_MODE_MEM;
 80023d4:	2340      	movs	r3, #64	@ 0x40
 80023d6:	f884 303e 	strb.w	r3, [r4, #62]	@ 0x3e
    hi2c->ErrorCode = HAL_I2C_ERROR_NONE;
 80023da:	2300      	movs	r3, #0
 80023dc:	6423      	str	r3, [r4, #64]	@ 0x40
    hi2c->pBuffPtr    = pData;
 80023de:	9b0a      	ldr	r3, [sp, #40]	@ 0x28
 80023e0:	6263      	str	r3, [r4, #36]	@ 0x24
    hi2c->XferCount   = Size;
 80023e2:	f8bd 302c 	ldrh.w	r3, [sp, #44]	@ 0x2c
 80023e6:	8563      	strh	r3, [r4, #42]	@ 0x2a
    hi2c->XferSize    = hi2c->XferCount;
 80023e8:	8d63      	ldrh	r3, [r4, #42]	@ 0x2a
 80023ea:	8523      	strh	r3, [r4, #40]	@ 0x28
    hi2c->XferOptions = I2C_NO_OPTION_FRAME;
 80023ec:	4b35      	ldr	r3, [pc, #212]	@ (80024c4 <HAL_I2C_Mem_Write+0x15c>)
 80023ee:	62e3      	str	r3, [r4, #44]	@ 0x2c
    if (I2C_RequestMemoryWrite(hi2c, DevAddress, MemAddress, MemAddSize, Timeout, tickstart) != HAL_OK)
 80023f0:	9501      	str	r5, [sp, #4]
 80023f2:	9600      	str	r6, [sp, #0]
 80023f4:	464b      	mov	r3, r9
 80023f6:	4642      	mov	r2, r8
 80023f8:	4639      	mov	r1, r7
 80023fa:	4620      	mov	r0, r4
 80023fc:	f7ff fd54 	bl	8001ea8 <I2C_RequestMemoryWrite>
 8002400:	2800      	cmp	r0, #0
 8002402:	d15b      	bne.n	80024bc <HAL_I2C_Mem_Write+0x154>
    while (hi2c->XferSize > 0U)
 8002404:	8d23      	ldrh	r3, [r4, #40]	@ 0x28
 8002406:	2b00      	cmp	r3, #0
 8002408:	d035      	beq.n	8002476 <HAL_I2C_Mem_Write+0x10e>
      if (I2C_WaitOnTXEFlagUntilTimeout(hi2c, Timeout, tickstart) != HAL_OK)
 800240a:	462a      	mov	r2, r5
 800240c:	4631      	mov	r1, r6
 800240e:	4620      	mov	r0, r4
 8002410:	f7ff fd1b 	bl	8001e4a <I2C_WaitOnTXEFlagUntilTimeout>
 8002414:	bb20      	cbnz	r0, 8002460 <HAL_I2C_Mem_Write+0xf8>
      hi2c->Instance->DR = *hi2c->pBuffPtr;
 8002416:	6a62      	ldr	r2, [r4, #36]	@ 0x24
 8002418:	6823      	ldr	r3, [r4, #0]
 800241a:	7812      	ldrb	r2, [r2, #0]
 800241c:	611a      	str	r2, [r3, #16]
      hi2c->pBuffPtr++;
 800241e:	6a62      	ldr	r2, [r4, #36]	@ 0x24
 8002420:	1c53      	adds	r3, r2, #1
 8002422:	6263      	str	r3, [r4, #36]	@ 0x24
      hi2c->XferSize--;
 8002424:	8d21      	ldrh	r1, [r4, #40]	@ 0x28
 8002426:	3901      	subs	r1, #1
 8002428:	b289      	uxth	r1, r1
 800242a:	8521      	strh	r1, [r4, #40]	@ 0x28
      hi2c->XferCount--;
 800242c:	8d63      	ldrh	r3, [r4, #42]	@ 0x2a
 800242e:	b29b      	uxth	r3, r3
 8002430:	3b01      	subs	r3, #1
 8002432:	b29b      	uxth	r3, r3
 8002434:	8563      	strh	r3, [r4, #42]	@ 0x2a
      if ((__HAL_I2C_GET_FLAG(hi2c, I2C_FLAG_BTF) == SET) && (hi2c->XferSize != 0U))
 8002436:	6823      	ldr	r3, [r4, #0]
 8002438:	6958      	ldr	r0, [r3, #20]
 800243a:	f010 0f04 	tst.w	r0, #4
 800243e:	d0e1      	beq.n	8002404 <HAL_I2C_Mem_Write+0x9c>
 8002440:	2900      	cmp	r1, #0
 8002442:	d0df      	beq.n	8002404 <HAL_I2C_Mem_Write+0x9c>
        hi2c->Instance->DR = *hi2c->pBuffPtr;
 8002444:	7852      	ldrb	r2, [r2, #1]
 8002446:	611a      	str	r2, [r3, #16]
        hi2c->pBuffPtr++;
 8002448:	6a63      	ldr	r3, [r4, #36]	@ 0x24
 800244a:	3301      	adds	r3, #1
 800244c:	6263      	str	r3, [r4, #36]	@ 0x24
        hi2c->XferSize--;
 800244e:	8d23      	ldrh	r3, [r4, #40]	@ 0x28
 8002450:	3b01      	subs	r3, #1
 8002452:	8523      	strh	r3, [r4, #40]	@ 0x28
        hi2c->XferCount--;
 8002454:	8d63      	ldrh	r3, [r4, #42]	@ 0x2a
 8002456:	b29b      	uxth	r3, r3
 8002458:	3b01      	subs	r3, #1
 800245a:	b29b      	uxth	r3, r3
 800245c:	8563      	strh	r3, [r4, #42]	@ 0x2a
 800245e:	e7d1      	b.n	8002404 <HAL_I2C_Mem_Write+0x9c>
        if (hi2c->ErrorCode == HAL_I2C_ERROR_AF)
 8002460:	6c23      	ldr	r3, [r4, #64]	@ 0x40
 8002462:	2b04      	cmp	r3, #4
 8002464:	d001      	beq.n	800246a <HAL_I2C_Mem_Write+0x102>
        return HAL_ERROR;
 8002466:	2001      	movs	r0, #1
 8002468:	e78d      	b.n	8002386 <HAL_I2C_Mem_Write+0x1e>
          SET_BIT(hi2c->Instance->CR1, I2C_CR1_STOP);
 800246a:	6822      	ldr	r2, [r4, #0]
 800246c:	6813      	ldr	r3, [r2, #0]
 800246e:	f443 7300 	orr.w	r3, r3, #512	@ 0x200
 8002472:	6013      	str	r3, [r2, #0]
 8002474:	e7f7      	b.n	8002466 <HAL_I2C_Mem_Write+0xfe>
    if (I2C_WaitOnBTFFlagUntilTimeout(hi2c, Timeout, tickstart) != HAL_OK)
 8002476:	462a      	mov	r2, r5
 8002478:	4631      	mov	r1, r6
 800247a:	4620      	mov	r0, r4
 800247c:	f7ff fe2a 	bl	80020d4 <I2C_WaitOnBTFFlagUntilTimeout>
 8002480:	b150      	cbz	r0, 8002498 <HAL_I2C_Mem_Write+0x130>
      if (hi2c->ErrorCode == HAL_I2C_ERROR_AF)
 8002482:	6c23      	ldr	r3, [r4, #64]	@ 0x40
 8002484:	2b04      	cmp	r3, #4
 8002486:	d001      	beq.n	800248c <HAL_I2C_Mem_Write+0x124>
      return HAL_ERROR;
 8002488:	2001      	movs	r0, #1
 800248a:	e77c      	b.n	8002386 <HAL_I2C_Mem_Write+0x1e>
        SET_BIT(hi2c->Instance->CR1, I2C_CR1_STOP);
 800248c:	6822      	ldr	r2, [r4, #0]
 800248e:	6813      	ldr	r3, [r2, #0]
 8002490:	f443 7300 	orr.w	r3, r3, #512	@ 0x200
 8002494:	6013      	str	r3, [r2, #0]
 8002496:	e7f7      	b.n	8002488 <HAL_I2C_Mem_Write+0x120>
    SET_BIT(hi2c->Instance->CR1, I2C_CR1_STOP);
 8002498:	6822      	ldr	r2, [r4, #0]
 800249a:	6813      	ldr	r3, [r2, #0]
 800249c:	f443 7300 	orr.w	r3, r3, #512	@ 0x200
 80024a0:	6013      	str	r3, [r2, #0]
    hi2c->State = HAL_I2C_STATE_READY;
 80024a2:	2320      	movs	r3, #32
 80024a4:	f884 303d 	strb.w	r3, [r4, #61]	@ 0x3d
    hi2c->Mode = HAL_I2C_MODE_NONE;
 80024a8:	2300      	movs	r3, #0
 80024aa:	f884 303e 	strb.w	r3, [r4, #62]	@ 0x3e
    __HAL_UNLOCK(hi2c);
 80024ae:	f884 303c 	strb.w	r3, [r4, #60]	@ 0x3c
    return HAL_OK;
 80024b2:	e768      	b.n	8002386 <HAL_I2C_Mem_Write+0x1e>
      return HAL_BUSY;
 80024b4:	2002      	movs	r0, #2
 80024b6:	e766      	b.n	8002386 <HAL_I2C_Mem_Write+0x1e>
    __HAL_LOCK(hi2c);
 80024b8:	2002      	movs	r0, #2
 80024ba:	e764      	b.n	8002386 <HAL_I2C_Mem_Write+0x1e>
      return HAL_ERROR;
 80024bc:	2001      	movs	r0, #1
 80024be:	e762      	b.n	8002386 <HAL_I2C_Mem_Write+0x1e>
 80024c0:	00100002 	.word	0x00100002
 80024c4:	ffff0000 	.word	0xffff0000

080024c8 <HAL_I2C_Mem_Read>:
{
 80024c8:	e92d 43f0 	stmdb	sp!, {r4, r5, r6, r7, r8, r9, lr}
 80024cc:	b087      	sub	sp, #28
 80024ce:	4604      	mov	r4, r0
 80024d0:	460f      	mov	r7, r1
 80024d2:	4690      	mov	r8, r2
 80024d4:	4699      	mov	r9, r3
 80024d6:	9e10      	ldr	r6, [sp, #64]	@ 0x40
  uint32_t tickstart = HAL_GetTick();
 80024d8:	f7ff fa64 	bl	80019a4 <HAL_GetTick>
  if (hi2c->State == HAL_I2C_STATE_READY)
 80024dc:	f894 203d 	ldrb.w	r2, [r4, #61]	@ 0x3d
 80024e0:	2a20      	cmp	r2, #32
 80024e2:	d004      	beq.n	80024ee <HAL_I2C_Mem_Read+0x26>
    return HAL_BUSY;
 80024e4:	2702      	movs	r7, #2
}
 80024e6:	4638      	mov	r0, r7
 80024e8:	b007      	add	sp, #28
 80024ea:	e8bd 83f0 	ldmia.w	sp!, {r4, r5, r6, r7, r8, r9, pc}
 80024ee:	4605      	mov	r5, r0
    if (I2C_WaitOnFlagUntilTimeout(hi2c, I2C_FLAG_BUSY, SET, I2C_TIMEOUT_BUSY_FLAG, tickstart) != HAL_OK)
 80024f0:	9000      	str	r0, [sp, #0]
 80024f2:	2319      	movs	r3, #25
 80024f4:	2201      	movs	r2, #1
 80024f6:	4989      	ldr	r1, [pc, #548]	@ (800271c <HAL_I2C_Mem_Read+0x254>)
 80024f8:	4620      	mov	r0, r4
 80024fa:	f7ff fbe6 	bl	8001cca <I2C_WaitOnFlagUntilTimeout>
 80024fe:	2800      	cmp	r0, #0
 8002500:	f040 814e 	bne.w	80027a0 <HAL_I2C_Mem_Read+0x2d8>
    __HAL_LOCK(hi2c);
 8002504:	f894 303c 	ldrb.w	r3, [r4, #60]	@ 0x3c
 8002508:	2b01      	cmp	r3, #1
 800250a:	f000 814b 	beq.w	80027a4 <HAL_I2C_Mem_Read+0x2dc>
 800250e:	2301      	movs	r3, #1
 8002510:	f884 303c 	strb.w	r3, [r4, #60]	@ 0x3c
    if ((hi2c->Instance->CR1 & I2C_CR1_PE) != I2C_CR1_PE)
 8002514:	6823      	ldr	r3, [r4, #0]
 8002516:	681a      	ldr	r2, [r3, #0]
 8002518:	f012 0f01 	tst.w	r2, #1
 800251c:	d103      	bne.n	8002526 <HAL_I2C_Mem_Read+0x5e>
      __HAL_I2C_ENABLE(hi2c);
 800251e:	681a      	ldr	r2, [r3, #0]
 8002520:	f042 0201 	orr.w	r2, r2, #1
 8002524:	601a      	str	r2, [r3, #0]
    CLEAR_BIT(hi2c->Instance->CR1, I2C_CR1_POS);
 8002526:	6822      	ldr	r2, [r4, #0]
 8002528:	6813      	ldr	r3, [r2, #0]
 800252a:	f423 6300 	bic.w	r3, r3, #2048	@ 0x800
 800252e:	6013      	str	r3, [r2, #0]
    hi2c->State     = HAL_I2C_STATE_BUSY_RX;
 8002530:	2322      	movs	r3, #34	@ 0x22
 8002532:	f884 303d 	strb.w	r3, [r4, #61]	@ 0x3d
    hi2c->Mode      = HAL_I2C_MODE_MEM;
 8002536:	2340      	movs	r3, #64	@ 0x40
 8002538:	f884 303e 	strb.w	r3, [r4, #62]	@ 0x3e
    hi2c->ErrorCode = HAL_I2C_ERROR_NONE;
 800253c:	2300      	movs	r3, #0
 800253e:	6423      	str	r3, [r4, #64]	@ 0x40
    hi2c->pBuffPtr    = pData;
 8002540:	9b0e      	ldr	r3, [sp, #56]	@ 0x38
 8002542:	6263      	str	r3, [r4, #36]	@ 0x24
    hi2c->XferCount   = Size;
 8002544:	f8bd 303c 	ldrh.w	r3, [sp, #60]	@ 0x3c
 8002548:	8563      	strh	r3, [r4, #42]	@ 0x2a
    hi2c->XferSize    = hi2c->XferCount;
 800254a:	8d63      	ldrh	r3, [r4, #42]	@ 0x2a
 800254c:	8523      	strh	r3, [r4, #40]	@ 0x28
    hi2c->XferOptions = I2C_NO_OPTION_FRAME;
 800254e:	4b74      	ldr	r3, [pc, #464]	@ (8002720 <HAL_I2C_Mem_Read+0x258>)
 8002550:	62e3      	str	r3, [r4, #44]	@ 0x2c
    if (I2C_RequestMemoryRead(hi2c, DevAddress, MemAddress, MemAddSize, Timeout, tickstart) != HAL_OK)
 8002552:	9501      	str	r5, [sp, #4]
 8002554:	9600      	str	r6, [sp, #0]
 8002556:	464b      	mov	r3, r9
 8002558:	4642      	mov	r2, r8
 800255a:	4639      	mov	r1, r7
 800255c:	4620      	mov	r0, r4
 800255e:	f7ff fd0f 	bl	8001f80 <I2C_RequestMemoryRead>
 8002562:	4607      	mov	r7, r0
 8002564:	2800      	cmp	r0, #0
 8002566:	f040 811f 	bne.w	80027a8 <HAL_I2C_Mem_Read+0x2e0>
    if (hi2c->XferSize == 0U)
 800256a:	8d23      	ldrh	r3, [r4, #40]	@ 0x28
 800256c:	b95b      	cbnz	r3, 8002586 <HAL_I2C_Mem_Read+0xbe>
      __HAL_I2C_CLEAR_ADDRFLAG(hi2c);
 800256e:	9302      	str	r3, [sp, #8]
 8002570:	6823      	ldr	r3, [r4, #0]
 8002572:	695a      	ldr	r2, [r3, #20]
 8002574:	9202      	str	r2, [sp, #8]
 8002576:	699a      	ldr	r2, [r3, #24]
 8002578:	9202      	str	r2, [sp, #8]
 800257a:	9a02      	ldr	r2, [sp, #8]
      SET_BIT(hi2c->Instance->CR1, I2C_CR1_STOP);
 800257c:	681a      	ldr	r2, [r3, #0]
 800257e:	f442 7200 	orr.w	r2, r2, #512	@ 0x200
 8002582:	601a      	str	r2, [r3, #0]
 8002584:	e075      	b.n	8002672 <HAL_I2C_Mem_Read+0x1aa>
    else if (hi2c->XferSize == 1U)
 8002586:	2b01      	cmp	r3, #1
 8002588:	d00a      	beq.n	80025a0 <HAL_I2C_Mem_Read+0xd8>
    else if (hi2c->XferSize == 2U)
 800258a:	2b02      	cmp	r3, #2
 800258c:	d01a      	beq.n	80025c4 <HAL_I2C_Mem_Read+0xfc>
      __HAL_I2C_CLEAR_ADDRFLAG(hi2c);
 800258e:	2300      	movs	r3, #0
 8002590:	9305      	str	r3, [sp, #20]
 8002592:	6823      	ldr	r3, [r4, #0]
 8002594:	695a      	ldr	r2, [r3, #20]
 8002596:	9205      	str	r2, [sp, #20]
 8002598:	699b      	ldr	r3, [r3, #24]
 800259a:	9305      	str	r3, [sp, #20]
 800259c:	9b05      	ldr	r3, [sp, #20]
 800259e:	e068      	b.n	8002672 <HAL_I2C_Mem_Read+0x1aa>
      CLEAR_BIT(hi2c->Instance->CR1, I2C_CR1_ACK);
 80025a0:	6822      	ldr	r2, [r4, #0]
 80025a2:	6813      	ldr	r3, [r2, #0]
 80025a4:	f423 6380 	bic.w	r3, r3, #1024	@ 0x400
 80025a8:	6013      	str	r3, [r2, #0]
      __HAL_I2C_CLEAR_ADDRFLAG(hi2c);
 80025aa:	2300      	movs	r3, #0
 80025ac:	9303      	str	r3, [sp, #12]
 80025ae:	6823      	ldr	r3, [r4, #0]
 80025b0:	695a      	ldr	r2, [r3, #20]
 80025b2:	9203      	str	r2, [sp, #12]
 80025b4:	699a      	ldr	r2, [r3, #24]
 80025b6:	9203      	str	r2, [sp, #12]
 80025b8:	9a03      	ldr	r2, [sp, #12]
      SET_BIT(hi2c->Instance->CR1, I2C_CR1_STOP);
 80025ba:	681a      	ldr	r2, [r3, #0]
 80025bc:	f442 7200 	orr.w	r2, r2, #512	@ 0x200
 80025c0:	601a      	str	r2, [r3, #0]
 80025c2:	e056      	b.n	8002672 <HAL_I2C_Mem_Read+0x1aa>
      CLEAR_BIT(hi2c->Instance->CR1, I2C_CR1_ACK);
 80025c4:	6822      	ldr	r2, [r4, #0]
 80025c6:	6813      	ldr	r3, [r2, #0]
 80025c8:	f423 6380 	bic.w	r3, r3, #1024	@ 0x400
 80025cc:	6013      	str	r3, [r2, #0]
      SET_BIT(hi2c->Instance->CR1, I2C_CR1_POS);
 80025ce:	6822      	ldr	r2, [r4, #0]
 80025d0:	6813      	ldr	r3, [r2, #0]
 80025d2:	f443 6300 	orr.w	r3, r3, #2048	@ 0x800
 80025d6:	6013      	str	r3, [r2, #0]
      __HAL_I2C_CLEAR_ADDRFLAG(hi2c);
 80025d8:	2300      	movs	r3, #0
 80025da:	9304      	str	r3, [sp, #16]
 80025dc:	6823      	ldr	r3, [r4, #0]
 80025de:	695a      	ldr	r2, [r3, #20]
 80025e0:	9204      	str	r2, [sp, #16]
 80025e2:	699b      	ldr	r3, [r3, #24]
 80025e4:	9304      	str	r3, [sp, #16]
 80025e6:	9b04      	ldr	r3, [sp, #16]
 80025e8:	e043      	b.n	8002672 <HAL_I2C_Mem_Read+0x1aa>
          if (I2C_WaitOnRXNEFlagUntilTimeout(hi2c, Timeout, tickstart) != HAL_OK)
 80025ea:	462a      	mov	r2, r5
 80025ec:	4631      	mov	r1, r6
 80025ee:	4620      	mov	r0, r4
 80025f0:	f7ff fd9f 	bl	8002132 <I2C_WaitOnRXNEFlagUntilTimeout>
 80025f4:	2800      	cmp	r0, #0
 80025f6:	f040 80d9 	bne.w	80027ac <HAL_I2C_Mem_Read+0x2e4>
          *hi2c->pBuffPtr = (uint8_t)hi2c->Instance->DR;
 80025fa:	6823      	ldr	r3, [r4, #0]
 80025fc:	691a      	ldr	r2, [r3, #16]
 80025fe:	6a63      	ldr	r3, [r4, #36]	@ 0x24
 8002600:	701a      	strb	r2, [r3, #0]
          hi2c->pBuffPtr++;
 8002602:	6a63      	ldr	r3, [r4, #36]	@ 0x24
 8002604:	3301      	adds	r3, #1
 8002606:	6263      	str	r3, [r4, #36]	@ 0x24
          hi2c->XferSize--;
 8002608:	8d23      	ldrh	r3, [r4, #40]	@ 0x28
 800260a:	3b01      	subs	r3, #1
 800260c:	8523      	strh	r3, [r4, #40]	@ 0x28
          hi2c->XferCount--;
 800260e:	8d63      	ldrh	r3, [r4, #42]	@ 0x2a
 8002610:	b29b      	uxth	r3, r3
 8002612:	3b01      	subs	r3, #1
 8002614:	b29b      	uxth	r3, r3
 8002616:	8563      	strh	r3, [r4, #42]	@ 0x2a
 8002618:	e02b      	b.n	8002672 <HAL_I2C_Mem_Read+0x1aa>
          if (I2C_WaitOnFlagUntilTimeout(hi2c, I2C_FLAG_BTF, RESET, Timeout, tickstart) != HAL_OK)
 800261a:	9500      	str	r5, [sp, #0]
 800261c:	4633      	mov	r3, r6
 800261e:	2200      	movs	r2, #0
 8002620:	4940      	ldr	r1, [pc, #256]	@ (8002724 <HAL_I2C_Mem_Read+0x25c>)
 8002622:	4620      	mov	r0, r4
 8002624:	f7ff fb51 	bl	8001cca <I2C_WaitOnFlagUntilTimeout>
 8002628:	2800      	cmp	r0, #0
 800262a:	f040 80c1 	bne.w	80027b0 <HAL_I2C_Mem_Read+0x2e8>
          SET_BIT(hi2c->Instance->CR1, I2C_CR1_STOP);
 800262e:	6822      	ldr	r2, [r4, #0]
 8002630:	6813      	ldr	r3, [r2, #0]
 8002632:	f443 7300 	orr.w	r3, r3, #512	@ 0x200
 8002636:	6013      	str	r3, [r2, #0]
          *hi2c->pBuffPtr = (uint8_t)hi2c->Instance->DR;
 8002638:	6823      	ldr	r3, [r4, #0]
 800263a:	691a      	ldr	r2, [r3, #16]
 800263c:	6a63      	ldr	r3, [r4, #36]	@ 0x24
 800263e:	701a      	strb	r2, [r3, #0]
          hi2c->pBuffPtr++;
 8002640:	6a62      	ldr	r2, [r4, #36]	@ 0x24
 8002642:	1c53      	adds	r3, r2, #1
 8002644:	6263      	str	r3, [r4, #36]	@ 0x24
          hi2c->XferSize--;
 8002646:	8d23      	ldrh	r3, [r4, #40]	@ 0x28
 8002648:	3b01      	subs	r3, #1
 800264a:	8523      	strh	r3, [r4, #40]	@ 0x28
          hi2c->XferCount--;
 800264c:	8d63      	ldrh	r3, [r4, #42]	@ 0x2a
 800264e:	b29b      	uxth	r3, r3
 8002650:	3b01      	subs	r3, #1
 8002652:	b29b      	uxth	r3, r3
 8002654:	8563      	strh	r3, [r4, #42]	@ 0x2a
          *hi2c->pBuffPtr = (uint8_t)hi2c->Instance->DR;
 8002656:	6823      	ldr	r3, [r4, #0]
 8002658:	691b      	ldr	r3, [r3, #16]
 800265a:	7053      	strb	r3, [r2, #1]
          hi2c->pBuffPtr++;
 800265c:	6a63      	ldr	r3, [r4, #36]	@ 0x24
 800265e:	3301      	adds	r3, #1
 8002660:	6263      	str	r3, [r4, #36]	@ 0x24
          hi2c->XferSize--;
 8002662:	8d23      	ldrh	r3, [r4, #40]	@ 0x28
 8002664:	3b01      	subs	r3, #1
 8002666:	8523      	strh	r3, [r4, #40]	@ 0x28
          hi2c->XferCount--;
 8002668:	8d63      	ldrh	r3, [r4, #42]	@ 0x2a
 800266a:	b29b      	uxth	r3, r3
 800266c:	3b01      	subs	r3, #1
 800266e:	b29b      	uxth	r3, r3
 8002670:	8563      	strh	r3, [r4, #42]	@ 0x2a
    while (hi2c->XferSize > 0U)
 8002672:	8d23      	ldrh	r3, [r4, #40]	@ 0x28
 8002674:	2b00      	cmp	r3, #0
 8002676:	f000 808a 	beq.w	800278e <HAL_I2C_Mem_Read+0x2c6>
      if (hi2c->XferSize <= 3U)
 800267a:	2b03      	cmp	r3, #3
 800267c:	d854      	bhi.n	8002728 <HAL_I2C_Mem_Read+0x260>
        if (hi2c->XferSize == 1U)
 800267e:	2b01      	cmp	r3, #1
 8002680:	d0b3      	beq.n	80025ea <HAL_I2C_Mem_Read+0x122>
        else if (hi2c->XferSize == 2U)
 8002682:	2b02      	cmp	r3, #2
 8002684:	d0c9      	beq.n	800261a <HAL_I2C_Mem_Read+0x152>
          if (I2C_WaitOnFlagUntilTimeout(hi2c, I2C_FLAG_BTF, RESET, Timeout, tickstart) != HAL_OK)
 8002686:	9500      	str	r5, [sp, #0]
 8002688:	4633      	mov	r3, r6
 800268a:	2200      	movs	r2, #0
 800268c:	4925      	ldr	r1, [pc, #148]	@ (8002724 <HAL_I2C_Mem_Read+0x25c>)
 800268e:	4620      	mov	r0, r4
 8002690:	f7ff fb1b 	bl	8001cca <I2C_WaitOnFlagUntilTimeout>
 8002694:	2800      	cmp	r0, #0
 8002696:	f040 808d 	bne.w	80027b4 <HAL_I2C_Mem_Read+0x2ec>
          CLEAR_BIT(hi2c->Instance->CR1, I2C_CR1_ACK);
 800269a:	6822      	ldr	r2, [r4, #0]
 800269c:	6813      	ldr	r3, [r2, #0]
 800269e:	f423 6380 	bic.w	r3, r3, #1024	@ 0x400
 80026a2:	6013      	str	r3, [r2, #0]
          *hi2c->pBuffPtr = (uint8_t)hi2c->Instance->DR;
 80026a4:	6823      	ldr	r3, [r4, #0]
 80026a6:	691a      	ldr	r2, [r3, #16]
 80026a8:	6a63      	ldr	r3, [r4, #36]	@ 0x24
 80026aa:	701a      	strb	r2, [r3, #0]
          hi2c->pBuffPtr++;
 80026ac:	6a63      	ldr	r3, [r4, #36]	@ 0x24
 80026ae:	3301      	adds	r3, #1
 80026b0:	6263      	str	r3, [r4, #36]	@ 0x24
          hi2c->XferSize--;
 80026b2:	8d23      	ldrh	r3, [r4, #40]	@ 0x28
 80026b4:	3b01      	subs	r3, #1
 80026b6:	8523      	strh	r3, [r4, #40]	@ 0x28
          hi2c->XferCount--;
 80026b8:	8d63      	ldrh	r3, [r4, #42]	@ 0x2a
 80026ba:	b29b      	uxth	r3, r3
 80026bc:	3b01      	subs	r3, #1
 80026be:	b29b      	uxth	r3, r3
 80026c0:	8563      	strh	r3, [r4, #42]	@ 0x2a
          if (I2C_WaitOnFlagUntilTimeout(hi2c, I2C_FLAG_BTF, RESET, Timeout, tickstart) != HAL_OK)
 80026c2:	9500      	str	r5, [sp, #0]
 80026c4:	4633      	mov	r3, r6
 80026c6:	2200      	movs	r2, #0
 80026c8:	4916      	ldr	r1, [pc, #88]	@ (8002724 <HAL_I2C_Mem_Read+0x25c>)
 80026ca:	4620      	mov	r0, r4
 80026cc:	f7ff fafd 	bl	8001cca <I2C_WaitOnFlagUntilTimeout>
 80026d0:	2800      	cmp	r0, #0
 80026d2:	d171      	bne.n	80027b8 <HAL_I2C_Mem_Read+0x2f0>
          SET_BIT(hi2c->Instance->CR1, I2C_CR1_STOP);
 80026d4:	6822      	ldr	r2, [r4, #0]
 80026d6:	6813      	ldr	r3, [r2, #0]
 80026d8:	f443 7300 	orr.w	r3, r3, #512	@ 0x200
 80026dc:	6013      	str	r3, [r2, #0]
          *hi2c->pBuffPtr = (uint8_t)hi2c->Instance->DR;
 80026de:	6823      	ldr	r3, [r4, #0]
 80026e0:	691a      	ldr	r2, [r3, #16]
 80026e2:	6a63      	ldr	r3, [r4, #36]	@ 0x24
 80026e4:	701a      	strb	r2, [r3, #0]
          hi2c->pBuffPtr++;
 80026e6:	6a62      	ldr	r2, [r4, #36]	@ 0x24
 80026e8:	1c53      	adds	r3, r2, #1
 80026ea:	6263      	str	r3, [r4, #36]	@ 0x24
          hi2c->XferSize--;
 80026ec:	8d23      	ldrh	r3, [r4, #40]	@ 0x28
 80026ee:	3b01      	subs	r3, #1
 80026f0:	8523      	strh	r3, [r4, #40]	@ 0x28
          hi2c->XferCount--;
 80026f2:	8d63      	ldrh	r3, [r4, #42]	@ 0x2a
 80026f4:	b29b      	uxth	r3, r3
 80026f6:	3b01      	subs	r3, #1
 80026f8:	b29b      	uxth	r3, r3
 80026fa:	8563      	strh	r3, [r4, #42]	@ 0x2a
          *hi2c->pBuffPtr = (uint8_t)hi2c->Instance->DR;
 80026fc:	6823      	ldr	r3, [r4, #0]
 80026fe:	691b      	ldr	r3, [r3, #16]
 8002700:	7053      	strb	r3, [r2, #1]
          hi2c->pBuffPtr++;
 8002702:	6a63      	ldr	r3, [r4, #36]	@ 0x24
 8002704:	3301      	adds	r3, #1
 8002706:	6263      	str	r3, [r4, #36]	@ 0x24
          hi2c->XferSize--;
 8002708:	8d23      	ldrh	r3, [r4, #40]	@ 0x28
 800270a:	3b01      	subs	r3, #1
 800270c:	8523      	strh	r3, [r4, #40]	@ 0x28
          hi2c->XferCount--;
 800270e:	8d63      	ldrh	r3, [r4, #42]	@ 0x2a
 8002710:	b29b      	uxth	r3, r3
 8002712:	3b01      	subs	r3, #1
 8002714:	b29b      	uxth	r3, r3
 8002716:	8563      	strh	r3, [r4, #42]	@ 0x2a
 8002718:	e7ab      	b.n	8002672 <HAL_I2C_Mem_Read+0x1aa>
 800271a:	bf00      	nop
 800271c:	00100002 	.word	0x00100002
 8002720:	ffff0000 	.word	0xffff0000
 8002724:	00010004 	.word	0x00010004
        if (I2C_WaitOnRXNEFlagUntilTimeout(hi2c, Timeout, tickstart) != HAL_OK)
 8002728:	462a      	mov	r2, r5
 800272a:	4631      	mov	r1, r6
 800272c:	4620      	mov	r0, r4
 800272e:	f7ff fd00 	bl	8002132 <I2C_WaitOnRXNEFlagUntilTimeout>
 8002732:	2800      	cmp	r0, #0
 8002734:	d142      	bne.n	80027bc <HAL_I2C_Mem_Read+0x2f4>
        *hi2c->pBuffPtr = (uint8_t)hi2c->Instance->DR;
 8002736:	6823      	ldr	r3, [r4, #0]
 8002738:	691a      	ldr	r2, [r3, #16]
 800273a:	6a63      	ldr	r3, [r4, #36]	@ 0x24
 800273c:	701a      	strb	r2, [r3, #0]
        hi2c->pBuffPtr++;
 800273e:	6a63      	ldr	r3, [r4, #36]	@ 0x24
 8002740:	3301      	adds	r3, #1
 8002742:	6263      	str	r3, [r4, #36]	@ 0x24
        hi2c->XferSize--;
 8002744:	8d22      	ldrh	r2, [r4, #40]	@ 0x28
 8002746:	3a01      	subs	r2, #1
 8002748:	b292      	uxth	r2, r2
 800274a:	8522      	strh	r2, [r4, #40]	@ 0x28
        hi2c->XferCount--;
 800274c:	8d63      	ldrh	r3, [r4, #42]	@ 0x2a
 800274e:	b29b      	uxth	r3, r3
 8002750:	3b01      	subs	r3, #1
 8002752:	b29b      	uxth	r3, r3
 8002754:	8563      	strh	r3, [r4, #42]	@ 0x2a
        if (__HAL_I2C_GET_FLAG(hi2c, I2C_FLAG_BTF) == SET)
 8002756:	6823      	ldr	r3, [r4, #0]
 8002758:	6959      	ldr	r1, [r3, #20]
 800275a:	f011 0f04 	tst.w	r1, #4
 800275e:	d088      	beq.n	8002672 <HAL_I2C_Mem_Read+0x1aa>
          if (hi2c->XferSize == 3U)
 8002760:	2a03      	cmp	r2, #3
 8002762:	d00f      	beq.n	8002784 <HAL_I2C_Mem_Read+0x2bc>
          *hi2c->pBuffPtr = (uint8_t)hi2c->Instance->DR;
 8002764:	6823      	ldr	r3, [r4, #0]
 8002766:	691a      	ldr	r2, [r3, #16]
 8002768:	6a63      	ldr	r3, [r4, #36]	@ 0x24
 800276a:	701a      	strb	r2, [r3, #0]
          hi2c->pBuffPtr++;
 800276c:	6a63      	ldr	r3, [r4, #36]	@ 0x24
 800276e:	3301      	adds	r3, #1
 8002770:	6263      	str	r3, [r4, #36]	@ 0x24
          hi2c->XferSize--;
 8002772:	8d23      	ldrh	r3, [r4, #40]	@ 0x28
 8002774:	3b01      	subs	r3, #1
 8002776:	8523      	strh	r3, [r4, #40]	@ 0x28
          hi2c->XferCount--;
 8002778:	8d63      	ldrh	r3, [r4, #42]	@ 0x2a
 800277a:	b29b      	uxth	r3, r3
 800277c:	3b01      	subs	r3, #1
 800277e:	b29b      	uxth	r3, r3
 8002780:	8563      	strh	r3, [r4, #42]	@ 0x2a
 8002782:	e776      	b.n	8002672 <HAL_I2C_Mem_Read+0x1aa>
            CLEAR_BIT(hi2c->Instance->CR1, I2C_CR1_ACK);
 8002784:	681a      	ldr	r2, [r3, #0]
 8002786:	f422 6280 	bic.w	r2, r2, #1024	@ 0x400
 800278a:	601a      	str	r2, [r3, #0]
 800278c:	e7ea      	b.n	8002764 <HAL_I2C_Mem_Read+0x29c>
    hi2c->State = HAL_I2C_STATE_READY;
 800278e:	2320      	movs	r3, #32
 8002790:	f884 303d 	strb.w	r3, [r4, #61]	@ 0x3d
    hi2c->Mode = HAL_I2C_MODE_NONE;
 8002794:	2300      	movs	r3, #0
 8002796:	f884 303e 	strb.w	r3, [r4, #62]	@ 0x3e
    __HAL_UNLOCK(hi2c);
 800279a:	f884 303c 	strb.w	r3, [r4, #60]	@ 0x3c
    return HAL_OK;
 800279e:	e6a2      	b.n	80024e6 <HAL_I2C_Mem_Read+0x1e>
      return HAL_BUSY;
 80027a0:	2702      	movs	r7, #2
 80027a2:	e6a0      	b.n	80024e6 <HAL_I2C_Mem_Read+0x1e>
    __HAL_LOCK(hi2c);
 80027a4:	2702      	movs	r7, #2
 80027a6:	e69e      	b.n	80024e6 <HAL_I2C_Mem_Read+0x1e>
      return HAL_ERROR;
 80027a8:	2701      	movs	r7, #1
 80027aa:	e69c      	b.n	80024e6 <HAL_I2C_Mem_Read+0x1e>
            return HAL_ERROR;
 80027ac:	2701      	movs	r7, #1
 80027ae:	e69a      	b.n	80024e6 <HAL_I2C_Mem_Read+0x1e>
            return HAL_ERROR;
 80027b0:	2701      	movs	r7, #1
 80027b2:	e698      	b.n	80024e6 <HAL_I2C_Mem_Read+0x1e>
            return HAL_ERROR;
 80027b4:	2701      	movs	r7, #1
 80027b6:	e696      	b.n	80024e6 <HAL_I2C_Mem_Read+0x1e>
            return HAL_ERROR;
 80027b8:	2701      	movs	r7, #1
 80027ba:	e694      	b.n	80024e6 <HAL_I2C_Mem_Read+0x1e>
          return HAL_ERROR;
 80027bc:	2701      	movs	r7, #1
 80027be:	e692      	b.n	80024e6 <HAL_I2C_Mem_Read+0x1e>

080027c0 <HAL_MspInit>:
/* USER CODE END 0 */
/**
  * Initializes the Global MSP.
  */
void HAL_MspInit(void)
{
 80027c0:	b082      	sub	sp, #8

  /* USER CODE BEGIN MspInit 0 */

  /* USER CODE END MspInit 0 */

  __HAL_RCC_SYSCFG_CLK_ENABLE();
 80027c2:	2100      	movs	r1, #0
 80027c4:	9100      	str	r1, [sp, #0]
 80027c6:	4b0b      	ldr	r3, [pc, #44]	@ (80027f4 <HAL_MspInit+0x34>)
 80027c8:	6c5a      	ldr	r2, [r3, #68]	@ 0x44
 80027ca:	f442 4280 	orr.w	r2, r2, #16384	@ 0x4000
 80027ce:	645a      	str	r2, [r3, #68]	@ 0x44
 80027d0:	6c5a      	ldr	r2, [r3, #68]	@ 0x44
 80027d2:	f402 4280 	and.w	r2, r2, #16384	@ 0x4000
 80027d6:	9200      	str	r2, [sp, #0]
 80027d8:	9a00      	ldr	r2, [sp, #0]
  __HAL_RCC_PWR_CLK_ENABLE();
 80027da:	9101      	str	r1, [sp, #4]
 80027dc:	6c1a      	ldr	r2, [r3, #64]	@ 0x40
 80027de:	f042 5280 	orr.w	r2, r2, #268435456	@ 0x10000000
 80027e2:	641a      	str	r2, [r3, #64]	@ 0x40
 80027e4:	6c1b      	ldr	r3, [r3, #64]	@ 0x40
 80027e6:	f003 5380 	and.w	r3, r3, #268435456	@ 0x10000000
 80027ea:	9301      	str	r3, [sp, #4]
 80027ec:	9b01      	ldr	r3, [sp, #4]
  /* System interrupt init*/

  /* USER CODE BEGIN MspInit 1 */

  /* USER CODE END MspInit 1 */
}
 80027ee:	b002      	add	sp, #8
 80027f0:	4770      	bx	lr
 80027f2:	bf00      	nop
 80027f4:	40023800 	.word	0x40023800

080027f8 <HAL_RCC_OscConfig>:
__weak HAL_StatusTypeDef HAL_RCC_OscConfig(RCC_OscInitTypeDef  *RCC_OscInitStruct)
{
  uint32_t tickstart, pll_config;

  /* Check Null pointer */
  if(RCC_OscInitStruct == NULL)
 80027f8:	2800      	cmp	r0, #0
 80027fa:	f000 81e0 	beq.w	8002bbe <HAL_RCC_OscConfig+0x3c6>
{
 80027fe:	b570      	push	{r4, r5, r6, lr}
 8002800:	b082      	sub	sp, #8
 8002802:	4604      	mov	r4, r0
  }

  /* Check the parameters */
  assert_param(IS_RCC_OSCILLATORTYPE(RCC_OscInitStruct->OscillatorType));
  /*------------------------------- HSE Configuration ------------------------*/
  if(((RCC_OscInitStruct->OscillatorType) & RCC_OSCILLATORTYPE_HSE) == RCC_OSCILLATORTYPE_HSE)
 8002804:	6803      	ldr	r3, [r0, #0]
 8002806:	f013 0f01 	tst.w	r3, #1
 800280a:	d03b      	beq.n	8002884 <HAL_RCC_OscConfig+0x8c>
  {
    /* Check the parameters */
    assert_param(IS_RCC_HSE(RCC_OscInitStruct->HSEState));
    /* When the HSE is used as system clock or clock source for PLL in these cases HSE will not disabled */
    if((__HAL_RCC_GET_SYSCLK_SOURCE() == RCC_CFGR_SWS_HSE) ||\
 800280c:	4b9f      	ldr	r3, [pc, #636]	@ (8002a8c <HAL_RCC_OscConfig+0x294>)
 800280e:	689b      	ldr	r3, [r3, #8]
 8002810:	f003 030c 	and.w	r3, r3, #12
 8002814:	2b04      	cmp	r3, #4
 8002816:	d02c      	beq.n	8002872 <HAL_RCC_OscConfig+0x7a>
      ((__HAL_RCC_GET_SYSCLK_SOURCE() == RCC_CFGR_SWS_PLL) && ((RCC->PLLCFGR & RCC_PLLCFGR_PLLSRC) == RCC_PLLCFGR_PLLSRC_HSE)))
 8002818:	4b9c      	ldr	r3, [pc, #624]	@ (8002a8c <HAL_RCC_OscConfig+0x294>)
 800281a:	689b      	ldr	r3, [r3, #8]
 800281c:	f003 030c 	and.w	r3, r3, #12
    if((__HAL_RCC_GET_SYSCLK_SOURCE() == RCC_CFGR_SWS_HSE) ||\
 8002820:	2b08      	cmp	r3, #8
 8002822:	d021      	beq.n	8002868 <HAL_RCC_OscConfig+0x70>
      }
    }
    else
    {
      /* Set the new HSE configuration ---------------------------------------*/
      __HAL_RCC_HSE_CONFIG(RCC_OscInitStruct->HSEState);
 8002824:	6863      	ldr	r3, [r4, #4]
 8002826:	f5b3 3f80 	cmp.w	r3, #65536	@ 0x10000
 800282a:	d04f      	beq.n	80028cc <HAL_RCC_OscConfig+0xd4>
 800282c:	f5b3 2fa0 	cmp.w	r3, #327680	@ 0x50000
 8002830:	d052      	beq.n	80028d8 <HAL_RCC_OscConfig+0xe0>
 8002832:	4b96      	ldr	r3, [pc, #600]	@ (8002a8c <HAL_RCC_OscConfig+0x294>)
 8002834:	681a      	ldr	r2, [r3, #0]
 8002836:	f422 3280 	bic.w	r2, r2, #65536	@ 0x10000
 800283a:	601a      	str	r2, [r3, #0]
 800283c:	681a      	ldr	r2, [r3, #0]
 800283e:	f422 2280 	bic.w	r2, r2, #262144	@ 0x40000
 8002842:	601a      	str	r2, [r3, #0]

      /* Check the HSE State */
      if((RCC_OscInitStruct->HSEState) != RCC_HSE_OFF)
 8002844:	6863      	ldr	r3, [r4, #4]
 8002846:	2b00      	cmp	r3, #0
 8002848:	d050      	beq.n	80028ec <HAL_RCC_OscConfig+0xf4>
      {
        /* Get Start Tick */
        tickstart = HAL_GetTick();
 800284a:	f7ff f8ab 	bl	80019a4 <HAL_GetTick>
 800284e:	4605      	mov	r5, r0

        /* Wait till HSE is ready */
        while(__HAL_RCC_GET_FLAG(RCC_FLAG_HSERDY) == RESET)
 8002850:	4b8e      	ldr	r3, [pc, #568]	@ (8002a8c <HAL_RCC_OscConfig+0x294>)
 8002852:	681b      	ldr	r3, [r3, #0]
 8002854:	f413 3f00 	tst.w	r3, #131072	@ 0x20000
 8002858:	d114      	bne.n	8002884 <HAL_RCC_OscConfig+0x8c>
        {
          if((HAL_GetTick() - tickstart ) > HSE_TIMEOUT_VALUE)
 800285a:	f7ff f8a3 	bl	80019a4 <HAL_GetTick>
 800285e:	1b40      	subs	r0, r0, r5
 8002860:	2864      	cmp	r0, #100	@ 0x64
 8002862:	d9f5      	bls.n	8002850 <HAL_RCC_OscConfig+0x58>
          {
            return HAL_TIMEOUT;
 8002864:	2003      	movs	r0, #3
 8002866:	e1b1      	b.n	8002bcc <HAL_RCC_OscConfig+0x3d4>
      ((__HAL_RCC_GET_SYSCLK_SOURCE() == RCC_CFGR_SWS_PLL) && ((RCC->PLLCFGR & RCC_PLLCFGR_PLLSRC) == RCC_PLLCFGR_PLLSRC_HSE)))
 8002868:	4b88      	ldr	r3, [pc, #544]	@ (8002a8c <HAL_RCC_OscConfig+0x294>)
 800286a:	685b      	ldr	r3, [r3, #4]
 800286c:	f413 0f80 	tst.w	r3, #4194304	@ 0x400000
 8002870:	d0d8      	beq.n	8002824 <HAL_RCC_OscConfig+0x2c>
      if((__HAL_RCC_GET_FLAG(RCC_FLAG_HSERDY) != RESET) && (RCC_OscInitStruct->HSEState == RCC_HSE_OFF))
 8002872:	4b86      	ldr	r3, [pc, #536]	@ (8002a8c <HAL_RCC_OscConfig+0x294>)
 8002874:	681b      	ldr	r3, [r3, #0]
 8002876:	f413 3f00 	tst.w	r3, #131072	@ 0x20000
 800287a:	d003      	beq.n	8002884 <HAL_RCC_OscConfig+0x8c>
 800287c:	6863      	ldr	r3, [r4, #4]
 800287e:	2b00      	cmp	r3, #0
 8002880:	f000 819f 	beq.w	8002bc2 <HAL_RCC_OscConfig+0x3ca>
        }
      }
    }
  }
  /*----------------------------- HSI Configuration --------------------------*/
  if(((RCC_OscInitStruct->OscillatorType) & RCC_OSCILLATORTYPE_HSI) == RCC_OSCILLATORTYPE_HSI)
 8002884:	6823      	ldr	r3, [r4, #0]
 8002886:	f013 0f02 	tst.w	r3, #2
 800288a:	d054      	beq.n	8002936 <HAL_RCC_OscConfig+0x13e>
    /* Check the parameters */
    assert_param(IS_RCC_HSI(RCC_OscInitStruct->HSIState));
    assert_param(IS_RCC_CALIBRATION_VALUE(RCC_OscInitStruct->HSICalibrationValue));

    /* Check if HSI is used as system clock or as PLL source when PLL is selected as system clock */
    if((__HAL_RCC_GET_SYSCLK_SOURCE() == RCC_CFGR_SWS_HSI) ||\
 800288c:	4b7f      	ldr	r3, [pc, #508]	@ (8002a8c <HAL_RCC_OscConfig+0x294>)
 800288e:	689b      	ldr	r3, [r3, #8]
 8002890:	f013 0f0c 	tst.w	r3, #12
 8002894:	d03e      	beq.n	8002914 <HAL_RCC_OscConfig+0x11c>
      ((__HAL_RCC_GET_SYSCLK_SOURCE() == RCC_CFGR_SWS_PLL) && ((RCC->PLLCFGR & RCC_PLLCFGR_PLLSRC) == RCC_PLLCFGR_PLLSRC_HSI)))
 8002896:	4b7d      	ldr	r3, [pc, #500]	@ (8002a8c <HAL_RCC_OscConfig+0x294>)
 8002898:	689b      	ldr	r3, [r3, #8]
 800289a:	f003 030c 	and.w	r3, r3, #12
    if((__HAL_RCC_GET_SYSCLK_SOURCE() == RCC_CFGR_SWS_HSI) ||\
 800289e:	2b08      	cmp	r3, #8
 80028a0:	d033      	beq.n	800290a <HAL_RCC_OscConfig+0x112>
      }
    }
    else
    {
      /* Check the HSI State */
      if((RCC_OscInitStruct->HSIState)!= RCC_HSI_OFF)
 80028a2:	68e3      	ldr	r3, [r4, #12]
 80028a4:	2b00      	cmp	r3, #0
 80028a6:	d068      	beq.n	800297a <HAL_RCC_OscConfig+0x182>
      {
        /* Enable the Internal High Speed oscillator (HSI). */
        __HAL_RCC_HSI_ENABLE();
 80028a8:	4b79      	ldr	r3, [pc, #484]	@ (8002a90 <HAL_RCC_OscConfig+0x298>)
 80028aa:	2201      	movs	r2, #1
 80028ac:	601a      	str	r2, [r3, #0]

        /* Get Start Tick*/
        tickstart = HAL_GetTick();
 80028ae:	f7ff f879 	bl	80019a4 <HAL_GetTick>
 80028b2:	4605      	mov	r5, r0

        /* Wait till HSI is ready */
        while(__HAL_RCC_GET_FLAG(RCC_FLAG_HSIRDY) == RESET)
 80028b4:	4b75      	ldr	r3, [pc, #468]	@ (8002a8c <HAL_RCC_OscConfig+0x294>)
 80028b6:	681b      	ldr	r3, [r3, #0]
 80028b8:	f013 0f02 	tst.w	r3, #2
 80028bc:	d154      	bne.n	8002968 <HAL_RCC_OscConfig+0x170>
        {
          if((HAL_GetTick() - tickstart ) > HSI_TIMEOUT_VALUE)
 80028be:	f7ff f871 	bl	80019a4 <HAL_GetTick>
 80028c2:	1b40      	subs	r0, r0, r5
 80028c4:	2802      	cmp	r0, #2
 80028c6:	d9f5      	bls.n	80028b4 <HAL_RCC_OscConfig+0xbc>
          {
            return HAL_TIMEOUT;
 80028c8:	2003      	movs	r0, #3
 80028ca:	e17f      	b.n	8002bcc <HAL_RCC_OscConfig+0x3d4>
      __HAL_RCC_HSE_CONFIG(RCC_OscInitStruct->HSEState);
 80028cc:	4a6f      	ldr	r2, [pc, #444]	@ (8002a8c <HAL_RCC_OscConfig+0x294>)
 80028ce:	6813      	ldr	r3, [r2, #0]
 80028d0:	f443 3380 	orr.w	r3, r3, #65536	@ 0x10000
 80028d4:	6013      	str	r3, [r2, #0]
 80028d6:	e7b5      	b.n	8002844 <HAL_RCC_OscConfig+0x4c>
 80028d8:	4b6c      	ldr	r3, [pc, #432]	@ (8002a8c <HAL_RCC_OscConfig+0x294>)
 80028da:	681a      	ldr	r2, [r3, #0]
 80028dc:	f442 2280 	orr.w	r2, r2, #262144	@ 0x40000
 80028e0:	601a      	str	r2, [r3, #0]
 80028e2:	681a      	ldr	r2, [r3, #0]
 80028e4:	f442 3280 	orr.w	r2, r2, #65536	@ 0x10000
 80028e8:	601a      	str	r2, [r3, #0]
 80028ea:	e7ab      	b.n	8002844 <HAL_RCC_OscConfig+0x4c>
        tickstart = HAL_GetTick();
 80028ec:	f7ff f85a 	bl	80019a4 <HAL_GetTick>
 80028f0:	4605      	mov	r5, r0
        while(__HAL_RCC_GET_FLAG(RCC_FLAG_HSERDY) != RESET)
 80028f2:	4b66      	ldr	r3, [pc, #408]	@ (8002a8c <HAL_RCC_OscConfig+0x294>)
 80028f4:	681b      	ldr	r3, [r3, #0]
 80028f6:	f413 3f00 	tst.w	r3, #131072	@ 0x20000
 80028fa:	d0c3      	beq.n	8002884 <HAL_RCC_OscConfig+0x8c>
          if((HAL_GetTick() - tickstart ) > HSE_TIMEOUT_VALUE)
 80028fc:	f7ff f852 	bl	80019a4 <HAL_GetTick>
 8002900:	1b40      	subs	r0, r0, r5
 8002902:	2864      	cmp	r0, #100	@ 0x64
 8002904:	d9f5      	bls.n	80028f2 <HAL_RCC_OscConfig+0xfa>
            return HAL_TIMEOUT;
 8002906:	2003      	movs	r0, #3
 8002908:	e160      	b.n	8002bcc <HAL_RCC_OscConfig+0x3d4>
      ((__HAL_RCC_GET_SYSCLK_SOURCE() == RCC_CFGR_SWS_PLL) && ((RCC->PLLCFGR & RCC_PLLCFGR_PLLSRC) == RCC_PLLCFGR_PLLSRC_HSI)))
 800290a:	4b60      	ldr	r3, [pc, #384]	@ (8002a8c <HAL_RCC_OscConfig+0x294>)
 800290c:	685b      	ldr	r3, [r3, #4]
 800290e:	f413 0f80 	tst.w	r3, #4194304	@ 0x400000
 8002912:	d1c6      	bne.n	80028a2 <HAL_RCC_OscConfig+0xaa>
      if((__HAL_RCC_GET_FLAG(RCC_FLAG_HSIRDY) != RESET) && (RCC_OscInitStruct->HSIState != RCC_HSI_ON))
 8002914:	4b5d      	ldr	r3, [pc, #372]	@ (8002a8c <HAL_RCC_OscConfig+0x294>)
 8002916:	681b      	ldr	r3, [r3, #0]
 8002918:	f013 0f02 	tst.w	r3, #2
 800291c:	d003      	beq.n	8002926 <HAL_RCC_OscConfig+0x12e>
 800291e:	68e3      	ldr	r3, [r4, #12]
 8002920:	2b01      	cmp	r3, #1
 8002922:	f040 8150 	bne.w	8002bc6 <HAL_RCC_OscConfig+0x3ce>
        __HAL_RCC_HSI_CALIBRATIONVALUE_ADJUST(RCC_OscInitStruct->HSICalibrationValue);
 8002926:	4a59      	ldr	r2, [pc, #356]	@ (8002a8c <HAL_RCC_OscConfig+0x294>)
 8002928:	6813      	ldr	r3, [r2, #0]
 800292a:	f023 03f8 	bic.w	r3, r3, #248	@ 0xf8
 800292e:	6921      	ldr	r1, [r4, #16]
 8002930:	ea43 03c1 	orr.w	r3, r3, r1, lsl #3
 8002934:	6013      	str	r3, [r2, #0]
        }
      }
    }
  }
  /*------------------------------ LSI Configuration -------------------------*/
  if(((RCC_OscInitStruct->OscillatorType) & RCC_OSCILLATORTYPE_LSI) == RCC_OSCILLATORTYPE_LSI)
 8002936:	6823      	ldr	r3, [r4, #0]
 8002938:	f013 0f08 	tst.w	r3, #8
 800293c:	d042      	beq.n	80029c4 <HAL_RCC_OscConfig+0x1cc>
  {
    /* Check the parameters */
    assert_param(IS_RCC_LSI(RCC_OscInitStruct->LSIState));

    /* Check the LSI State */
    if((RCC_OscInitStruct->LSIState)!= RCC_LSI_OFF)
 800293e:	6963      	ldr	r3, [r4, #20]
 8002940:	b36b      	cbz	r3, 800299e <HAL_RCC_OscConfig+0x1a6>
    {
      /* Enable the Internal Low Speed oscillator (LSI). */
      __HAL_RCC_LSI_ENABLE();
 8002942:	4b53      	ldr	r3, [pc, #332]	@ (8002a90 <HAL_RCC_OscConfig+0x298>)
 8002944:	2201      	movs	r2, #1
 8002946:	f8c3 2e80 	str.w	r2, [r3, #3712]	@ 0xe80

      /* Get Start Tick*/
      tickstart = HAL_GetTick();
 800294a:	f7ff f82b 	bl	80019a4 <HAL_GetTick>
 800294e:	4605      	mov	r5, r0

      /* Wait till LSI is ready */
      while(__HAL_RCC_GET_FLAG(RCC_FLAG_LSIRDY) == RESET)
 8002950:	4b4e      	ldr	r3, [pc, #312]	@ (8002a8c <HAL_RCC_OscConfig+0x294>)
 8002952:	6f5b      	ldr	r3, [r3, #116]	@ 0x74
 8002954:	f013 0f02 	tst.w	r3, #2
 8002958:	d134      	bne.n	80029c4 <HAL_RCC_OscConfig+0x1cc>
      {
        if((HAL_GetTick() - tickstart ) > LSI_TIMEOUT_VALUE)
 800295a:	f7ff f823 	bl	80019a4 <HAL_GetTick>
 800295e:	1b40      	subs	r0, r0, r5
 8002960:	2802      	cmp	r0, #2
 8002962:	d9f5      	bls.n	8002950 <HAL_RCC_OscConfig+0x158>
        {
          return HAL_TIMEOUT;
 8002964:	2003      	movs	r0, #3
 8002966:	e131      	b.n	8002bcc <HAL_RCC_OscConfig+0x3d4>
        __HAL_RCC_HSI_CALIBRATIONVALUE_ADJUST(RCC_OscInitStruct->HSICalibrationValue);
 8002968:	4a48      	ldr	r2, [pc, #288]	@ (8002a8c <HAL_RCC_OscConfig+0x294>)
 800296a:	6813      	ldr	r3, [r2, #0]
 800296c:	f023 03f8 	bic.w	r3, r3, #248	@ 0xf8
 8002970:	6921      	ldr	r1, [r4, #16]
 8002972:	ea43 03c1 	orr.w	r3, r3, r1, lsl #3
 8002976:	6013      	str	r3, [r2, #0]
 8002978:	e7dd      	b.n	8002936 <HAL_RCC_OscConfig+0x13e>
        __HAL_RCC_HSI_DISABLE();
 800297a:	4b45      	ldr	r3, [pc, #276]	@ (8002a90 <HAL_RCC_OscConfig+0x298>)
 800297c:	2200      	movs	r2, #0
 800297e:	601a      	str	r2, [r3, #0]
        tickstart = HAL_GetTick();
 8002980:	f7ff f810 	bl	80019a4 <HAL_GetTick>
 8002984:	4605      	mov	r5, r0
        while(__HAL_RCC_GET_FLAG(RCC_FLAG_HSIRDY) != RESET)
 8002986:	4b41      	ldr	r3, [pc, #260]	@ (8002a8c <HAL_RCC_OscConfig+0x294>)
 8002988:	681b      	ldr	r3, [r3, #0]
 800298a:	f013 0f02 	tst.w	r3, #2
 800298e:	d0d2      	beq.n	8002936 <HAL_RCC_OscConfig+0x13e>
          if((HAL_GetTick() - tickstart ) > HSI_TIMEOUT_VALUE)
 8002990:	f7ff f808 	bl	80019a4 <HAL_GetTick>
 8002994:	1b40      	subs	r0, r0, r5
 8002996:	2802      	cmp	r0, #2
 8002998:	d9f5      	bls.n	8002986 <HAL_RCC_OscConfig+0x18e>
            return HAL_TIMEOUT;
 800299a:	2003      	movs	r0, #3
 800299c:	e116      	b.n	8002bcc <HAL_RCC_OscConfig+0x3d4>
      }
    }
    else
    {
      /* Disable the Internal Low Speed oscillator (LSI). */
      __HAL_RCC_LSI_DISABLE();
 800299e:	4b3c      	ldr	r3, [pc, #240]	@ (8002a90 <HAL_RCC_OscConfig+0x298>)
 80029a0:	2200      	movs	r2, #0
 80029a2:	f8c3 2e80 	str.w	r2, [r3, #3712]	@ 0xe80

      /* Get Start Tick */
      tickstart = HAL_GetTick();
 80029a6:	f7fe fffd 	bl	80019a4 <HAL_GetTick>
 80029aa:	4605      	mov	r5, r0

      /* Wait till LSI is ready */
      while(__HAL_RCC_GET_FLAG(RCC_FLAG_LSIRDY) != RESET)
 80029ac:	4b37      	ldr	r3, [pc, #220]	@ (8002a8c <HAL_RCC_OscConfig+0x294>)
 80029ae:	6f5b      	ldr	r3, [r3, #116]	@ 0x74
 80029b0:	f013 0f02 	tst.w	r3, #2
 80029b4:	d006      	beq.n	80029c4 <HAL_RCC_OscConfig+0x1cc>
      {
        if((HAL_GetTick() - tickstart ) > LSI_TIMEOUT_VALUE)
 80029b6:	f7fe fff5 	bl	80019a4 <HAL_GetTick>
 80029ba:	1b40      	subs	r0, r0, r5
 80029bc:	2802      	cmp	r0, #2
 80029be:	d9f5      	bls.n	80029ac <HAL_RCC_OscConfig+0x1b4>
        {
          return HAL_TIMEOUT;
 80029c0:	2003      	movs	r0, #3
 80029c2:	e103      	b.n	8002bcc <HAL_RCC_OscConfig+0x3d4>
        }
      }
    }
  }
  /*------------------------------ LSE Configuration -------------------------*/
  if(((RCC_OscInitStruct->OscillatorType) & RCC_OSCILLATORTYPE_LSE) == RCC_OSCILLATORTYPE_LSE)
 80029c4:	6823      	ldr	r3, [r4, #0]
 80029c6:	f013 0f04 	tst.w	r3, #4
 80029ca:	d077      	beq.n	8002abc <HAL_RCC_OscConfig+0x2c4>
    /* Check the parameters */
    assert_param(IS_RCC_LSE(RCC_OscInitStruct->LSEState));

    /* Update LSE configuration in Backup Domain control register    */
    /* Requires to enable write access to Backup Domain of necessary */
    if(__HAL_RCC_PWR_IS_CLK_DISABLED())
 80029cc:	4b2f      	ldr	r3, [pc, #188]	@ (8002a8c <HAL_RCC_OscConfig+0x294>)
 80029ce:	6c1b      	ldr	r3, [r3, #64]	@ 0x40
 80029d0:	f013 5f80 	tst.w	r3, #268435456	@ 0x10000000
 80029d4:	d133      	bne.n	8002a3e <HAL_RCC_OscConfig+0x246>
    {
      __HAL_RCC_PWR_CLK_ENABLE();
 80029d6:	2300      	movs	r3, #0
 80029d8:	9301      	str	r3, [sp, #4]
 80029da:	4b2c      	ldr	r3, [pc, #176]	@ (8002a8c <HAL_RCC_OscConfig+0x294>)
 80029dc:	6c1a      	ldr	r2, [r3, #64]	@ 0x40
 80029de:	f042 5280 	orr.w	r2, r2, #268435456	@ 0x10000000
 80029e2:	641a      	str	r2, [r3, #64]	@ 0x40
 80029e4:	6c1b      	ldr	r3, [r3, #64]	@ 0x40
 80029e6:	f003 5380 	and.w	r3, r3, #268435456	@ 0x10000000
 80029ea:	9301      	str	r3, [sp, #4]
 80029ec:	9b01      	ldr	r3, [sp, #4]
      pwrclkchanged = SET;
 80029ee:	2501      	movs	r5, #1
    }

    if(HAL_IS_BIT_CLR(PWR->CR, PWR_CR_DBP))
 80029f0:	4b28      	ldr	r3, [pc, #160]	@ (8002a94 <HAL_RCC_OscConfig+0x29c>)
 80029f2:	681b      	ldr	r3, [r3, #0]
 80029f4:	f413 7f80 	tst.w	r3, #256	@ 0x100
 80029f8:	d023      	beq.n	8002a42 <HAL_RCC_OscConfig+0x24a>
        }
      }
    }

    /* Set the new LSE configuration -----------------------------------------*/
    __HAL_RCC_LSE_CONFIG(RCC_OscInitStruct->LSEState);
 80029fa:	68a3      	ldr	r3, [r4, #8]
 80029fc:	2b01      	cmp	r3, #1
 80029fe:	d034      	beq.n	8002a6a <HAL_RCC_OscConfig+0x272>
 8002a00:	2b05      	cmp	r3, #5
 8002a02:	d038      	beq.n	8002a76 <HAL_RCC_OscConfig+0x27e>
 8002a04:	4b21      	ldr	r3, [pc, #132]	@ (8002a8c <HAL_RCC_OscConfig+0x294>)
 8002a06:	6f1a      	ldr	r2, [r3, #112]	@ 0x70
 8002a08:	f022 0201 	bic.w	r2, r2, #1
 8002a0c:	671a      	str	r2, [r3, #112]	@ 0x70
 8002a0e:	6f1a      	ldr	r2, [r3, #112]	@ 0x70
 8002a10:	f022 0204 	bic.w	r2, r2, #4
 8002a14:	671a      	str	r2, [r3, #112]	@ 0x70
    /* Check the LSE State */
    if((RCC_OscInitStruct->LSEState) != RCC_LSE_OFF)
 8002a16:	68a3      	ldr	r3, [r4, #8]
 8002a18:	2b00      	cmp	r3, #0
 8002a1a:	d03d      	beq.n	8002a98 <HAL_RCC_OscConfig+0x2a0>
    {
      /* Get Start Tick*/
      tickstart = HAL_GetTick();
 8002a1c:	f7fe ffc2 	bl	80019a4 <HAL_GetTick>
 8002a20:	4606      	mov	r6, r0

      /* Wait till LSE is ready */
      while(__HAL_RCC_GET_FLAG(RCC_FLAG_LSERDY) == RESET)
 8002a22:	4b1a      	ldr	r3, [pc, #104]	@ (8002a8c <HAL_RCC_OscConfig+0x294>)
 8002a24:	6f1b      	ldr	r3, [r3, #112]	@ 0x70
 8002a26:	f013 0f02 	tst.w	r3, #2
 8002a2a:	d146      	bne.n	8002aba <HAL_RCC_OscConfig+0x2c2>
      {
        if((HAL_GetTick() - tickstart ) > RCC_LSE_TIMEOUT_VALUE)
 8002a2c:	f7fe ffba 	bl	80019a4 <HAL_GetTick>
 8002a30:	1b80      	subs	r0, r0, r6
 8002a32:	f241 3388 	movw	r3, #5000	@ 0x1388
 8002a36:	4298      	cmp	r0, r3
 8002a38:	d9f3      	bls.n	8002a22 <HAL_RCC_OscConfig+0x22a>
        {
          return HAL_TIMEOUT;
 8002a3a:	2003      	movs	r0, #3
 8002a3c:	e0c6      	b.n	8002bcc <HAL_RCC_OscConfig+0x3d4>
    FlagStatus       pwrclkchanged = RESET;
 8002a3e:	2500      	movs	r5, #0
 8002a40:	e7d6      	b.n	80029f0 <HAL_RCC_OscConfig+0x1f8>
      SET_BIT(PWR->CR, PWR_CR_DBP);
 8002a42:	4a14      	ldr	r2, [pc, #80]	@ (8002a94 <HAL_RCC_OscConfig+0x29c>)
 8002a44:	6813      	ldr	r3, [r2, #0]
 8002a46:	f443 7380 	orr.w	r3, r3, #256	@ 0x100
 8002a4a:	6013      	str	r3, [r2, #0]
      tickstart = HAL_GetTick();
 8002a4c:	f7fe ffaa 	bl	80019a4 <HAL_GetTick>
 8002a50:	4606      	mov	r6, r0
      while(HAL_IS_BIT_CLR(PWR->CR, PWR_CR_DBP))
 8002a52:	4b10      	ldr	r3, [pc, #64]	@ (8002a94 <HAL_RCC_OscConfig+0x29c>)
 8002a54:	681b      	ldr	r3, [r3, #0]
 8002a56:	f413 7f80 	tst.w	r3, #256	@ 0x100
 8002a5a:	d1ce      	bne.n	80029fa <HAL_RCC_OscConfig+0x202>
        if((HAL_GetTick() - tickstart) > RCC_DBP_TIMEOUT_VALUE)
 8002a5c:	f7fe ffa2 	bl	80019a4 <HAL_GetTick>
 8002a60:	1b80      	subs	r0, r0, r6
 8002a62:	2802      	cmp	r0, #2
 8002a64:	d9f5      	bls.n	8002a52 <HAL_RCC_OscConfig+0x25a>
          return HAL_TIMEOUT;
 8002a66:	2003      	movs	r0, #3
 8002a68:	e0b0      	b.n	8002bcc <HAL_RCC_OscConfig+0x3d4>
    __HAL_RCC_LSE_CONFIG(RCC_OscInitStruct->LSEState);
 8002a6a:	4a08      	ldr	r2, [pc, #32]	@ (8002a8c <HAL_RCC_OscConfig+0x294>)
 8002a6c:	6f13      	ldr	r3, [r2, #112]	@ 0x70
 8002a6e:	f043 0301 	orr.w	r3, r3, #1
 8002a72:	6713      	str	r3, [r2, #112]	@ 0x70
 8002a74:	e7cf      	b.n	8002a16 <HAL_RCC_OscConfig+0x21e>
 8002a76:	4b05      	ldr	r3, [pc, #20]	@ (8002a8c <HAL_RCC_OscConfig+0x294>)
 8002a78:	6f1a      	ldr	r2, [r3, #112]	@ 0x70
 8002a7a:	f042 0204 	orr.w	r2, r2, #4
 8002a7e:	671a      	str	r2, [r3, #112]	@ 0x70
 8002a80:	6f1a      	ldr	r2, [r3, #112]	@ 0x70
 8002a82:	f042 0201 	orr.w	r2, r2, #1
 8002a86:	671a      	str	r2, [r3, #112]	@ 0x70
 8002a88:	e7c5      	b.n	8002a16 <HAL_RCC_OscConfig+0x21e>
 8002a8a:	bf00      	nop
 8002a8c:	40023800 	.word	0x40023800
 8002a90:	42470000 	.word	0x42470000
 8002a94:	40007000 	.word	0x40007000
      }
    }
    else
    {
      /* Get Start Tick */
      tickstart = HAL_GetTick();
 8002a98:	f7fe ff84 	bl	80019a4 <HAL_GetTick>
 8002a9c:	4606      	mov	r6, r0

      /* Wait till LSE is ready */
      while(__HAL_RCC_GET_FLAG(RCC_FLAG_LSERDY) != RESET)
 8002a9e:	4b52      	ldr	r3, [pc, #328]	@ (8002be8 <HAL_RCC_OscConfig+0x3f0>)
 8002aa0:	6f1b      	ldr	r3, [r3, #112]	@ 0x70
 8002aa2:	f013 0f02 	tst.w	r3, #2
 8002aa6:	d008      	beq.n	8002aba <HAL_RCC_OscConfig+0x2c2>
      {
        if((HAL_GetTick() - tickstart ) > RCC_LSE_TIMEOUT_VALUE)
 8002aa8:	f7fe ff7c 	bl	80019a4 <HAL_GetTick>
 8002aac:	1b80      	subs	r0, r0, r6
 8002aae:	f241 3388 	movw	r3, #5000	@ 0x1388
 8002ab2:	4298      	cmp	r0, r3
 8002ab4:	d9f3      	bls.n	8002a9e <HAL_RCC_OscConfig+0x2a6>
        {
          return HAL_TIMEOUT;
 8002ab6:	2003      	movs	r0, #3
 8002ab8:	e088      	b.n	8002bcc <HAL_RCC_OscConfig+0x3d4>
        }
      }
    }

    /* Restore clock configuration if changed */
    if(pwrclkchanged == SET)
 8002aba:	b9ed      	cbnz	r5, 8002af8 <HAL_RCC_OscConfig+0x300>
    }
  }
  /*-------------------------------- PLL Configuration -----------------------*/
  /* Check the parameters */
  assert_param(IS_RCC_PLL(RCC_OscInitStruct->PLL.PLLState));
  if ((RCC_OscInitStruct->PLL.PLLState) != RCC_PLL_NONE)
 8002abc:	69a3      	ldr	r3, [r4, #24]
 8002abe:	2b00      	cmp	r3, #0
 8002ac0:	f000 8083 	beq.w	8002bca <HAL_RCC_OscConfig+0x3d2>
  {
    /* Check if the PLL is used as system clock or not */
    if(__HAL_RCC_GET_SYSCLK_SOURCE() != RCC_CFGR_SWS_PLL)
 8002ac4:	4a48      	ldr	r2, [pc, #288]	@ (8002be8 <HAL_RCC_OscConfig+0x3f0>)
 8002ac6:	6892      	ldr	r2, [r2, #8]
 8002ac8:	f002 020c 	and.w	r2, r2, #12
 8002acc:	2a08      	cmp	r2, #8
 8002ace:	d051      	beq.n	8002b74 <HAL_RCC_OscConfig+0x37c>
    {
      if((RCC_OscInitStruct->PLL.PLLState) == RCC_PLL_ON)
 8002ad0:	2b02      	cmp	r3, #2
 8002ad2:	d017      	beq.n	8002b04 <HAL_RCC_OscConfig+0x30c>
        }
      }
      else
      {
        /* Disable the main PLL. */
        __HAL_RCC_PLL_DISABLE();
 8002ad4:	4b45      	ldr	r3, [pc, #276]	@ (8002bec <HAL_RCC_OscConfig+0x3f4>)
 8002ad6:	2200      	movs	r2, #0
 8002ad8:	661a      	str	r2, [r3, #96]	@ 0x60

        /* Get Start Tick */
        tickstart = HAL_GetTick();
 8002ada:	f7fe ff63 	bl	80019a4 <HAL_GetTick>
 8002ade:	4604      	mov	r4, r0

        /* Wait till PLL is disabled */
        while(__HAL_RCC_GET_FLAG(RCC_FLAG_PLLRDY) != RESET)
 8002ae0:	4b41      	ldr	r3, [pc, #260]	@ (8002be8 <HAL_RCC_OscConfig+0x3f0>)
 8002ae2:	681b      	ldr	r3, [r3, #0]
 8002ae4:	f013 7f00 	tst.w	r3, #33554432	@ 0x2000000
 8002ae8:	d042      	beq.n	8002b70 <HAL_RCC_OscConfig+0x378>
        {
          if((HAL_GetTick() - tickstart ) > PLL_TIMEOUT_VALUE)
 8002aea:	f7fe ff5b 	bl	80019a4 <HAL_GetTick>
 8002aee:	1b00      	subs	r0, r0, r4
 8002af0:	2802      	cmp	r0, #2
 8002af2:	d9f5      	bls.n	8002ae0 <HAL_RCC_OscConfig+0x2e8>
          {
            return HAL_TIMEOUT;
 8002af4:	2003      	movs	r0, #3
 8002af6:	e069      	b.n	8002bcc <HAL_RCC_OscConfig+0x3d4>
      __HAL_RCC_PWR_CLK_DISABLE();
 8002af8:	4a3b      	ldr	r2, [pc, #236]	@ (8002be8 <HAL_RCC_OscConfig+0x3f0>)
 8002afa:	6c13      	ldr	r3, [r2, #64]	@ 0x40
 8002afc:	f023 5380 	bic.w	r3, r3, #268435456	@ 0x10000000
 8002b00:	6413      	str	r3, [r2, #64]	@ 0x40
 8002b02:	e7db      	b.n	8002abc <HAL_RCC_OscConfig+0x2c4>
        __HAL_RCC_PLL_DISABLE();
 8002b04:	4b39      	ldr	r3, [pc, #228]	@ (8002bec <HAL_RCC_OscConfig+0x3f4>)
 8002b06:	2200      	movs	r2, #0
 8002b08:	661a      	str	r2, [r3, #96]	@ 0x60
        tickstart = HAL_GetTick();
 8002b0a:	f7fe ff4b 	bl	80019a4 <HAL_GetTick>
 8002b0e:	4605      	mov	r5, r0
        while(__HAL_RCC_GET_FLAG(RCC_FLAG_PLLRDY) != RESET)
 8002b10:	4b35      	ldr	r3, [pc, #212]	@ (8002be8 <HAL_RCC_OscConfig+0x3f0>)
 8002b12:	681b      	ldr	r3, [r3, #0]
 8002b14:	f013 7f00 	tst.w	r3, #33554432	@ 0x2000000
 8002b18:	d006      	beq.n	8002b28 <HAL_RCC_OscConfig+0x330>
          if((HAL_GetTick() - tickstart ) > PLL_TIMEOUT_VALUE)
 8002b1a:	f7fe ff43 	bl	80019a4 <HAL_GetTick>
 8002b1e:	1b40      	subs	r0, r0, r5
 8002b20:	2802      	cmp	r0, #2
 8002b22:	d9f5      	bls.n	8002b10 <HAL_RCC_OscConfig+0x318>
            return HAL_TIMEOUT;
 8002b24:	2003      	movs	r0, #3
 8002b26:	e051      	b.n	8002bcc <HAL_RCC_OscConfig+0x3d4>
        WRITE_REG(RCC->PLLCFGR, (RCC_OscInitStruct->PLL.PLLSource                                            | \
 8002b28:	69e3      	ldr	r3, [r4, #28]
 8002b2a:	6a22      	ldr	r2, [r4, #32]
 8002b2c:	4313      	orrs	r3, r2
 8002b2e:	6a62      	ldr	r2, [r4, #36]	@ 0x24
 8002b30:	ea43 1382 	orr.w	r3, r3, r2, lsl #6
 8002b34:	6aa2      	ldr	r2, [r4, #40]	@ 0x28
 8002b36:	0852      	lsrs	r2, r2, #1
 8002b38:	3a01      	subs	r2, #1
 8002b3a:	ea43 4302 	orr.w	r3, r3, r2, lsl #16
 8002b3e:	6ae2      	ldr	r2, [r4, #44]	@ 0x2c
 8002b40:	ea43 6302 	orr.w	r3, r3, r2, lsl #24
 8002b44:	4a28      	ldr	r2, [pc, #160]	@ (8002be8 <HAL_RCC_OscConfig+0x3f0>)
 8002b46:	6053      	str	r3, [r2, #4]
        __HAL_RCC_PLL_ENABLE();
 8002b48:	4b28      	ldr	r3, [pc, #160]	@ (8002bec <HAL_RCC_OscConfig+0x3f4>)
 8002b4a:	2201      	movs	r2, #1
 8002b4c:	661a      	str	r2, [r3, #96]	@ 0x60
        tickstart = HAL_GetTick();
 8002b4e:	f7fe ff29 	bl	80019a4 <HAL_GetTick>
 8002b52:	4604      	mov	r4, r0
        while(__HAL_RCC_GET_FLAG(RCC_FLAG_PLLRDY) == RESET)
 8002b54:	4b24      	ldr	r3, [pc, #144]	@ (8002be8 <HAL_RCC_OscConfig+0x3f0>)
 8002b56:	681b      	ldr	r3, [r3, #0]
 8002b58:	f013 7f00 	tst.w	r3, #33554432	@ 0x2000000
 8002b5c:	d106      	bne.n	8002b6c <HAL_RCC_OscConfig+0x374>
          if((HAL_GetTick() - tickstart ) > PLL_TIMEOUT_VALUE)
 8002b5e:	f7fe ff21 	bl	80019a4 <HAL_GetTick>
 8002b62:	1b00      	subs	r0, r0, r4
 8002b64:	2802      	cmp	r0, #2
 8002b66:	d9f5      	bls.n	8002b54 <HAL_RCC_OscConfig+0x35c>
            return HAL_TIMEOUT;
 8002b68:	2003      	movs	r0, #3
 8002b6a:	e02f      	b.n	8002bcc <HAL_RCC_OscConfig+0x3d4>
          return HAL_ERROR;
        }
      }
    }
  }
  return HAL_OK;
 8002b6c:	2000      	movs	r0, #0
 8002b6e:	e02d      	b.n	8002bcc <HAL_RCC_OscConfig+0x3d4>
 8002b70:	2000      	movs	r0, #0
 8002b72:	e02b      	b.n	8002bcc <HAL_RCC_OscConfig+0x3d4>
      if((RCC_OscInitStruct->PLL.PLLState) == RCC_PLL_OFF)
 8002b74:	2b01      	cmp	r3, #1
 8002b76:	d02b      	beq.n	8002bd0 <HAL_RCC_OscConfig+0x3d8>
        pll_config = RCC->PLLCFGR;
 8002b78:	4b1b      	ldr	r3, [pc, #108]	@ (8002be8 <HAL_RCC_OscConfig+0x3f0>)
 8002b7a:	685b      	ldr	r3, [r3, #4]
            (READ_BIT(pll_config, RCC_PLLCFGR_PLLSRC) != RCC_OscInitStruct->PLL.PLLSource) ||
 8002b7c:	f403 0180 	and.w	r1, r3, #4194304	@ 0x400000
 8002b80:	69e2      	ldr	r2, [r4, #28]
        if (((RCC_OscInitStruct->PLL.PLLState) == RCC_PLL_OFF) ||
 8002b82:	4291      	cmp	r1, r2
 8002b84:	d126      	bne.n	8002bd4 <HAL_RCC_OscConfig+0x3dc>
            (READ_BIT(pll_config, RCC_PLLCFGR_PLLM) != (RCC_OscInitStruct->PLL.PLLM) << RCC_PLLCFGR_PLLM_Pos) ||
 8002b86:	f003 023f 	and.w	r2, r3, #63	@ 0x3f
 8002b8a:	6a21      	ldr	r1, [r4, #32]
            (READ_BIT(pll_config, RCC_PLLCFGR_PLLSRC) != RCC_OscInitStruct->PLL.PLLSource) ||
 8002b8c:	428a      	cmp	r2, r1
 8002b8e:	d123      	bne.n	8002bd8 <HAL_RCC_OscConfig+0x3e0>
            (READ_BIT(pll_config, RCC_PLLCFGR_PLLN) != (RCC_OscInitStruct->PLL.PLLN) << RCC_PLLCFGR_PLLN_Pos) ||
 8002b90:	6a61      	ldr	r1, [r4, #36]	@ 0x24
            (READ_BIT(pll_config, RCC_PLLCFGR_PLLM) != (RCC_OscInitStruct->PLL.PLLM) << RCC_PLLCFGR_PLLM_Pos) ||
 8002b92:	f647 72c0 	movw	r2, #32704	@ 0x7fc0
 8002b96:	401a      	ands	r2, r3
 8002b98:	ebb2 1f81 	cmp.w	r2, r1, lsl #6
 8002b9c:	d11e      	bne.n	8002bdc <HAL_RCC_OscConfig+0x3e4>
            (READ_BIT(pll_config, RCC_PLLCFGR_PLLP) != (((RCC_OscInitStruct->PLL.PLLP >> 1U) - 1U)) << RCC_PLLCFGR_PLLP_Pos) ||
 8002b9e:	f403 3140 	and.w	r1, r3, #196608	@ 0x30000
 8002ba2:	6aa2      	ldr	r2, [r4, #40]	@ 0x28
 8002ba4:	0852      	lsrs	r2, r2, #1
 8002ba6:	3a01      	subs	r2, #1
            (READ_BIT(pll_config, RCC_PLLCFGR_PLLN) != (RCC_OscInitStruct->PLL.PLLN) << RCC_PLLCFGR_PLLN_Pos) ||
 8002ba8:	ebb1 4f02 	cmp.w	r1, r2, lsl #16
 8002bac:	d118      	bne.n	8002be0 <HAL_RCC_OscConfig+0x3e8>
            (READ_BIT(pll_config, RCC_PLLCFGR_PLLQ) != (RCC_OscInitStruct->PLL.PLLQ << RCC_PLLCFGR_PLLQ_Pos)))
 8002bae:	f003 6370 	and.w	r3, r3, #251658240	@ 0xf000000
 8002bb2:	6ae2      	ldr	r2, [r4, #44]	@ 0x2c
            (READ_BIT(pll_config, RCC_PLLCFGR_PLLP) != (((RCC_OscInitStruct->PLL.PLLP >> 1U) - 1U)) << RCC_PLLCFGR_PLLP_Pos) ||
 8002bb4:	ebb3 6f02 	cmp.w	r3, r2, lsl #24
 8002bb8:	d114      	bne.n	8002be4 <HAL_RCC_OscConfig+0x3ec>
  return HAL_OK;
 8002bba:	2000      	movs	r0, #0
 8002bbc:	e006      	b.n	8002bcc <HAL_RCC_OscConfig+0x3d4>
    return HAL_ERROR;
 8002bbe:	2001      	movs	r0, #1
}
 8002bc0:	4770      	bx	lr
        return HAL_ERROR;
 8002bc2:	2001      	movs	r0, #1
 8002bc4:	e002      	b.n	8002bcc <HAL_RCC_OscConfig+0x3d4>
        return HAL_ERROR;
 8002bc6:	2001      	movs	r0, #1
 8002bc8:	e000      	b.n	8002bcc <HAL_RCC_OscConfig+0x3d4>
  return HAL_OK;
 8002bca:	2000      	movs	r0, #0
}
 8002bcc:	b002      	add	sp, #8
 8002bce:	bd70      	pop	{r4, r5, r6, pc}
        return HAL_ERROR;
 8002bd0:	2001      	movs	r0, #1
 8002bd2:	e7fb      	b.n	8002bcc <HAL_RCC_OscConfig+0x3d4>
          return HAL_ERROR;
 8002bd4:	2001      	movs	r0, #1
 8002bd6:	e7f9      	b.n	8002bcc <HAL_RCC_OscConfig+0x3d4>
 8002bd8:	2001      	movs	r0, #1
 8002bda:	e7f7      	b.n	8002bcc <HAL_RCC_OscConfig+0x3d4>
 8002bdc:	2001      	movs	r0, #1
 8002bde:	e7f5      	b.n	8002bcc <HAL_RCC_OscConfig+0x3d4>
 8002be0:	2001      	movs	r0, #1
 8002be2:	e7f3      	b.n	8002bcc <HAL_RCC_OscConfig+0x3d4>
 8002be4:	2001      	movs	r0, #1
 8002be6:	e7f1      	b.n	8002bcc <HAL_RCC_OscConfig+0x3d4>
 8002be8:	40023800 	.word	0x40023800
 8002bec:	42470000 	.word	0x42470000

08002bf0 <HAL_RCC_GetSysClockFreq>:
  *
  *
  * @retval SYSCLK frequency
  */
__weak uint32_t HAL_RCC_GetSysClockFreq(void)
{
 8002bf0:	b508      	push	{r3, lr}
  uint32_t pllm = 0U, pllvco = 0U, pllp = 0U;
  uint32_t sysclockfreq = 0U;

  /* Get SYSCLK source -------------------------------------------------------*/
  switch (RCC->CFGR & RCC_CFGR_SWS)
 8002bf2:	4b26      	ldr	r3, [pc, #152]	@ (8002c8c <HAL_RCC_GetSysClockFreq+0x9c>)
 8002bf4:	689b      	ldr	r3, [r3, #8]
 8002bf6:	f003 030c 	and.w	r3, r3, #12
 8002bfa:	2b04      	cmp	r3, #4
 8002bfc:	d041      	beq.n	8002c82 <HAL_RCC_GetSysClockFreq+0x92>
 8002bfe:	2b08      	cmp	r3, #8
 8002c00:	d141      	bne.n	8002c86 <HAL_RCC_GetSysClockFreq+0x96>
    }
    case RCC_CFGR_SWS_PLL:  /* PLL used as system clock  source */
    {
      /* PLL_VCO = (HSE_VALUE or HSI_VALUE / PLLM) * PLLN
      SYSCLK = PLL_VCO / PLLP */
      pllm = RCC->PLLCFGR & RCC_PLLCFGR_PLLM;
 8002c02:	4b22      	ldr	r3, [pc, #136]	@ (8002c8c <HAL_RCC_GetSysClockFreq+0x9c>)
 8002c04:	685a      	ldr	r2, [r3, #4]
 8002c06:	f002 023f 	and.w	r2, r2, #63	@ 0x3f
      if(__HAL_RCC_GET_PLL_OSCSOURCE() != RCC_PLLSOURCE_HSI)
 8002c0a:	685b      	ldr	r3, [r3, #4]
 8002c0c:	f413 0f80 	tst.w	r3, #4194304	@ 0x400000
 8002c10:	d012      	beq.n	8002c38 <HAL_RCC_GetSysClockFreq+0x48>
      {
        /* HSE used as PLL clock source */
        pllvco = (uint32_t) ((((uint64_t) HSE_VALUE * ((uint64_t) ((RCC->PLLCFGR & RCC_PLLCFGR_PLLN) >> RCC_PLLCFGR_PLLN_Pos)))) / (uint64_t)pllm);
 8002c12:	4b1e      	ldr	r3, [pc, #120]	@ (8002c8c <HAL_RCC_GetSysClockFreq+0x9c>)
 8002c14:	6859      	ldr	r1, [r3, #4]
 8002c16:	f3c1 1188 	ubfx	r1, r1, #6, #9
 8002c1a:	481d      	ldr	r0, [pc, #116]	@ (8002c90 <HAL_RCC_GetSysClockFreq+0xa0>)
 8002c1c:	2300      	movs	r3, #0
 8002c1e:	fba1 0100 	umull	r0, r1, r1, r0
 8002c22:	f7fd fff9 	bl	8000c18 <__aeabi_uldivmod>
      else
      {
        /* HSI used as PLL clock source */
        pllvco = (uint32_t) ((((uint64_t) HSI_VALUE * ((uint64_t) ((RCC->PLLCFGR & RCC_PLLCFGR_PLLN) >> RCC_PLLCFGR_PLLN_Pos)))) / (uint64_t)pllm);
      }
      pllp = ((((RCC->PLLCFGR & RCC_PLLCFGR_PLLP) >> RCC_PLLCFGR_PLLP_Pos) + 1U) *2U);
 8002c26:	4b19      	ldr	r3, [pc, #100]	@ (8002c8c <HAL_RCC_GetSysClockFreq+0x9c>)
 8002c28:	685b      	ldr	r3, [r3, #4]
 8002c2a:	f3c3 4301 	ubfx	r3, r3, #16, #2
 8002c2e:	3301      	adds	r3, #1
 8002c30:	005b      	lsls	r3, r3, #1

      sysclockfreq = pllvco/pllp;
 8002c32:	fbb0 f0f3 	udiv	r0, r0, r3
      sysclockfreq = HSI_VALUE;
      break;
    }
  }
  return sysclockfreq;
}
 8002c36:	bd08      	pop	{r3, pc}
        pllvco = (uint32_t) ((((uint64_t) HSI_VALUE * ((uint64_t) ((RCC->PLLCFGR & RCC_PLLCFGR_PLLN) >> RCC_PLLCFGR_PLLN_Pos)))) / (uint64_t)pllm);
 8002c38:	4b14      	ldr	r3, [pc, #80]	@ (8002c8c <HAL_RCC_GetSysClockFreq+0x9c>)
 8002c3a:	6858      	ldr	r0, [r3, #4]
 8002c3c:	f3c0 1088 	ubfx	r0, r0, #6, #9
 8002c40:	ea4f 1c40 	mov.w	ip, r0, lsl #5
 8002c44:	ebbc 0c00 	subs.w	ip, ip, r0
 8002c48:	eb6e 0e0e 	sbc.w	lr, lr, lr
 8002c4c:	ea4f 138e 	mov.w	r3, lr, lsl #6
 8002c50:	ea43 639c 	orr.w	r3, r3, ip, lsr #26
 8002c54:	ea4f 118c 	mov.w	r1, ip, lsl #6
 8002c58:	ebb1 010c 	subs.w	r1, r1, ip
 8002c5c:	eb63 030e 	sbc.w	r3, r3, lr
 8002c60:	00db      	lsls	r3, r3, #3
 8002c62:	ea43 7351 	orr.w	r3, r3, r1, lsr #29
 8002c66:	00c9      	lsls	r1, r1, #3
 8002c68:	eb11 0c00 	adds.w	ip, r1, r0
 8002c6c:	f143 0300 	adc.w	r3, r3, #0
 8002c70:	0299      	lsls	r1, r3, #10
 8002c72:	2300      	movs	r3, #0
 8002c74:	ea4f 208c 	mov.w	r0, ip, lsl #10
 8002c78:	ea41 519c 	orr.w	r1, r1, ip, lsr #22
 8002c7c:	f7fd ffcc 	bl	8000c18 <__aeabi_uldivmod>
 8002c80:	e7d1      	b.n	8002c26 <HAL_RCC_GetSysClockFreq+0x36>
      sysclockfreq = HSE_VALUE;
 8002c82:	4803      	ldr	r0, [pc, #12]	@ (8002c90 <HAL_RCC_GetSysClockFreq+0xa0>)
 8002c84:	e7d7      	b.n	8002c36 <HAL_RCC_GetSysClockFreq+0x46>
  switch (RCC->CFGR & RCC_CFGR_SWS)
 8002c86:	4803      	ldr	r0, [pc, #12]	@ (8002c94 <HAL_RCC_GetSysClockFreq+0xa4>)
  return sysclockfreq;
 8002c88:	e7d5      	b.n	8002c36 <HAL_RCC_GetSysClockFreq+0x46>
 8002c8a:	bf00      	nop
 8002c8c:	40023800 	.word	0x40023800
 8002c90:	017d7840 	.word	0x017d7840
 8002c94:	00f42400 	.word	0x00f42400

08002c98 <HAL_RCC_ClockConfig>:
  if(RCC_ClkInitStruct == NULL)
 8002c98:	2800      	cmp	r0, #0
 8002c9a:	f000 809b 	beq.w	8002dd4 <HAL_RCC_ClockConfig+0x13c>
{
 8002c9e:	b570      	push	{r4, r5, r6, lr}
 8002ca0:	460d      	mov	r5, r1
 8002ca2:	4604      	mov	r4, r0
  if(FLatency > __HAL_FLASH_GET_LATENCY())
 8002ca4:	4b4f      	ldr	r3, [pc, #316]	@ (8002de4 <HAL_RCC_ClockConfig+0x14c>)
 8002ca6:	681b      	ldr	r3, [r3, #0]
 8002ca8:	f003 0307 	and.w	r3, r3, #7
 8002cac:	428b      	cmp	r3, r1
 8002cae:	d208      	bcs.n	8002cc2 <HAL_RCC_ClockConfig+0x2a>
    __HAL_FLASH_SET_LATENCY(FLatency);
 8002cb0:	b2cb      	uxtb	r3, r1
 8002cb2:	4a4c      	ldr	r2, [pc, #304]	@ (8002de4 <HAL_RCC_ClockConfig+0x14c>)
 8002cb4:	7013      	strb	r3, [r2, #0]
    if(__HAL_FLASH_GET_LATENCY() != FLatency)
 8002cb6:	6813      	ldr	r3, [r2, #0]
 8002cb8:	f003 0307 	and.w	r3, r3, #7
 8002cbc:	428b      	cmp	r3, r1
 8002cbe:	f040 808b 	bne.w	8002dd8 <HAL_RCC_ClockConfig+0x140>
  if(((RCC_ClkInitStruct->ClockType) & RCC_CLOCKTYPE_HCLK) == RCC_CLOCKTYPE_HCLK)
 8002cc2:	6823      	ldr	r3, [r4, #0]
 8002cc4:	f013 0f02 	tst.w	r3, #2
 8002cc8:	d017      	beq.n	8002cfa <HAL_RCC_ClockConfig+0x62>
    if(((RCC_ClkInitStruct->ClockType) & RCC_CLOCKTYPE_PCLK1) == RCC_CLOCKTYPE_PCLK1)
 8002cca:	f013 0f04 	tst.w	r3, #4
 8002cce:	d004      	beq.n	8002cda <HAL_RCC_ClockConfig+0x42>
      MODIFY_REG(RCC->CFGR, RCC_CFGR_PPRE1, RCC_HCLK_DIV16);
 8002cd0:	4a45      	ldr	r2, [pc, #276]	@ (8002de8 <HAL_RCC_ClockConfig+0x150>)
 8002cd2:	6893      	ldr	r3, [r2, #8]
 8002cd4:	f443 53e0 	orr.w	r3, r3, #7168	@ 0x1c00
 8002cd8:	6093      	str	r3, [r2, #8]
    if(((RCC_ClkInitStruct->ClockType) & RCC_CLOCKTYPE_PCLK2) == RCC_CLOCKTYPE_PCLK2)
 8002cda:	6823      	ldr	r3, [r4, #0]
 8002cdc:	f013 0f08 	tst.w	r3, #8
 8002ce0:	d004      	beq.n	8002cec <HAL_RCC_ClockConfig+0x54>
      MODIFY_REG(RCC->CFGR, RCC_CFGR_PPRE2, (RCC_HCLK_DIV16 << 3));
 8002ce2:	4a41      	ldr	r2, [pc, #260]	@ (8002de8 <HAL_RCC_ClockConfig+0x150>)
 8002ce4:	6893      	ldr	r3, [r2, #8]
 8002ce6:	f443 4360 	orr.w	r3, r3, #57344	@ 0xe000
 8002cea:	6093      	str	r3, [r2, #8]
    MODIFY_REG(RCC->CFGR, RCC_CFGR_HPRE, RCC_ClkInitStruct->AHBCLKDivider);
 8002cec:	4a3e      	ldr	r2, [pc, #248]	@ (8002de8 <HAL_RCC_ClockConfig+0x150>)
 8002cee:	6893      	ldr	r3, [r2, #8]
 8002cf0:	f023 03f0 	bic.w	r3, r3, #240	@ 0xf0
 8002cf4:	68a1      	ldr	r1, [r4, #8]
 8002cf6:	430b      	orrs	r3, r1
 8002cf8:	6093      	str	r3, [r2, #8]
  if(((RCC_ClkInitStruct->ClockType) & RCC_CLOCKTYPE_SYSCLK) == RCC_CLOCKTYPE_SYSCLK)
 8002cfa:	6823      	ldr	r3, [r4, #0]
 8002cfc:	f013 0f01 	tst.w	r3, #1
 8002d00:	d032      	beq.n	8002d68 <HAL_RCC_ClockConfig+0xd0>
    if(RCC_ClkInitStruct->SYSCLKSource == RCC_SYSCLKSOURCE_HSE)
 8002d02:	6863      	ldr	r3, [r4, #4]
 8002d04:	2b01      	cmp	r3, #1
 8002d06:	d021      	beq.n	8002d4c <HAL_RCC_ClockConfig+0xb4>
    else if((RCC_ClkInitStruct->SYSCLKSource == RCC_SYSCLKSOURCE_PLLCLK)   ||
 8002d08:	1e9a      	subs	r2, r3, #2
 8002d0a:	2a01      	cmp	r2, #1
 8002d0c:	d925      	bls.n	8002d5a <HAL_RCC_ClockConfig+0xc2>
      if(__HAL_RCC_GET_FLAG(RCC_FLAG_HSIRDY) == RESET)
 8002d0e:	4a36      	ldr	r2, [pc, #216]	@ (8002de8 <HAL_RCC_ClockConfig+0x150>)
 8002d10:	6812      	ldr	r2, [r2, #0]
 8002d12:	f012 0f02 	tst.w	r2, #2
 8002d16:	d061      	beq.n	8002ddc <HAL_RCC_ClockConfig+0x144>
    __HAL_RCC_SYSCLK_CONFIG(RCC_ClkInitStruct->SYSCLKSource);
 8002d18:	4933      	ldr	r1, [pc, #204]	@ (8002de8 <HAL_RCC_ClockConfig+0x150>)
 8002d1a:	688a      	ldr	r2, [r1, #8]
 8002d1c:	f022 0203 	bic.w	r2, r2, #3
 8002d20:	4313      	orrs	r3, r2
 8002d22:	608b      	str	r3, [r1, #8]
    tickstart = HAL_GetTick();
 8002d24:	f7fe fe3e 	bl	80019a4 <HAL_GetTick>
 8002d28:	4606      	mov	r6, r0
    while (__HAL_RCC_GET_SYSCLK_SOURCE() != (RCC_ClkInitStruct->SYSCLKSource << RCC_CFGR_SWS_Pos))
 8002d2a:	4b2f      	ldr	r3, [pc, #188]	@ (8002de8 <HAL_RCC_ClockConfig+0x150>)
 8002d2c:	689b      	ldr	r3, [r3, #8]
 8002d2e:	f003 030c 	and.w	r3, r3, #12
 8002d32:	6862      	ldr	r2, [r4, #4]
 8002d34:	ebb3 0f82 	cmp.w	r3, r2, lsl #2
 8002d38:	d016      	beq.n	8002d68 <HAL_RCC_ClockConfig+0xd0>
      if ((HAL_GetTick() - tickstart) > CLOCKSWITCH_TIMEOUT_VALUE)
 8002d3a:	f7fe fe33 	bl	80019a4 <HAL_GetTick>
 8002d3e:	1b80      	subs	r0, r0, r6
 8002d40:	f241 3388 	movw	r3, #5000	@ 0x1388
 8002d44:	4298      	cmp	r0, r3
 8002d46:	d9f0      	bls.n	8002d2a <HAL_RCC_ClockConfig+0x92>
        return HAL_TIMEOUT;
 8002d48:	2003      	movs	r0, #3
 8002d4a:	e042      	b.n	8002dd2 <HAL_RCC_ClockConfig+0x13a>
      if(__HAL_RCC_GET_FLAG(RCC_FLAG_HSERDY) == RESET)
 8002d4c:	4a26      	ldr	r2, [pc, #152]	@ (8002de8 <HAL_RCC_ClockConfig+0x150>)
 8002d4e:	6812      	ldr	r2, [r2, #0]
 8002d50:	f412 3f00 	tst.w	r2, #131072	@ 0x20000
 8002d54:	d1e0      	bne.n	8002d18 <HAL_RCC_ClockConfig+0x80>
        return HAL_ERROR;
 8002d56:	2001      	movs	r0, #1
 8002d58:	e03b      	b.n	8002dd2 <HAL_RCC_ClockConfig+0x13a>
      if(__HAL_RCC_GET_FLAG(RCC_FLAG_PLLRDY) == RESET)
 8002d5a:	4a23      	ldr	r2, [pc, #140]	@ (8002de8 <HAL_RCC_ClockConfig+0x150>)
 8002d5c:	6812      	ldr	r2, [r2, #0]
 8002d5e:	f012 7f00 	tst.w	r2, #33554432	@ 0x2000000
 8002d62:	d1d9      	bne.n	8002d18 <HAL_RCC_ClockConfig+0x80>
        return HAL_ERROR;
 8002d64:	2001      	movs	r0, #1
 8002d66:	e034      	b.n	8002dd2 <HAL_RCC_ClockConfig+0x13a>
  if(FLatency < __HAL_FLASH_GET_LATENCY())
 8002d68:	4b1e      	ldr	r3, [pc, #120]	@ (8002de4 <HAL_RCC_ClockConfig+0x14c>)
 8002d6a:	681b      	ldr	r3, [r3, #0]
 8002d6c:	f003 0307 	and.w	r3, r3, #7
 8002d70:	42ab      	cmp	r3, r5
 8002d72:	d907      	bls.n	8002d84 <HAL_RCC_ClockConfig+0xec>
    __HAL_FLASH_SET_LATENCY(FLatency);
 8002d74:	b2ea      	uxtb	r2, r5
 8002d76:	4b1b      	ldr	r3, [pc, #108]	@ (8002de4 <HAL_RCC_ClockConfig+0x14c>)
 8002d78:	701a      	strb	r2, [r3, #0]
    if(__HAL_FLASH_GET_LATENCY() != FLatency)
 8002d7a:	681b      	ldr	r3, [r3, #0]
 8002d7c:	f003 0307 	and.w	r3, r3, #7
 8002d80:	42ab      	cmp	r3, r5
 8002d82:	d12d      	bne.n	8002de0 <HAL_RCC_ClockConfig+0x148>
  if(((RCC_ClkInitStruct->ClockType) & RCC_CLOCKTYPE_PCLK1) == RCC_CLOCKTYPE_PCLK1)
 8002d84:	6823      	ldr	r3, [r4, #0]
 8002d86:	f013 0f04 	tst.w	r3, #4
 8002d8a:	d006      	beq.n	8002d9a <HAL_RCC_ClockConfig+0x102>
    MODIFY_REG(RCC->CFGR, RCC_CFGR_PPRE1, RCC_ClkInitStruct->APB1CLKDivider);
 8002d8c:	4a16      	ldr	r2, [pc, #88]	@ (8002de8 <HAL_RCC_ClockConfig+0x150>)
 8002d8e:	6893      	ldr	r3, [r2, #8]
 8002d90:	f423 53e0 	bic.w	r3, r3, #7168	@ 0x1c00
 8002d94:	68e1      	ldr	r1, [r4, #12]
 8002d96:	430b      	orrs	r3, r1
 8002d98:	6093      	str	r3, [r2, #8]
  if(((RCC_ClkInitStruct->ClockType) & RCC_CLOCKTYPE_PCLK2) == RCC_CLOCKTYPE_PCLK2)
 8002d9a:	6823      	ldr	r3, [r4, #0]
 8002d9c:	f013 0f08 	tst.w	r3, #8
 8002da0:	d007      	beq.n	8002db2 <HAL_RCC_ClockConfig+0x11a>
    MODIFY_REG(RCC->CFGR, RCC_CFGR_PPRE2, ((RCC_ClkInitStruct->APB2CLKDivider) << 3U));
 8002da2:	4a11      	ldr	r2, [pc, #68]	@ (8002de8 <HAL_RCC_ClockConfig+0x150>)
 8002da4:	6893      	ldr	r3, [r2, #8]
 8002da6:	f423 4360 	bic.w	r3, r3, #57344	@ 0xe000
 8002daa:	6921      	ldr	r1, [r4, #16]
 8002dac:	ea43 03c1 	orr.w	r3, r3, r1, lsl #3
 8002db0:	6093      	str	r3, [r2, #8]
  SystemCoreClock = HAL_RCC_GetSysClockFreq() >> AHBPrescTable[(RCC->CFGR & RCC_CFGR_HPRE)>> RCC_CFGR_HPRE_Pos];
 8002db2:	f7ff ff1d 	bl	8002bf0 <HAL_RCC_GetSysClockFreq>
 8002db6:	4b0c      	ldr	r3, [pc, #48]	@ (8002de8 <HAL_RCC_ClockConfig+0x150>)
 8002db8:	689b      	ldr	r3, [r3, #8]
 8002dba:	f3c3 1303 	ubfx	r3, r3, #4, #4
 8002dbe:	4a0b      	ldr	r2, [pc, #44]	@ (8002dec <HAL_RCC_ClockConfig+0x154>)
 8002dc0:	5cd3      	ldrb	r3, [r2, r3]
 8002dc2:	40d8      	lsrs	r0, r3
 8002dc4:	4b0a      	ldr	r3, [pc, #40]	@ (8002df0 <HAL_RCC_ClockConfig+0x158>)
 8002dc6:	6018      	str	r0, [r3, #0]
  HAL_InitTick (uwTickPrio);
 8002dc8:	4b0a      	ldr	r3, [pc, #40]	@ (8002df4 <HAL_RCC_ClockConfig+0x15c>)
 8002dca:	6818      	ldr	r0, [r3, #0]
 8002dcc:	f7fe fd9e 	bl	800190c <HAL_InitTick>
  return HAL_OK;
 8002dd0:	2000      	movs	r0, #0
}
 8002dd2:	bd70      	pop	{r4, r5, r6, pc}
    return HAL_ERROR;
 8002dd4:	2001      	movs	r0, #1
}
 8002dd6:	4770      	bx	lr
      return HAL_ERROR;
 8002dd8:	2001      	movs	r0, #1
 8002dda:	e7fa      	b.n	8002dd2 <HAL_RCC_ClockConfig+0x13a>
        return HAL_ERROR;
 8002ddc:	2001      	movs	r0, #1
 8002dde:	e7f8      	b.n	8002dd2 <HAL_RCC_ClockConfig+0x13a>
      return HAL_ERROR;
 8002de0:	2001      	movs	r0, #1
 8002de2:	e7f6      	b.n	8002dd2 <HAL_RCC_ClockConfig+0x13a>
 8002de4:	40023c00 	.word	0x40023c00
 8002de8:	40023800 	.word	0x40023800
 8002dec:	08007070 	.word	0x08007070
 8002df0:	20000008 	.word	0x20000008
 8002df4:	20000004 	.word	0x20000004

08002df8 <HAL_RCC_GetHCLKFreq>:
  * @retval HCLK frequency
  */
uint32_t HAL_RCC_GetHCLKFreq(void)
{
  return SystemCoreClock;
}
 8002df8:	4b01      	ldr	r3, [pc, #4]	@ (8002e00 <HAL_RCC_GetHCLKFreq+0x8>)
 8002dfa:	6818      	ldr	r0, [r3, #0]
 8002dfc:	4770      	bx	lr
 8002dfe:	bf00      	nop
 8002e00:	20000008 	.word	0x20000008

08002e04 <HAL_RCC_GetPCLK1Freq>:
  * @note   Each time PCLK1 changes, this function must be called to update the
  *         right PCLK1 value. Otherwise, any configuration based on this function will be incorrect.
  * @retval PCLK1 frequency
  */
uint32_t HAL_RCC_GetPCLK1Freq(void)
{
 8002e04:	b508      	push	{r3, lr}
  /* Get HCLK source and Compute PCLK1 frequency ---------------------------*/
  return (HAL_RCC_GetHCLKFreq() >> APBPrescTable[(RCC->CFGR & RCC_CFGR_PPRE1)>> RCC_CFGR_PPRE1_Pos]);
 8002e06:	f7ff fff7 	bl	8002df8 <HAL_RCC_GetHCLKFreq>
 8002e0a:	4b04      	ldr	r3, [pc, #16]	@ (8002e1c <HAL_RCC_GetPCLK1Freq+0x18>)
 8002e0c:	689b      	ldr	r3, [r3, #8]
 8002e0e:	f3c3 2382 	ubfx	r3, r3, #10, #3
 8002e12:	4a03      	ldr	r2, [pc, #12]	@ (8002e20 <HAL_RCC_GetPCLK1Freq+0x1c>)
 8002e14:	5cd3      	ldrb	r3, [r2, r3]
}
 8002e16:	40d8      	lsrs	r0, r3
 8002e18:	bd08      	pop	{r3, pc}
 8002e1a:	bf00      	nop
 8002e1c:	40023800 	.word	0x40023800
 8002e20:	08007068 	.word	0x08007068

08002e24 <HAL_RCC_GetPCLK2Freq>:
  * @note   Each time PCLK2 changes, this function must be called to update the
  *         right PCLK2 value. Otherwise, any configuration based on this function will be incorrect.
  * @retval PCLK2 frequency
  */
uint32_t HAL_RCC_GetPCLK2Freq(void)
{
 8002e24:	b508      	push	{r3, lr}
  /* Get HCLK source and Compute PCLK2 frequency ---------------------------*/
  return (HAL_RCC_GetHCLKFreq()>> APBPrescTable[(RCC->CFGR & RCC_CFGR_PPRE2)>> RCC_CFGR_PPRE2_Pos]);
 8002e26:	f7ff ffe7 	bl	8002df8 <HAL_RCC_GetHCLKFreq>
 8002e2a:	4b04      	ldr	r3, [pc, #16]	@ (8002e3c <HAL_RCC_GetPCLK2Freq+0x18>)
 8002e2c:	689b      	ldr	r3, [r3, #8]
 8002e2e:	f3c3 3342 	ubfx	r3, r3, #13, #3
 8002e32:	4a03      	ldr	r2, [pc, #12]	@ (8002e40 <HAL_RCC_GetPCLK2Freq+0x1c>)
 8002e34:	5cd3      	ldrb	r3, [r2, r3]
}
 8002e36:	40d8      	lsrs	r0, r3
 8002e38:	bd08      	pop	{r3, pc}
 8002e3a:	bf00      	nop
 8002e3c:	40023800 	.word	0x40023800
 8002e40:	08007068 	.word	0x08007068

08002e44 <TIM_OC1_SetConfig>:
  * @param  TIMx to select the TIM peripheral
  * @param  OC_Config The output configuration structure
  * @retval None
  */
static void TIM_OC1_SetConfig(TIM_TypeDef *TIMx, const TIM_OC_InitTypeDef *OC_Config)
{
 8002e44:	b430      	push	{r4, r5}
  uint32_t tmpccmrx;
  uint32_t tmpccer;
  uint32_t tmpcr2;

  /* Get the TIMx CCER register value */
  tmpccer = TIMx->CCER;
 8002e46:	6a02      	ldr	r2, [r0, #32]

  /* Disable the Channel 1: Reset the CC1E Bit */
  TIMx->CCER &= ~TIM_CCER_CC1E;
 8002e48:	6a03      	ldr	r3, [r0, #32]
 8002e4a:	f023 0301 	bic.w	r3, r3, #1
 8002e4e:	6203      	str	r3, [r0, #32]

  /* Get the TIMx CR2 register value */
  tmpcr2 =  TIMx->CR2;
 8002e50:	6845      	ldr	r5, [r0, #4]

  /* Get the TIMx CCMR1 register value */
  tmpccmrx = TIMx->CCMR1;
 8002e52:	6983      	ldr	r3, [r0, #24]

  /* Reset the Output Compare Mode Bits */
  tmpccmrx &= ~TIM_CCMR1_OC1M;
  tmpccmrx &= ~TIM_CCMR1_CC1S;
 8002e54:	f023 0373 	bic.w	r3, r3, #115	@ 0x73
  /* Select the Output Compare Mode */
  tmpccmrx |= OC_Config->OCMode;
 8002e58:	680c      	ldr	r4, [r1, #0]
 8002e5a:	431c      	orrs	r4, r3

  /* Reset the Output Polarity level */
  tmpccer &= ~TIM_CCER_CC1P;
 8002e5c:	f022 0202 	bic.w	r2, r2, #2
  /* Set the Output Compare Polarity */
  tmpccer |= OC_Config->OCPolarity;
 8002e60:	688b      	ldr	r3, [r1, #8]
 8002e62:	4313      	orrs	r3, r2

  if (IS_TIM_CCXN_INSTANCE(TIMx, TIM_CHANNEL_1))
 8002e64:	4a0b      	ldr	r2, [pc, #44]	@ (8002e94 <TIM_OC1_SetConfig+0x50>)
 8002e66:	4290      	cmp	r0, r2
 8002e68:	d006      	beq.n	8002e78 <TIM_OC1_SetConfig+0x34>
    /* Set the Output N Idle state */
    tmpcr2 |= OC_Config->OCNIdleState;
  }

  /* Write to TIMx CR2 */
  TIMx->CR2 = tmpcr2;
 8002e6a:	6045      	str	r5, [r0, #4]

  /* Write to TIMx CCMR1 */
  TIMx->CCMR1 = tmpccmrx;
 8002e6c:	6184      	str	r4, [r0, #24]

  /* Set the Capture Compare Register value */
  TIMx->CCR1 = OC_Config->Pulse;
 8002e6e:	684a      	ldr	r2, [r1, #4]
 8002e70:	6342      	str	r2, [r0, #52]	@ 0x34

  /* Write to TIMx CCER */
  TIMx->CCER = tmpccer;
 8002e72:	6203      	str	r3, [r0, #32]
}
 8002e74:	bc30      	pop	{r4, r5}
 8002e76:	4770      	bx	lr
    tmpccer &= ~TIM_CCER_CC1NP;
 8002e78:	f023 0308 	bic.w	r3, r3, #8
    tmpccer |= OC_Config->OCNPolarity;
 8002e7c:	68ca      	ldr	r2, [r1, #12]
 8002e7e:	431a      	orrs	r2, r3
    tmpccer &= ~TIM_CCER_CC1NE;
 8002e80:	f022 0304 	bic.w	r3, r2, #4
    tmpcr2 &= ~TIM_CR2_OIS1N;
 8002e84:	f425 7540 	bic.w	r5, r5, #768	@ 0x300
    tmpcr2 |= OC_Config->OCIdleState;
 8002e88:	694a      	ldr	r2, [r1, #20]
 8002e8a:	432a      	orrs	r2, r5
    tmpcr2 |= OC_Config->OCNIdleState;
 8002e8c:	698d      	ldr	r5, [r1, #24]
 8002e8e:	4315      	orrs	r5, r2
 8002e90:	e7eb      	b.n	8002e6a <TIM_OC1_SetConfig+0x26>
 8002e92:	bf00      	nop
 8002e94:	40010000 	.word	0x40010000

08002e98 <TIM_OC3_SetConfig>:
  * @param  TIMx to select the TIM peripheral
  * @param  OC_Config The output configuration structure
  * @retval None
  */
static void TIM_OC3_SetConfig(TIM_TypeDef *TIMx, const TIM_OC_InitTypeDef *OC_Config)
{
 8002e98:	b430      	push	{r4, r5}
  uint32_t tmpccmrx;
  uint32_t tmpccer;
  uint32_t tmpcr2;

  /* Get the TIMx CCER register value */
  tmpccer = TIMx->CCER;
 8002e9a:	6a03      	ldr	r3, [r0, #32]

  /* Disable the Channel 3: Reset the CC2E Bit */
  TIMx->CCER &= ~TIM_CCER_CC3E;
 8002e9c:	6a02      	ldr	r2, [r0, #32]
 8002e9e:	f422 7280 	bic.w	r2, r2, #256	@ 0x100
 8002ea2:	6202      	str	r2, [r0, #32]

  /* Get the TIMx CR2 register value */
  tmpcr2 =  TIMx->CR2;
 8002ea4:	6844      	ldr	r4, [r0, #4]

  /* Get the TIMx CCMR2 register value */
  tmpccmrx = TIMx->CCMR2;
 8002ea6:	69c2      	ldr	r2, [r0, #28]

  /* Reset the Output Compare mode and Capture/Compare selection Bits */
  tmpccmrx &= ~TIM_CCMR2_OC3M;
  tmpccmrx &= ~TIM_CCMR2_CC3S;
 8002ea8:	f022 0273 	bic.w	r2, r2, #115	@ 0x73
  /* Select the Output Compare Mode */
  tmpccmrx |= OC_Config->OCMode;
 8002eac:	680d      	ldr	r5, [r1, #0]
 8002eae:	4315      	orrs	r5, r2

  /* Reset the Output Polarity level */
  tmpccer &= ~TIM_CCER_CC3P;
 8002eb0:	f423 7300 	bic.w	r3, r3, #512	@ 0x200
  /* Set the Output Compare Polarity */
  tmpccer |= (OC_Config->OCPolarity << 8U);
 8002eb4:	688a      	ldr	r2, [r1, #8]
 8002eb6:	ea43 2302 	orr.w	r3, r3, r2, lsl #8

  if (IS_TIM_CCXN_INSTANCE(TIMx, TIM_CHANNEL_3))
 8002eba:	4a0d      	ldr	r2, [pc, #52]	@ (8002ef0 <TIM_OC3_SetConfig+0x58>)
 8002ebc:	4290      	cmp	r0, r2
 8002ebe:	d006      	beq.n	8002ece <TIM_OC3_SetConfig+0x36>
    /* Set the Output N Idle state */
    tmpcr2 |= (OC_Config->OCNIdleState << 4U);
  }

  /* Write to TIMx CR2 */
  TIMx->CR2 = tmpcr2;
 8002ec0:	6044      	str	r4, [r0, #4]

  /* Write to TIMx CCMR2 */
  TIMx->CCMR2 = tmpccmrx;
 8002ec2:	61c5      	str	r5, [r0, #28]

  /* Set the Capture Compare Register value */
  TIMx->CCR3 = OC_Config->Pulse;
 8002ec4:	684a      	ldr	r2, [r1, #4]
 8002ec6:	63c2      	str	r2, [r0, #60]	@ 0x3c

  /* Write to TIMx CCER */
  TIMx->CCER = tmpccer;
 8002ec8:	6203      	str	r3, [r0, #32]
}
 8002eca:	bc30      	pop	{r4, r5}
 8002ecc:	4770      	bx	lr
    tmpccer &= ~TIM_CCER_CC3NP;
 8002ece:	f423 6300 	bic.w	r3, r3, #2048	@ 0x800
    tmpccer |= (OC_Config->OCNPolarity << 8U);
 8002ed2:	68ca      	ldr	r2, [r1, #12]
 8002ed4:	ea43 2302 	orr.w	r3, r3, r2, lsl #8
    tmpccer &= ~TIM_CCER_CC3NE;
 8002ed8:	f423 6380 	bic.w	r3, r3, #1024	@ 0x400
    tmpcr2 &= ~TIM_CR2_OIS3N;
 8002edc:	f424 5440 	bic.w	r4, r4, #12288	@ 0x3000
    tmpcr2 |= (OC_Config->OCIdleState << 4U);
 8002ee0:	694a      	ldr	r2, [r1, #20]
 8002ee2:	ea44 1402 	orr.w	r4, r4, r2, lsl #4
    tmpcr2 |= (OC_Config->OCNIdleState << 4U);
 8002ee6:	698a      	ldr	r2, [r1, #24]
 8002ee8:	ea44 1402 	orr.w	r4, r4, r2, lsl #4
 8002eec:	e7e8      	b.n	8002ec0 <TIM_OC3_SetConfig+0x28>
 8002eee:	bf00      	nop
 8002ef0:	40010000 	.word	0x40010000

08002ef4 <TIM_OC4_SetConfig>:
  * @param  TIMx to select the TIM peripheral
  * @param  OC_Config The output configuration structure
  * @retval None
  */
static void TIM_OC4_SetConfig(TIM_TypeDef *TIMx, const TIM_OC_InitTypeDef *OC_Config)
{
 8002ef4:	b430      	push	{r4, r5}
  uint32_t tmpccmrx;
  uint32_t tmpccer;
  uint32_t tmpcr2;

  /* Get the TIMx CCER register value */
  tmpccer = TIMx->CCER;
 8002ef6:	6a03      	ldr	r3, [r0, #32]

  /* Disable the Channel 4: Reset the CC4E Bit */
  TIMx->CCER &= ~TIM_CCER_CC4E;
 8002ef8:	6a02      	ldr	r2, [r0, #32]
 8002efa:	f422 5280 	bic.w	r2, r2, #4096	@ 0x1000
 8002efe:	6202      	str	r2, [r0, #32]

  /* Get the TIMx CR2 register value */
  tmpcr2 =  TIMx->CR2;
 8002f00:	6844      	ldr	r4, [r0, #4]

  /* Get the TIMx CCMR2 register value */
  tmpccmrx = TIMx->CCMR2;
 8002f02:	69c2      	ldr	r2, [r0, #28]

  /* Reset the Output Compare mode and Capture/Compare selection Bits */
  tmpccmrx &= ~TIM_CCMR2_OC4M;
  tmpccmrx &= ~TIM_CCMR2_CC4S;
 8002f04:	f422 42e6 	bic.w	r2, r2, #29440	@ 0x7300

  /* Select the Output Compare Mode */
  tmpccmrx |= (OC_Config->OCMode << 8U);
 8002f08:	680d      	ldr	r5, [r1, #0]
 8002f0a:	ea42 2205 	orr.w	r2, r2, r5, lsl #8

  /* Reset the Output Polarity level */
  tmpccer &= ~TIM_CCER_CC4P;
 8002f0e:	f423 5300 	bic.w	r3, r3, #8192	@ 0x2000
  /* Set the Output Compare Polarity */
  tmpccer |= (OC_Config->OCPolarity << 12U);
 8002f12:	688d      	ldr	r5, [r1, #8]
 8002f14:	ea43 3305 	orr.w	r3, r3, r5, lsl #12

  if (IS_TIM_BREAK_INSTANCE(TIMx))
 8002f18:	4d07      	ldr	r5, [pc, #28]	@ (8002f38 <TIM_OC4_SetConfig+0x44>)
 8002f1a:	42a8      	cmp	r0, r5
 8002f1c:	d006      	beq.n	8002f2c <TIM_OC4_SetConfig+0x38>
    /* Set the Output Idle state */
    tmpcr2 |= (OC_Config->OCIdleState << 6U);
  }

  /* Write to TIMx CR2 */
  TIMx->CR2 = tmpcr2;
 8002f1e:	6044      	str	r4, [r0, #4]

  /* Write to TIMx CCMR2 */
  TIMx->CCMR2 = tmpccmrx;
 8002f20:	61c2      	str	r2, [r0, #28]

  /* Set the Capture Compare Register value */
  TIMx->CCR4 = OC_Config->Pulse;
 8002f22:	684a      	ldr	r2, [r1, #4]
 8002f24:	6402      	str	r2, [r0, #64]	@ 0x40

  /* Write to TIMx CCER */
  TIMx->CCER = tmpccer;
 8002f26:	6203      	str	r3, [r0, #32]
}
 8002f28:	bc30      	pop	{r4, r5}
 8002f2a:	4770      	bx	lr
    tmpcr2 &= ~TIM_CR2_OIS4;
 8002f2c:	f424 4480 	bic.w	r4, r4, #16384	@ 0x4000
    tmpcr2 |= (OC_Config->OCIdleState << 6U);
 8002f30:	694d      	ldr	r5, [r1, #20]
 8002f32:	ea44 1485 	orr.w	r4, r4, r5, lsl #6
 8002f36:	e7f2      	b.n	8002f1e <TIM_OC4_SetConfig+0x2a>
 8002f38:	40010000 	.word	0x40010000

08002f3c <TIM_TI1_ConfigInputStage>:
  * @param  TIM_ICFilter Specifies the Input Capture Filter.
  *          This parameter must be a value between 0x00 and 0x0F.
  * @retval None
  */
static void TIM_TI1_ConfigInputStage(TIM_TypeDef *TIMx, uint32_t TIM_ICPolarity, uint32_t TIM_ICFilter)
{
 8002f3c:	b410      	push	{r4}
  uint32_t tmpccmr1;
  uint32_t tmpccer;

  /* Disable the Channel 1: Reset the CC1E Bit */
  tmpccer = TIMx->CCER;
 8002f3e:	6a03      	ldr	r3, [r0, #32]
  TIMx->CCER &= ~TIM_CCER_CC1E;
 8002f40:	6a04      	ldr	r4, [r0, #32]
 8002f42:	f024 0401 	bic.w	r4, r4, #1
 8002f46:	6204      	str	r4, [r0, #32]
  tmpccmr1 = TIMx->CCMR1;
 8002f48:	6984      	ldr	r4, [r0, #24]

  /* Set the filter */
  tmpccmr1 &= ~TIM_CCMR1_IC1F;
 8002f4a:	f024 0cf0 	bic.w	ip, r4, #240	@ 0xf0
  tmpccmr1 |= (TIM_ICFilter << 4U);
 8002f4e:	ea4c 1202 	orr.w	r2, ip, r2, lsl #4

  /* Select the Polarity and set the CC1E Bit */
  tmpccer &= ~(TIM_CCER_CC1P | TIM_CCER_CC1NP);
 8002f52:	f023 030a 	bic.w	r3, r3, #10
  tmpccer |= TIM_ICPolarity;
 8002f56:	430b      	orrs	r3, r1

  /* Write to TIMx CCMR1 and CCER registers */
  TIMx->CCMR1 = tmpccmr1;
 8002f58:	6182      	str	r2, [r0, #24]
  TIMx->CCER = tmpccer;
 8002f5a:	6203      	str	r3, [r0, #32]
}
 8002f5c:	f85d 4b04 	ldr.w	r4, [sp], #4
 8002f60:	4770      	bx	lr

08002f62 <TIM_TI2_ConfigInputStage>:
  * @param  TIM_ICFilter Specifies the Input Capture Filter.
  *          This parameter must be a value between 0x00 and 0x0F.
  * @retval None
  */
static void TIM_TI2_ConfigInputStage(TIM_TypeDef *TIMx, uint32_t TIM_ICPolarity, uint32_t TIM_ICFilter)
{
 8002f62:	b410      	push	{r4}
  uint32_t tmpccmr1;
  uint32_t tmpccer;

  /* Disable the Channel 2: Reset the CC2E Bit */
  tmpccer = TIMx->CCER;
 8002f64:	6a03      	ldr	r3, [r0, #32]
  TIMx->CCER &= ~TIM_CCER_CC2E;
 8002f66:	6a04      	ldr	r4, [r0, #32]
 8002f68:	f024 0410 	bic.w	r4, r4, #16
 8002f6c:	6204      	str	r4, [r0, #32]
  tmpccmr1 = TIMx->CCMR1;
 8002f6e:	6984      	ldr	r4, [r0, #24]

  /* Set the filter */
  tmpccmr1 &= ~TIM_CCMR1_IC2F;
 8002f70:	f424 4c70 	bic.w	ip, r4, #61440	@ 0xf000
  tmpccmr1 |= (TIM_ICFilter << 12U);
 8002f74:	ea4c 3202 	orr.w	r2, ip, r2, lsl #12

  /* Select the Polarity and set the CC2E Bit */
  tmpccer &= ~(TIM_CCER_CC2P | TIM_CCER_CC2NP);
 8002f78:	f023 03a0 	bic.w	r3, r3, #160	@ 0xa0
  tmpccer |= (TIM_ICPolarity << 4U);
 8002f7c:	ea43 1301 	orr.w	r3, r3, r1, lsl #4

  /* Write to TIMx CCMR1 and CCER registers */
  TIMx->CCMR1 = tmpccmr1 ;
 8002f80:	6182      	str	r2, [r0, #24]
  TIMx->CCER = tmpccer;
 8002f82:	6203      	str	r3, [r0, #32]
}
 8002f84:	f85d 4b04 	ldr.w	r4, [sp], #4
 8002f88:	4770      	bx	lr

08002f8a <TIM_ITRx_SetConfig>:
static void TIM_ITRx_SetConfig(TIM_TypeDef *TIMx, uint32_t InputTriggerSource)
{
  uint32_t tmpsmcr;

  /* Get the TIMx SMCR register value */
  tmpsmcr = TIMx->SMCR;
 8002f8a:	6883      	ldr	r3, [r0, #8]
  /* Reset the TS Bits */
  tmpsmcr &= ~TIM_SMCR_TS;
 8002f8c:	f023 0370 	bic.w	r3, r3, #112	@ 0x70
  /* Set the Input Trigger source and the slave mode*/
  tmpsmcr |= (InputTriggerSource | TIM_SLAVEMODE_EXTERNAL1);
 8002f90:	430b      	orrs	r3, r1
 8002f92:	f043 0307 	orr.w	r3, r3, #7
  /* Write to TIMx SMCR */
  TIMx->SMCR = tmpsmcr;
 8002f96:	6083      	str	r3, [r0, #8]
}
 8002f98:	4770      	bx	lr

08002f9a <HAL_TIM_PWM_MspInit>:
}
 8002f9a:	4770      	bx	lr

08002f9c <HAL_TIM_PeriodElapsedCallback>:
}
 8002f9c:	4770      	bx	lr

08002f9e <HAL_TIM_OC_DelayElapsedCallback>:
}
 8002f9e:	4770      	bx	lr

08002fa0 <HAL_TIM_IC_CaptureCallback>:
}
 8002fa0:	4770      	bx	lr

08002fa2 <HAL_TIM_PWM_PulseFinishedCallback>:
}
 8002fa2:	4770      	bx	lr

08002fa4 <HAL_TIM_TriggerCallback>:
}
 8002fa4:	4770      	bx	lr

08002fa6 <HAL_TIM_IRQHandler>:
{
 8002fa6:	b570      	push	{r4, r5, r6, lr}
 8002fa8:	4604      	mov	r4, r0
  uint32_t itsource = htim->Instance->DIER;
 8002faa:	6803      	ldr	r3, [r0, #0]
 8002fac:	68de      	ldr	r6, [r3, #12]
  uint32_t itflag   = htim->Instance->SR;
 8002fae:	691d      	ldr	r5, [r3, #16]
  if ((itflag & (TIM_FLAG_CC1)) == (TIM_FLAG_CC1))
 8002fb0:	f015 0f02 	tst.w	r5, #2
 8002fb4:	d010      	beq.n	8002fd8 <HAL_TIM_IRQHandler+0x32>
    if ((itsource & (TIM_IT_CC1)) == (TIM_IT_CC1))
 8002fb6:	f016 0f02 	tst.w	r6, #2
 8002fba:	d00d      	beq.n	8002fd8 <HAL_TIM_IRQHandler+0x32>
        __HAL_TIM_CLEAR_FLAG(htim, TIM_FLAG_CC1);
 8002fbc:	f06f 0202 	mvn.w	r2, #2
 8002fc0:	611a      	str	r2, [r3, #16]
        htim->Channel = HAL_TIM_ACTIVE_CHANNEL_1;
 8002fc2:	2301      	movs	r3, #1
 8002fc4:	7703      	strb	r3, [r0, #28]
        if ((htim->Instance->CCMR1 & TIM_CCMR1_CC1S) != 0x00U)
 8002fc6:	6803      	ldr	r3, [r0, #0]
 8002fc8:	699b      	ldr	r3, [r3, #24]
 8002fca:	f013 0f03 	tst.w	r3, #3
 8002fce:	d05e      	beq.n	800308e <HAL_TIM_IRQHandler+0xe8>
          HAL_TIM_IC_CaptureCallback(htim);
 8002fd0:	f7ff ffe6 	bl	8002fa0 <HAL_TIM_IC_CaptureCallback>
        htim->Channel = HAL_TIM_ACTIVE_CHANNEL_CLEARED;
 8002fd4:	2300      	movs	r3, #0
 8002fd6:	7723      	strb	r3, [r4, #28]
  if ((itflag & (TIM_FLAG_CC2)) == (TIM_FLAG_CC2))
 8002fd8:	f015 0f04 	tst.w	r5, #4
 8002fdc:	d012      	beq.n	8003004 <HAL_TIM_IRQHandler+0x5e>
    if ((itsource & (TIM_IT_CC2)) == (TIM_IT_CC2))
 8002fde:	f016 0f04 	tst.w	r6, #4
 8002fe2:	d00f      	beq.n	8003004 <HAL_TIM_IRQHandler+0x5e>
      __HAL_TIM_CLEAR_FLAG(htim, TIM_FLAG_CC2);
 8002fe4:	6823      	ldr	r3, [r4, #0]
 8002fe6:	f06f 0204 	mvn.w	r2, #4
 8002fea:	611a      	str	r2, [r3, #16]
      htim->Channel = HAL_TIM_ACTIVE_CHANNEL_2;
 8002fec:	2302      	movs	r3, #2
 8002fee:	7723      	strb	r3, [r4, #28]
      if ((htim->Instance->CCMR1 & TIM_CCMR1_CC2S) != 0x00U)
 8002ff0:	6823      	ldr	r3, [r4, #0]
 8002ff2:	699b      	ldr	r3, [r3, #24]
 8002ff4:	f413 7f40 	tst.w	r3, #768	@ 0x300
 8002ff8:	d04f      	beq.n	800309a <HAL_TIM_IRQHandler+0xf4>
        HAL_TIM_IC_CaptureCallback(htim);
 8002ffa:	4620      	mov	r0, r4
 8002ffc:	f7ff ffd0 	bl	8002fa0 <HAL_TIM_IC_CaptureCallback>
      htim->Channel = HAL_TIM_ACTIVE_CHANNEL_CLEARED;
 8003000:	2300      	movs	r3, #0
 8003002:	7723      	strb	r3, [r4, #28]
  if ((itflag & (TIM_FLAG_CC3)) == (TIM_FLAG_CC3))
 8003004:	f015 0f08 	tst.w	r5, #8
 8003008:	d012      	beq.n	8003030 <HAL_TIM_IRQHandler+0x8a>
    if ((itsource & (TIM_IT_CC3)) == (TIM_IT_CC3))
 800300a:	f016 0f08 	tst.w	r6, #8
 800300e:	d00f      	beq.n	8003030 <HAL_TIM_IRQHandler+0x8a>
      __HAL_TIM_CLEAR_FLAG(htim, TIM_FLAG_CC3);
 8003010:	6823      	ldr	r3, [r4, #0]
 8003012:	f06f 0208 	mvn.w	r2, #8
 8003016:	611a      	str	r2, [r3, #16]
      htim->Channel = HAL_TIM_ACTIVE_CHANNEL_3;
 8003018:	2304      	movs	r3, #4
 800301a:	7723      	strb	r3, [r4, #28]
      if ((htim->Instance->CCMR2 & TIM_CCMR2_CC3S) != 0x00U)
 800301c:	6823      	ldr	r3, [r4, #0]
 800301e:	69db      	ldr	r3, [r3, #28]
 8003020:	f013 0f03 	tst.w	r3, #3
 8003024:	d040      	beq.n	80030a8 <HAL_TIM_IRQHandler+0x102>
        HAL_TIM_IC_CaptureCallback(htim);
 8003026:	4620      	mov	r0, r4
 8003028:	f7ff ffba 	bl	8002fa0 <HAL_TIM_IC_CaptureCallback>
      htim->Channel = HAL_TIM_ACTIVE_CHANNEL_CLEARED;
 800302c:	2300      	movs	r3, #0
 800302e:	7723      	strb	r3, [r4, #28]
  if ((itflag & (TIM_FLAG_CC4)) == (TIM_FLAG_CC4))
 8003030:	f015 0f10 	tst.w	r5, #16
 8003034:	d012      	beq.n	800305c <HAL_TIM_IRQHandler+0xb6>
    if ((itsource & (TIM_IT_CC4)) == (TIM_IT_CC4))
 8003036:	f016 0f10 	tst.w	r6, #16
 800303a:	d00f      	beq.n	800305c <HAL_TIM_IRQHandler+0xb6>
      __HAL_TIM_CLEAR_FLAG(htim, TIM_FLAG_CC4);
 800303c:	6823      	ldr	r3, [r4, #0]
 800303e:	f06f 0210 	mvn.w	r2, #16
 8003042:	611a      	str	r2, [r3, #16]
      htim->Channel = HAL_TIM_ACTIVE_CHANNEL_4;
 8003044:	2308      	movs	r3, #8
 8003046:	7723      	strb	r3, [r4, #28]
      if ((htim->Instance->CCMR2 & TIM_CCMR2_CC4S) != 0x00U)
 8003048:	6823      	ldr	r3, [r4, #0]
 800304a:	69db      	ldr	r3, [r3, #28]
 800304c:	f413 7f40 	tst.w	r3, #768	@ 0x300
 8003050:	d031      	beq.n	80030b6 <HAL_TIM_IRQHandler+0x110>
        HAL_TIM_IC_CaptureCallback(htim);
 8003052:	4620      	mov	r0, r4
 8003054:	f7ff ffa4 	bl	8002fa0 <HAL_TIM_IC_CaptureCallback>
      htim->Channel = HAL_TIM_ACTIVE_CHANNEL_CLEARED;
 8003058:	2300      	movs	r3, #0
 800305a:	7723      	strb	r3, [r4, #28]
  if ((itflag & (TIM_FLAG_UPDATE)) == (TIM_FLAG_UPDATE))
 800305c:	f015 0f01 	tst.w	r5, #1
 8003060:	d002      	beq.n	8003068 <HAL_TIM_IRQHandler+0xc2>
    if ((itsource & (TIM_IT_UPDATE)) == (TIM_IT_UPDATE))
 8003062:	f016 0f01 	tst.w	r6, #1
 8003066:	d12d      	bne.n	80030c4 <HAL_TIM_IRQHandler+0x11e>
  if ((itflag & (TIM_FLAG_BREAK)) == (TIM_FLAG_BREAK))
 8003068:	f015 0f80 	tst.w	r5, #128	@ 0x80
 800306c:	d002      	beq.n	8003074 <HAL_TIM_IRQHandler+0xce>
    if ((itsource & (TIM_IT_BREAK)) == (TIM_IT_BREAK))
 800306e:	f016 0f80 	tst.w	r6, #128	@ 0x80
 8003072:	d12f      	bne.n	80030d4 <HAL_TIM_IRQHandler+0x12e>
  if ((itflag & (TIM_FLAG_TRIGGER)) == (TIM_FLAG_TRIGGER))
 8003074:	f015 0f40 	tst.w	r5, #64	@ 0x40
 8003078:	d002      	beq.n	8003080 <HAL_TIM_IRQHandler+0xda>
    if ((itsource & (TIM_IT_TRIGGER)) == (TIM_IT_TRIGGER))
 800307a:	f016 0f40 	tst.w	r6, #64	@ 0x40
 800307e:	d131      	bne.n	80030e4 <HAL_TIM_IRQHandler+0x13e>
  if ((itflag & (TIM_FLAG_COM)) == (TIM_FLAG_COM))
 8003080:	f015 0f20 	tst.w	r5, #32
 8003084:	d002      	beq.n	800308c <HAL_TIM_IRQHandler+0xe6>
    if ((itsource & (TIM_IT_COM)) == (TIM_IT_COM))
 8003086:	f016 0f20 	tst.w	r6, #32
 800308a:	d133      	bne.n	80030f4 <HAL_TIM_IRQHandler+0x14e>
}
 800308c:	bd70      	pop	{r4, r5, r6, pc}
          HAL_TIM_OC_DelayElapsedCallback(htim);
 800308e:	f7ff ff86 	bl	8002f9e <HAL_TIM_OC_DelayElapsedCallback>
          HAL_TIM_PWM_PulseFinishedCallback(htim);
 8003092:	4620      	mov	r0, r4
 8003094:	f7ff ff85 	bl	8002fa2 <HAL_TIM_PWM_PulseFinishedCallback>
 8003098:	e79c      	b.n	8002fd4 <HAL_TIM_IRQHandler+0x2e>
        HAL_TIM_OC_DelayElapsedCallback(htim);
 800309a:	4620      	mov	r0, r4
 800309c:	f7ff ff7f 	bl	8002f9e <HAL_TIM_OC_DelayElapsedCallback>
        HAL_TIM_PWM_PulseFinishedCallback(htim);
 80030a0:	4620      	mov	r0, r4
 80030a2:	f7ff ff7e 	bl	8002fa2 <HAL_TIM_PWM_PulseFinishedCallback>
 80030a6:	e7ab      	b.n	8003000 <HAL_TIM_IRQHandler+0x5a>
        HAL_TIM_OC_DelayElapsedCallback(htim);
 80030a8:	4620      	mov	r0, r4
 80030aa:	f7ff ff78 	bl	8002f9e <HAL_TIM_OC_DelayElapsedCallback>
        HAL_TIM_PWM_PulseFinishedCallback(htim);
 80030ae:	4620      	mov	r0, r4
 80030b0:	f7ff ff77 	bl	8002fa2 <HAL_TIM_PWM_PulseFinishedCallback>
 80030b4:	e7ba      	b.n	800302c <HAL_TIM_IRQHandler+0x86>
        HAL_TIM_OC_DelayElapsedCallback(htim);
 80030b6:	4620      	mov	r0, r4
 80030b8:	f7ff ff71 	bl	8002f9e <HAL_TIM_OC_DelayElapsedCallback>
        HAL_TIM_PWM_PulseFinishedCallback(htim);
 80030bc:	4620      	mov	r0, r4
 80030be:	f7ff ff70 	bl	8002fa2 <HAL_TIM_PWM_PulseFinishedCallback>
 80030c2:	e7c9      	b.n	8003058 <HAL_TIM_IRQHandler+0xb2>
      __HAL_TIM_CLEAR_FLAG(htim, TIM_FLAG_UPDATE);
 80030c4:	6823      	ldr	r3, [r4, #0]
 80030c6:	f06f 0201 	mvn.w	r2, #1
 80030ca:	611a      	str	r2, [r3, #16]
      HAL_TIM_PeriodElapsedCallback(htim);
 80030cc:	4620      	mov	r0, r4
 80030ce:	f7ff ff65 	bl	8002f9c <HAL_TIM_PeriodElapsedCallback>
 80030d2:	e7c9      	b.n	8003068 <HAL_TIM_IRQHandler+0xc2>
      __HAL_TIM_CLEAR_FLAG(htim, TIM_FLAG_BREAK);
 80030d4:	6823      	ldr	r3, [r4, #0]
 80030d6:	f06f 0280 	mvn.w	r2, #128	@ 0x80
 80030da:	611a      	str	r2, [r3, #16]
      HAL_TIMEx_BreakCallback(htim);
 80030dc:	4620      	mov	r0, r4
 80030de:	f000 fad1 	bl	8003684 <HAL_TIMEx_BreakCallback>
 80030e2:	e7c7      	b.n	8003074 <HAL_TIM_IRQHandler+0xce>
      __HAL_TIM_CLEAR_FLAG(htim, TIM_FLAG_TRIGGER);
 80030e4:	6823      	ldr	r3, [r4, #0]
 80030e6:	f06f 0240 	mvn.w	r2, #64	@ 0x40
 80030ea:	611a      	str	r2, [r3, #16]
      HAL_TIM_TriggerCallback(htim);
 80030ec:	4620      	mov	r0, r4
 80030ee:	f7ff ff59 	bl	8002fa4 <HAL_TIM_TriggerCallback>
 80030f2:	e7c5      	b.n	8003080 <HAL_TIM_IRQHandler+0xda>
      __HAL_TIM_CLEAR_FLAG(htim, TIM_FLAG_COM);
 80030f4:	6823      	ldr	r3, [r4, #0]
 80030f6:	f06f 0220 	mvn.w	r2, #32
 80030fa:	611a      	str	r2, [r3, #16]
      HAL_TIMEx_CommutCallback(htim);
 80030fc:	4620      	mov	r0, r4
 80030fe:	f000 fac0 	bl	8003682 <HAL_TIMEx_CommutCallback>
}
 8003102:	e7c3      	b.n	800308c <HAL_TIM_IRQHandler+0xe6>

08003104 <TIM_Base_SetConfig>:
  tmpcr1 = TIMx->CR1;
 8003104:	6803      	ldr	r3, [r0, #0]
  if (IS_TIM_COUNTER_MODE_SELECT_INSTANCE(TIMx))
 8003106:	4a29      	ldr	r2, [pc, #164]	@ (80031ac <TIM_Base_SetConfig+0xa8>)
 8003108:	4290      	cmp	r0, r2
 800310a:	d00e      	beq.n	800312a <TIM_Base_SetConfig+0x26>
 800310c:	f1b0 4f80 	cmp.w	r0, #1073741824	@ 0x40000000
 8003110:	d00b      	beq.n	800312a <TIM_Base_SetConfig+0x26>
 8003112:	f5a2 427c 	sub.w	r2, r2, #64512	@ 0xfc00
 8003116:	4290      	cmp	r0, r2
 8003118:	d007      	beq.n	800312a <TIM_Base_SetConfig+0x26>
 800311a:	f502 6280 	add.w	r2, r2, #1024	@ 0x400
 800311e:	4290      	cmp	r0, r2
 8003120:	d003      	beq.n	800312a <TIM_Base_SetConfig+0x26>
 8003122:	f502 6280 	add.w	r2, r2, #1024	@ 0x400
 8003126:	4290      	cmp	r0, r2
 8003128:	d103      	bne.n	8003132 <TIM_Base_SetConfig+0x2e>
    tmpcr1 &= ~(TIM_CR1_DIR | TIM_CR1_CMS);
 800312a:	f023 0370 	bic.w	r3, r3, #112	@ 0x70
    tmpcr1 |= Structure->CounterMode;
 800312e:	684a      	ldr	r2, [r1, #4]
 8003130:	4313      	orrs	r3, r2
  if (IS_TIM_CLOCK_DIVISION_INSTANCE(TIMx))
 8003132:	4a1e      	ldr	r2, [pc, #120]	@ (80031ac <TIM_Base_SetConfig+0xa8>)
 8003134:	4290      	cmp	r0, r2
 8003136:	d01a      	beq.n	800316e <TIM_Base_SetConfig+0x6a>
 8003138:	f1b0 4f80 	cmp.w	r0, #1073741824	@ 0x40000000
 800313c:	d017      	beq.n	800316e <TIM_Base_SetConfig+0x6a>
 800313e:	f5a2 427c 	sub.w	r2, r2, #64512	@ 0xfc00
 8003142:	4290      	cmp	r0, r2
 8003144:	d013      	beq.n	800316e <TIM_Base_SetConfig+0x6a>
 8003146:	f502 6280 	add.w	r2, r2, #1024	@ 0x400
 800314a:	4290      	cmp	r0, r2
 800314c:	d00f      	beq.n	800316e <TIM_Base_SetConfig+0x6a>
 800314e:	f502 6280 	add.w	r2, r2, #1024	@ 0x400
 8003152:	4290      	cmp	r0, r2
 8003154:	d00b      	beq.n	800316e <TIM_Base_SetConfig+0x6a>
 8003156:	f502 329a 	add.w	r2, r2, #78848	@ 0x13400
 800315a:	4290      	cmp	r0, r2
 800315c:	d007      	beq.n	800316e <TIM_Base_SetConfig+0x6a>
 800315e:	f502 6280 	add.w	r2, r2, #1024	@ 0x400
 8003162:	4290      	cmp	r0, r2
 8003164:	d003      	beq.n	800316e <TIM_Base_SetConfig+0x6a>
 8003166:	f502 6280 	add.w	r2, r2, #1024	@ 0x400
 800316a:	4290      	cmp	r0, r2
 800316c:	d103      	bne.n	8003176 <TIM_Base_SetConfig+0x72>
    tmpcr1 &= ~TIM_CR1_CKD;
 800316e:	f423 7340 	bic.w	r3, r3, #768	@ 0x300
    tmpcr1 |= (uint32_t)Structure->ClockDivision;
 8003172:	68ca      	ldr	r2, [r1, #12]
 8003174:	4313      	orrs	r3, r2
  MODIFY_REG(tmpcr1, TIM_CR1_ARPE, Structure->AutoReloadPreload);
 8003176:	f023 0380 	bic.w	r3, r3, #128	@ 0x80
 800317a:	694a      	ldr	r2, [r1, #20]
 800317c:	4313      	orrs	r3, r2
  TIMx->CR1 = tmpcr1;
 800317e:	6003      	str	r3, [r0, #0]
  TIMx->ARR = (uint32_t)Structure->Period ;
 8003180:	688b      	ldr	r3, [r1, #8]
 8003182:	62c3      	str	r3, [r0, #44]	@ 0x2c
  TIMx->PSC = Structure->Prescaler;
 8003184:	680b      	ldr	r3, [r1, #0]
 8003186:	6283      	str	r3, [r0, #40]	@ 0x28
  if (IS_TIM_REPETITION_COUNTER_INSTANCE(TIMx))
 8003188:	4b08      	ldr	r3, [pc, #32]	@ (80031ac <TIM_Base_SetConfig+0xa8>)
 800318a:	4298      	cmp	r0, r3
 800318c:	d00a      	beq.n	80031a4 <TIM_Base_SetConfig+0xa0>
  TIMx->EGR = TIM_EGR_UG;
 800318e:	2301      	movs	r3, #1
 8003190:	6143      	str	r3, [r0, #20]
  if (HAL_IS_BIT_SET(TIMx->SR, TIM_FLAG_UPDATE))
 8003192:	6903      	ldr	r3, [r0, #16]
 8003194:	f013 0f01 	tst.w	r3, #1
 8003198:	d003      	beq.n	80031a2 <TIM_Base_SetConfig+0x9e>
    CLEAR_BIT(TIMx->SR, TIM_FLAG_UPDATE);
 800319a:	6903      	ldr	r3, [r0, #16]
 800319c:	f023 0301 	bic.w	r3, r3, #1
 80031a0:	6103      	str	r3, [r0, #16]
}
 80031a2:	4770      	bx	lr
    TIMx->RCR = Structure->RepetitionCounter;
 80031a4:	690b      	ldr	r3, [r1, #16]
 80031a6:	6303      	str	r3, [r0, #48]	@ 0x30
 80031a8:	e7f1      	b.n	800318e <TIM_Base_SetConfig+0x8a>
 80031aa:	bf00      	nop
 80031ac:	40010000 	.word	0x40010000

080031b0 <HAL_TIM_Base_Init>:
  if (htim == NULL)
 80031b0:	b340      	cbz	r0, 8003204 <HAL_TIM_Base_Init+0x54>
{
 80031b2:	b510      	push	{r4, lr}
 80031b4:	4604      	mov	r4, r0
  if (htim->State == HAL_TIM_STATE_RESET)
 80031b6:	f890 303d 	ldrb.w	r3, [r0, #61]	@ 0x3d
 80031ba:	b1f3      	cbz	r3, 80031fa <HAL_TIM_Base_Init+0x4a>
  htim->State = HAL_TIM_STATE_BUSY;
 80031bc:	2302      	movs	r3, #2
 80031be:	f884 303d 	strb.w	r3, [r4, #61]	@ 0x3d
  TIM_Base_SetConfig(htim->Instance, &htim->Init);
 80031c2:	4621      	mov	r1, r4
 80031c4:	f851 0b04 	ldr.w	r0, [r1], #4
 80031c8:	f7ff ff9c 	bl	8003104 <TIM_Base_SetConfig>
  htim->DMABurstState = HAL_DMA_BURST_STATE_READY;
 80031cc:	2301      	movs	r3, #1
 80031ce:	f884 3046 	strb.w	r3, [r4, #70]	@ 0x46
  TIM_CHANNEL_STATE_SET_ALL(htim, HAL_TIM_CHANNEL_STATE_READY);
 80031d2:	f884 303e 	strb.w	r3, [r4, #62]	@ 0x3e
 80031d6:	f884 303f 	strb.w	r3, [r4, #63]	@ 0x3f
 80031da:	f884 3040 	strb.w	r3, [r4, #64]	@ 0x40
 80031de:	f884 3041 	strb.w	r3, [r4, #65]	@ 0x41
  TIM_CHANNEL_N_STATE_SET_ALL(htim, HAL_TIM_CHANNEL_STATE_READY);
 80031e2:	f884 3042 	strb.w	r3, [r4, #66]	@ 0x42
 80031e6:	f884 3043 	strb.w	r3, [r4, #67]	@ 0x43
 80031ea:	f884 3044 	strb.w	r3, [r4, #68]	@ 0x44
 80031ee:	f884 3045 	strb.w	r3, [r4, #69]	@ 0x45
  htim->State = HAL_TIM_STATE_READY;
 80031f2:	f884 303d 	strb.w	r3, [r4, #61]	@ 0x3d
  return HAL_OK;
 80031f6:	2000      	movs	r0, #0
}
 80031f8:	bd10      	pop	{r4, pc}
    htim->Lock = HAL_UNLOCKED;
 80031fa:	f880 303c 	strb.w	r3, [r0, #60]	@ 0x3c
    HAL_TIM_Base_MspInit(htim);
 80031fe:	f000 fc65 	bl	8003acc <HAL_TIM_Base_MspInit>
 8003202:	e7db      	b.n	80031bc <HAL_TIM_Base_Init+0xc>
    return HAL_ERROR;
 8003204:	2001      	movs	r0, #1
}
 8003206:	4770      	bx	lr

08003208 <HAL_TIM_PWM_Init>:
  if (htim == NULL)
 8003208:	b340      	cbz	r0, 800325c <HAL_TIM_PWM_Init+0x54>
{
 800320a:	b510      	push	{r4, lr}
 800320c:	4604      	mov	r4, r0
  if (htim->State == HAL_TIM_STATE_RESET)
 800320e:	f890 303d 	ldrb.w	r3, [r0, #61]	@ 0x3d
 8003212:	b1f3      	cbz	r3, 8003252 <HAL_TIM_PWM_Init+0x4a>
  htim->State = HAL_TIM_STATE_BUSY;
 8003214:	2302      	movs	r3, #2
 8003216:	f884 303d 	strb.w	r3, [r4, #61]	@ 0x3d
  TIM_Base_SetConfig(htim->Instance, &htim->Init);
 800321a:	4621      	mov	r1, r4
 800321c:	f851 0b04 	ldr.w	r0, [r1], #4
 8003220:	f7ff ff70 	bl	8003104 <TIM_Base_SetConfig>
  htim->DMABurstState = HAL_DMA_BURST_STATE_READY;
 8003224:	2301      	movs	r3, #1
 8003226:	f884 3046 	strb.w	r3, [r4, #70]	@ 0x46
  TIM_CHANNEL_STATE_SET_ALL(htim, HAL_TIM_CHANNEL_STATE_READY);
 800322a:	f884 303e 	strb.w	r3, [r4, #62]	@ 0x3e
 800322e:	f884 303f 	strb.w	r3, [r4, #63]	@ 0x3f
 8003232:	f884 3040 	strb.w	r3, [r4, #64]	@ 0x40
 8003236:	f884 3041 	strb.w	r3, [r4, #65]	@ 0x41
  TIM_CHANNEL_N_STATE_SET_ALL(htim, HAL_TIM_CHANNEL_STATE_READY);
 800323a:	f884 3042 	strb.w	r3, [r4, #66]	@ 0x42
 800323e:	f884 3043 	strb.w	r3, [r4, #67]	@ 0x43
 8003242:	f884 3044 	strb.w	r3, [r4, #68]	@ 0x44
 8003246:	f884 3045 	strb.w	r3, [r4, #69]	@ 0x45
  htim->State = HAL_TIM_STATE_READY;
 800324a:	f884 303d 	strb.w	r3, [r4, #61]	@ 0x3d
  return HAL_OK;
 800324e:	2000      	movs	r0, #0
}
 8003250:	bd10      	pop	{r4, pc}
    htim->Lock = HAL_UNLOCKED;
 8003252:	f880 303c 	strb.w	r3, [r0, #60]	@ 0x3c
    HAL_TIM_PWM_MspInit(htim);
 8003256:	f7ff fea0 	bl	8002f9a <HAL_TIM_PWM_MspInit>
 800325a:	e7db      	b.n	8003214 <HAL_TIM_PWM_Init+0xc>
    return HAL_ERROR;
 800325c:	2001      	movs	r0, #1
}
 800325e:	4770      	bx	lr

08003260 <TIM_OC2_SetConfig>:
{
 8003260:	b430      	push	{r4, r5}
  tmpccer = TIMx->CCER;
 8003262:	6a03      	ldr	r3, [r0, #32]
  TIMx->CCER &= ~TIM_CCER_CC2E;
 8003264:	6a02      	ldr	r2, [r0, #32]
 8003266:	f022 0210 	bic.w	r2, r2, #16
 800326a:	6202      	str	r2, [r0, #32]
  tmpcr2 =  TIMx->CR2;
 800326c:	6844      	ldr	r4, [r0, #4]
  tmpccmrx = TIMx->CCMR1;
 800326e:	6982      	ldr	r2, [r0, #24]
  tmpccmrx &= ~TIM_CCMR1_CC2S;
 8003270:	f422 42e6 	bic.w	r2, r2, #29440	@ 0x7300
  tmpccmrx |= (OC_Config->OCMode << 8U);
 8003274:	680d      	ldr	r5, [r1, #0]
 8003276:	ea42 2205 	orr.w	r2, r2, r5, lsl #8
  tmpccer &= ~TIM_CCER_CC2P;
 800327a:	f023 0320 	bic.w	r3, r3, #32
  tmpccer |= (OC_Config->OCPolarity << 4U);
 800327e:	688d      	ldr	r5, [r1, #8]
 8003280:	ea43 1305 	orr.w	r3, r3, r5, lsl #4
  if (IS_TIM_CCXN_INSTANCE(TIMx, TIM_CHANNEL_2))
 8003284:	4d0c      	ldr	r5, [pc, #48]	@ (80032b8 <TIM_OC2_SetConfig+0x58>)
 8003286:	42a8      	cmp	r0, r5
 8003288:	d006      	beq.n	8003298 <TIM_OC2_SetConfig+0x38>
  TIMx->CR2 = tmpcr2;
 800328a:	6044      	str	r4, [r0, #4]
  TIMx->CCMR1 = tmpccmrx;
 800328c:	6182      	str	r2, [r0, #24]
  TIMx->CCR2 = OC_Config->Pulse;
 800328e:	684a      	ldr	r2, [r1, #4]
 8003290:	6382      	str	r2, [r0, #56]	@ 0x38
  TIMx->CCER = tmpccer;
 8003292:	6203      	str	r3, [r0, #32]
}
 8003294:	bc30      	pop	{r4, r5}
 8003296:	4770      	bx	lr
    tmpccer &= ~TIM_CCER_CC2NP;
 8003298:	f023 0380 	bic.w	r3, r3, #128	@ 0x80
    tmpccer |= (OC_Config->OCNPolarity << 4U);
 800329c:	68cd      	ldr	r5, [r1, #12]
 800329e:	ea43 1305 	orr.w	r3, r3, r5, lsl #4
    tmpccer &= ~TIM_CCER_CC2NE;
 80032a2:	f023 0340 	bic.w	r3, r3, #64	@ 0x40
    tmpcr2 &= ~TIM_CR2_OIS2N;
 80032a6:	f424 6440 	bic.w	r4, r4, #3072	@ 0xc00
    tmpcr2 |= (OC_Config->OCIdleState << 2U);
 80032aa:	694d      	ldr	r5, [r1, #20]
 80032ac:	ea44 0485 	orr.w	r4, r4, r5, lsl #2
    tmpcr2 |= (OC_Config->OCNIdleState << 2U);
 80032b0:	698d      	ldr	r5, [r1, #24]
 80032b2:	ea44 0485 	orr.w	r4, r4, r5, lsl #2
 80032b6:	e7e8      	b.n	800328a <TIM_OC2_SetConfig+0x2a>
 80032b8:	40010000 	.word	0x40010000

080032bc <HAL_TIM_PWM_ConfigChannel>:
{
 80032bc:	b538      	push	{r3, r4, r5, lr}
  __HAL_LOCK(htim);
 80032be:	f890 303c 	ldrb.w	r3, [r0, #60]	@ 0x3c
 80032c2:	2b01      	cmp	r3, #1
 80032c4:	d066      	beq.n	8003394 <HAL_TIM_PWM_ConfigChannel+0xd8>
 80032c6:	4604      	mov	r4, r0
 80032c8:	460d      	mov	r5, r1
 80032ca:	2301      	movs	r3, #1
 80032cc:	f880 303c 	strb.w	r3, [r0, #60]	@ 0x3c
  switch (Channel)
 80032d0:	2a0c      	cmp	r2, #12
 80032d2:	d85a      	bhi.n	800338a <HAL_TIM_PWM_ConfigChannel+0xce>
 80032d4:	e8df f002 	tbb	[pc, r2]
 80032d8:	59595907 	.word	0x59595907
 80032dc:	5959591b 	.word	0x5959591b
 80032e0:	59595930 	.word	0x59595930
 80032e4:	44          	.byte	0x44
 80032e5:	00          	.byte	0x00
      TIM_OC1_SetConfig(htim->Instance, sConfig);
 80032e6:	6800      	ldr	r0, [r0, #0]
 80032e8:	f7ff fdac 	bl	8002e44 <TIM_OC1_SetConfig>
      htim->Instance->CCMR1 |= TIM_CCMR1_OC1PE;
 80032ec:	6822      	ldr	r2, [r4, #0]
 80032ee:	6993      	ldr	r3, [r2, #24]
 80032f0:	f043 0308 	orr.w	r3, r3, #8
 80032f4:	6193      	str	r3, [r2, #24]
      htim->Instance->CCMR1 &= ~TIM_CCMR1_OC1FE;
 80032f6:	6822      	ldr	r2, [r4, #0]
 80032f8:	6993      	ldr	r3, [r2, #24]
 80032fa:	f023 0304 	bic.w	r3, r3, #4
 80032fe:	6193      	str	r3, [r2, #24]
      htim->Instance->CCMR1 |= sConfig->OCFastMode;
 8003300:	6822      	ldr	r2, [r4, #0]
 8003302:	6993      	ldr	r3, [r2, #24]
 8003304:	6929      	ldr	r1, [r5, #16]
 8003306:	430b      	orrs	r3, r1
 8003308:	6193      	str	r3, [r2, #24]
  HAL_StatusTypeDef status = HAL_OK;
 800330a:	2000      	movs	r0, #0
      break;
 800330c:	e03e      	b.n	800338c <HAL_TIM_PWM_ConfigChannel+0xd0>
      TIM_OC2_SetConfig(htim->Instance, sConfig);
 800330e:	6800      	ldr	r0, [r0, #0]
 8003310:	f7ff ffa6 	bl	8003260 <TIM_OC2_SetConfig>
      htim->Instance->CCMR1 |= TIM_CCMR1_OC2PE;
 8003314:	6822      	ldr	r2, [r4, #0]
 8003316:	6993      	ldr	r3, [r2, #24]
 8003318:	f443 6300 	orr.w	r3, r3, #2048	@ 0x800
 800331c:	6193      	str	r3, [r2, #24]
      htim->Instance->CCMR1 &= ~TIM_CCMR1_OC2FE;
 800331e:	6822      	ldr	r2, [r4, #0]
 8003320:	6993      	ldr	r3, [r2, #24]
 8003322:	f423 6380 	bic.w	r3, r3, #1024	@ 0x400
 8003326:	6193      	str	r3, [r2, #24]
      htim->Instance->CCMR1 |= sConfig->OCFastMode << 8U;
 8003328:	6822      	ldr	r2, [r4, #0]
 800332a:	6993      	ldr	r3, [r2, #24]
 800332c:	6929      	ldr	r1, [r5, #16]
 800332e:	ea43 2301 	orr.w	r3, r3, r1, lsl #8
 8003332:	6193      	str	r3, [r2, #24]
  HAL_StatusTypeDef status = HAL_OK;
 8003334:	2000      	movs	r0, #0
      break;
 8003336:	e029      	b.n	800338c <HAL_TIM_PWM_ConfigChannel+0xd0>
      TIM_OC3_SetConfig(htim->Instance, sConfig);
 8003338:	6800      	ldr	r0, [r0, #0]
 800333a:	f7ff fdad 	bl	8002e98 <TIM_OC3_SetConfig>
      htim->Instance->CCMR2 |= TIM_CCMR2_OC3PE;
 800333e:	6822      	ldr	r2, [r4, #0]
 8003340:	69d3      	ldr	r3, [r2, #28]
 8003342:	f043 0308 	orr.w	r3, r3, #8
 8003346:	61d3      	str	r3, [r2, #28]
      htim->Instance->CCMR2 &= ~TIM_CCMR2_OC3FE;
 8003348:	6822      	ldr	r2, [r4, #0]
 800334a:	69d3      	ldr	r3, [r2, #28]
 800334c:	f023 0304 	bic.w	r3, r3, #4
 8003350:	61d3      	str	r3, [r2, #28]
      htim->Instance->CCMR2 |= sConfig->OCFastMode;
 8003352:	6822      	ldr	r2, [r4, #0]
 8003354:	69d3      	ldr	r3, [r2, #28]
 8003356:	6929      	ldr	r1, [r5, #16]
 8003358:	430b      	orrs	r3, r1
 800335a:	61d3      	str	r3, [r2, #28]
  HAL_StatusTypeDef status = HAL_OK;
 800335c:	2000      	movs	r0, #0
      break;
 800335e:	e015      	b.n	800338c <HAL_TIM_PWM_ConfigChannel+0xd0>
      TIM_OC4_SetConfig(htim->Instance, sConfig);
 8003360:	6800      	ldr	r0, [r0, #0]
 8003362:	f7ff fdc7 	bl	8002ef4 <TIM_OC4_SetConfig>
      htim->Instance->CCMR2 |= TIM_CCMR2_OC4PE;
 8003366:	6822      	ldr	r2, [r4, #0]
 8003368:	69d3      	ldr	r3, [r2, #28]
 800336a:	f443 6300 	orr.w	r3, r3, #2048	@ 0x800
 800336e:	61d3      	str	r3, [r2, #28]
      htim->Instance->CCMR2 &= ~TIM_CCMR2_OC4FE;
 8003370:	6822      	ldr	r2, [r4, #0]
 8003372:	69d3      	ldr	r3, [r2, #28]
 8003374:	f423 6380 	bic.w	r3, r3, #1024	@ 0x400
 8003378:	61d3      	str	r3, [r2, #28]
      htim->Instance->CCMR2 |= sConfig->OCFastMode << 8U;
 800337a:	6822      	ldr	r2, [r4, #0]
 800337c:	69d3      	ldr	r3, [r2, #28]
 800337e:	6929      	ldr	r1, [r5, #16]
 8003380:	ea43 2301 	orr.w	r3, r3, r1, lsl #8
 8003384:	61d3      	str	r3, [r2, #28]
  HAL_StatusTypeDef status = HAL_OK;
 8003386:	2000      	movs	r0, #0
      break;
 8003388:	e000      	b.n	800338c <HAL_TIM_PWM_ConfigChannel+0xd0>
  switch (Channel)
 800338a:	2001      	movs	r0, #1
  __HAL_UNLOCK(htim);
 800338c:	2300      	movs	r3, #0
 800338e:	f884 303c 	strb.w	r3, [r4, #60]	@ 0x3c
}
 8003392:	bd38      	pop	{r3, r4, r5, pc}
  __HAL_LOCK(htim);
 8003394:	2002      	movs	r0, #2
 8003396:	e7fc      	b.n	8003392 <HAL_TIM_PWM_ConfigChannel+0xd6>

08003398 <TIM_ETR_SetConfig>:
  *          This parameter must be a value between 0x00 and 0x0F
  * @retval None
  */
void TIM_ETR_SetConfig(TIM_TypeDef *TIMx, uint32_t TIM_ExtTRGPrescaler,
                       uint32_t TIM_ExtTRGPolarity, uint32_t ExtTRGFilter)
{
 8003398:	b410      	push	{r4}
  uint32_t tmpsmcr;

  tmpsmcr = TIMx->SMCR;
 800339a:	6884      	ldr	r4, [r0, #8]

  /* Reset the ETR Bits */
  tmpsmcr &= ~(TIM_SMCR_ETF | TIM_SMCR_ETPS | TIM_SMCR_ECE | TIM_SMCR_ETP);
 800339c:	f424 4c7f 	bic.w	ip, r4, #65280	@ 0xff00

  /* Set the Prescaler, the Filter value and the Polarity */
  tmpsmcr |= (uint32_t)(TIM_ExtTRGPrescaler | (TIM_ExtTRGPolarity | (ExtTRGFilter << 8U)));
 80033a0:	ea42 2203 	orr.w	r2, r2, r3, lsl #8
 80033a4:	430a      	orrs	r2, r1
 80033a6:	ea42 020c 	orr.w	r2, r2, ip

  /* Write to TIMx SMCR */
  TIMx->SMCR = tmpsmcr;
 80033aa:	6082      	str	r2, [r0, #8]
}
 80033ac:	f85d 4b04 	ldr.w	r4, [sp], #4
 80033b0:	4770      	bx	lr

080033b2 <HAL_TIM_ConfigClockSource>:
  __HAL_LOCK(htim);
 80033b2:	f890 303c 	ldrb.w	r3, [r0, #60]	@ 0x3c
 80033b6:	2b01      	cmp	r3, #1
 80033b8:	d078      	beq.n	80034ac <HAL_TIM_ConfigClockSource+0xfa>
{
 80033ba:	b510      	push	{r4, lr}
 80033bc:	4604      	mov	r4, r0
  __HAL_LOCK(htim);
 80033be:	2301      	movs	r3, #1
 80033c0:	f880 303c 	strb.w	r3, [r0, #60]	@ 0x3c
  htim->State = HAL_TIM_STATE_BUSY;
 80033c4:	2302      	movs	r3, #2
 80033c6:	f880 303d 	strb.w	r3, [r0, #61]	@ 0x3d
  tmpsmcr = htim->Instance->SMCR;
 80033ca:	6802      	ldr	r2, [r0, #0]
 80033cc:	6893      	ldr	r3, [r2, #8]
  tmpsmcr &= ~(TIM_SMCR_ETF | TIM_SMCR_ETPS | TIM_SMCR_ECE | TIM_SMCR_ETP);
 80033ce:	f423 437f 	bic.w	r3, r3, #65280	@ 0xff00
 80033d2:	f023 0377 	bic.w	r3, r3, #119	@ 0x77
  htim->Instance->SMCR = tmpsmcr;
 80033d6:	6093      	str	r3, [r2, #8]
  switch (sClockSourceConfig->ClockSource)
 80033d8:	680b      	ldr	r3, [r1, #0]
 80033da:	2b60      	cmp	r3, #96	@ 0x60
 80033dc:	d04c      	beq.n	8003478 <HAL_TIM_ConfigClockSource+0xc6>
 80033de:	d823      	bhi.n	8003428 <HAL_TIM_ConfigClockSource+0x76>
 80033e0:	2b40      	cmp	r3, #64	@ 0x40
 80033e2:	d054      	beq.n	800348e <HAL_TIM_ConfigClockSource+0xdc>
 80033e4:	d811      	bhi.n	800340a <HAL_TIM_ConfigClockSource+0x58>
 80033e6:	2b20      	cmp	r3, #32
 80033e8:	d003      	beq.n	80033f2 <HAL_TIM_ConfigClockSource+0x40>
 80033ea:	d80a      	bhi.n	8003402 <HAL_TIM_ConfigClockSource+0x50>
 80033ec:	b10b      	cbz	r3, 80033f2 <HAL_TIM_ConfigClockSource+0x40>
 80033ee:	2b10      	cmp	r3, #16
 80033f0:	d105      	bne.n	80033fe <HAL_TIM_ConfigClockSource+0x4c>
      TIM_ITRx_SetConfig(htim->Instance, sClockSourceConfig->ClockSource);
 80033f2:	4619      	mov	r1, r3
 80033f4:	6820      	ldr	r0, [r4, #0]
 80033f6:	f7ff fdc8 	bl	8002f8a <TIM_ITRx_SetConfig>
  HAL_StatusTypeDef status = HAL_OK;
 80033fa:	2000      	movs	r0, #0
      break;
 80033fc:	e028      	b.n	8003450 <HAL_TIM_ConfigClockSource+0x9e>
      status = HAL_ERROR;
 80033fe:	2001      	movs	r0, #1
 8003400:	e026      	b.n	8003450 <HAL_TIM_ConfigClockSource+0x9e>
  switch (sClockSourceConfig->ClockSource)
 8003402:	2b30      	cmp	r3, #48	@ 0x30
 8003404:	d0f5      	beq.n	80033f2 <HAL_TIM_ConfigClockSource+0x40>
      status = HAL_ERROR;
 8003406:	2001      	movs	r0, #1
 8003408:	e022      	b.n	8003450 <HAL_TIM_ConfigClockSource+0x9e>
  switch (sClockSourceConfig->ClockSource)
 800340a:	2b50      	cmp	r3, #80	@ 0x50
 800340c:	d10a      	bne.n	8003424 <HAL_TIM_ConfigClockSource+0x72>
      TIM_TI1_ConfigInputStage(htim->Instance,
 800340e:	68ca      	ldr	r2, [r1, #12]
 8003410:	6849      	ldr	r1, [r1, #4]
 8003412:	6800      	ldr	r0, [r0, #0]
 8003414:	f7ff fd92 	bl	8002f3c <TIM_TI1_ConfigInputStage>
      TIM_ITRx_SetConfig(htim->Instance, TIM_CLOCKSOURCE_TI1);
 8003418:	2150      	movs	r1, #80	@ 0x50
 800341a:	6820      	ldr	r0, [r4, #0]
 800341c:	f7ff fdb5 	bl	8002f8a <TIM_ITRx_SetConfig>
  HAL_StatusTypeDef status = HAL_OK;
 8003420:	2000      	movs	r0, #0
      break;
 8003422:	e015      	b.n	8003450 <HAL_TIM_ConfigClockSource+0x9e>
      status = HAL_ERROR;
 8003424:	2001      	movs	r0, #1
 8003426:	e013      	b.n	8003450 <HAL_TIM_ConfigClockSource+0x9e>
  switch (sClockSourceConfig->ClockSource)
 8003428:	f5b3 5f80 	cmp.w	r3, #4096	@ 0x1000
 800342c:	d03a      	beq.n	80034a4 <HAL_TIM_ConfigClockSource+0xf2>
 800342e:	f5b3 5f00 	cmp.w	r3, #8192	@ 0x2000
 8003432:	d014      	beq.n	800345e <HAL_TIM_ConfigClockSource+0xac>
 8003434:	2b70      	cmp	r3, #112	@ 0x70
 8003436:	d137      	bne.n	80034a8 <HAL_TIM_ConfigClockSource+0xf6>
      TIM_ETR_SetConfig(htim->Instance,
 8003438:	68cb      	ldr	r3, [r1, #12]
 800343a:	684a      	ldr	r2, [r1, #4]
 800343c:	6889      	ldr	r1, [r1, #8]
 800343e:	6800      	ldr	r0, [r0, #0]
 8003440:	f7ff ffaa 	bl	8003398 <TIM_ETR_SetConfig>
      tmpsmcr = htim->Instance->SMCR;
 8003444:	6822      	ldr	r2, [r4, #0]
 8003446:	6893      	ldr	r3, [r2, #8]
      tmpsmcr |= (TIM_SLAVEMODE_EXTERNAL1 | TIM_CLOCKSOURCE_ETRMODE1);
 8003448:	f043 0377 	orr.w	r3, r3, #119	@ 0x77
      htim->Instance->SMCR = tmpsmcr;
 800344c:	6093      	str	r3, [r2, #8]
  HAL_StatusTypeDef status = HAL_OK;
 800344e:	2000      	movs	r0, #0
  htim->State = HAL_TIM_STATE_READY;
 8003450:	2301      	movs	r3, #1
 8003452:	f884 303d 	strb.w	r3, [r4, #61]	@ 0x3d
  __HAL_UNLOCK(htim);
 8003456:	2300      	movs	r3, #0
 8003458:	f884 303c 	strb.w	r3, [r4, #60]	@ 0x3c
}
 800345c:	bd10      	pop	{r4, pc}
      TIM_ETR_SetConfig(htim->Instance,
 800345e:	68cb      	ldr	r3, [r1, #12]
 8003460:	684a      	ldr	r2, [r1, #4]
 8003462:	6889      	ldr	r1, [r1, #8]
 8003464:	6800      	ldr	r0, [r0, #0]
 8003466:	f7ff ff97 	bl	8003398 <TIM_ETR_SetConfig>
      htim->Instance->SMCR |= TIM_SMCR_ECE;
 800346a:	6822      	ldr	r2, [r4, #0]
 800346c:	6893      	ldr	r3, [r2, #8]
 800346e:	f443 4380 	orr.w	r3, r3, #16384	@ 0x4000
 8003472:	6093      	str	r3, [r2, #8]
  HAL_StatusTypeDef status = HAL_OK;
 8003474:	2000      	movs	r0, #0
      break;
 8003476:	e7eb      	b.n	8003450 <HAL_TIM_ConfigClockSource+0x9e>
      TIM_TI2_ConfigInputStage(htim->Instance,
 8003478:	68ca      	ldr	r2, [r1, #12]
 800347a:	6849      	ldr	r1, [r1, #4]
 800347c:	6800      	ldr	r0, [r0, #0]
 800347e:	f7ff fd70 	bl	8002f62 <TIM_TI2_ConfigInputStage>
      TIM_ITRx_SetConfig(htim->Instance, TIM_CLOCKSOURCE_TI2);
 8003482:	2160      	movs	r1, #96	@ 0x60
 8003484:	6820      	ldr	r0, [r4, #0]
 8003486:	f7ff fd80 	bl	8002f8a <TIM_ITRx_SetConfig>
  HAL_StatusTypeDef status = HAL_OK;
 800348a:	2000      	movs	r0, #0
      break;
 800348c:	e7e0      	b.n	8003450 <HAL_TIM_ConfigClockSource+0x9e>
      TIM_TI1_ConfigInputStage(htim->Instance,
 800348e:	68ca      	ldr	r2, [r1, #12]
 8003490:	6849      	ldr	r1, [r1, #4]
 8003492:	6800      	ldr	r0, [r0, #0]
 8003494:	f7ff fd52 	bl	8002f3c <TIM_TI1_ConfigInputStage>
      TIM_ITRx_SetConfig(htim->Instance, TIM_CLOCKSOURCE_TI1ED);
 8003498:	2140      	movs	r1, #64	@ 0x40
 800349a:	6820      	ldr	r0, [r4, #0]
 800349c:	f7ff fd75 	bl	8002f8a <TIM_ITRx_SetConfig>
  HAL_StatusTypeDef status = HAL_OK;
 80034a0:	2000      	movs	r0, #0
      break;
 80034a2:	e7d5      	b.n	8003450 <HAL_TIM_ConfigClockSource+0x9e>
  switch (sClockSourceConfig->ClockSource)
 80034a4:	2000      	movs	r0, #0
 80034a6:	e7d3      	b.n	8003450 <HAL_TIM_ConfigClockSource+0x9e>
      status = HAL_ERROR;
 80034a8:	2001      	movs	r0, #1
 80034aa:	e7d1      	b.n	8003450 <HAL_TIM_ConfigClockSource+0x9e>
  __HAL_LOCK(htim);
 80034ac:	2002      	movs	r0, #2
}
 80034ae:	4770      	bx	lr

080034b0 <TIM_CCxChannelCmd>:

  /* Check the parameters */
  assert_param(IS_TIM_CC1_INSTANCE(TIMx));
  assert_param(IS_TIM_CHANNELS(Channel));

  tmp = TIM_CCER_CC1E << (Channel & 0x1FU); /* 0x1FU = 31 bits max shift */
 80034b0:	f001 011f 	and.w	r1, r1, #31
 80034b4:	f04f 0c01 	mov.w	ip, #1
 80034b8:	fa0c fc01 	lsl.w	ip, ip, r1

  /* Reset the CCxE Bit */
  TIMx->CCER &= ~tmp;
 80034bc:	6a03      	ldr	r3, [r0, #32]
 80034be:	ea23 030c 	bic.w	r3, r3, ip
 80034c2:	6203      	str	r3, [r0, #32]

  /* Set or reset the CCxE Bit */
  TIMx->CCER |= (uint32_t)(ChannelState << (Channel & 0x1FU)); /* 0x1FU = 31 bits max shift */
 80034c4:	6a03      	ldr	r3, [r0, #32]
 80034c6:	408a      	lsls	r2, r1
 80034c8:	4313      	orrs	r3, r2
 80034ca:	6203      	str	r3, [r0, #32]
}
 80034cc:	4770      	bx	lr
	...

080034d0 <HAL_TIM_PWM_Start>:
{
 80034d0:	b510      	push	{r4, lr}
 80034d2:	4604      	mov	r4, r0
  if (TIM_CHANNEL_STATE_GET(htim, Channel) != HAL_TIM_CHANNEL_STATE_READY)
 80034d4:	4608      	mov	r0, r1
 80034d6:	bb89      	cbnz	r1, 800353c <HAL_TIM_PWM_Start+0x6c>
 80034d8:	f894 303e 	ldrb.w	r3, [r4, #62]	@ 0x3e
 80034dc:	3b01      	subs	r3, #1
 80034de:	bf18      	it	ne
 80034e0:	2301      	movne	r3, #1
 80034e2:	2b00      	cmp	r3, #0
 80034e4:	d160      	bne.n	80035a8 <HAL_TIM_PWM_Start+0xd8>
  TIM_CHANNEL_STATE_SET(htim, Channel, HAL_TIM_CHANNEL_STATE_BUSY);
 80034e6:	2800      	cmp	r0, #0
 80034e8:	d13e      	bne.n	8003568 <HAL_TIM_PWM_Start+0x98>
 80034ea:	2302      	movs	r3, #2
 80034ec:	f884 303e 	strb.w	r3, [r4, #62]	@ 0x3e
  TIM_CCxChannelCmd(htim->Instance, Channel, TIM_CCx_ENABLE);
 80034f0:	2201      	movs	r2, #1
 80034f2:	4601      	mov	r1, r0
 80034f4:	6820      	ldr	r0, [r4, #0]
 80034f6:	f7ff ffdb 	bl	80034b0 <TIM_CCxChannelCmd>
  if (IS_TIM_BREAK_INSTANCE(htim->Instance) != RESET)
 80034fa:	6823      	ldr	r3, [r4, #0]
 80034fc:	4a2c      	ldr	r2, [pc, #176]	@ (80035b0 <HAL_TIM_PWM_Start+0xe0>)
 80034fe:	4293      	cmp	r3, r2
 8003500:	d042      	beq.n	8003588 <HAL_TIM_PWM_Start+0xb8>
  if (IS_TIM_SLAVE_INSTANCE(htim->Instance))
 8003502:	6823      	ldr	r3, [r4, #0]
 8003504:	4a2a      	ldr	r2, [pc, #168]	@ (80035b0 <HAL_TIM_PWM_Start+0xe0>)
 8003506:	4293      	cmp	r3, r2
 8003508:	d043      	beq.n	8003592 <HAL_TIM_PWM_Start+0xc2>
 800350a:	f1b3 4f80 	cmp.w	r3, #1073741824	@ 0x40000000
 800350e:	d040      	beq.n	8003592 <HAL_TIM_PWM_Start+0xc2>
 8003510:	f5a2 427c 	sub.w	r2, r2, #64512	@ 0xfc00
 8003514:	4293      	cmp	r3, r2
 8003516:	d03c      	beq.n	8003592 <HAL_TIM_PWM_Start+0xc2>
 8003518:	f502 6280 	add.w	r2, r2, #1024	@ 0x400
 800351c:	4293      	cmp	r3, r2
 800351e:	d038      	beq.n	8003592 <HAL_TIM_PWM_Start+0xc2>
 8003520:	f502 6280 	add.w	r2, r2, #1024	@ 0x400
 8003524:	4293      	cmp	r3, r2
 8003526:	d034      	beq.n	8003592 <HAL_TIM_PWM_Start+0xc2>
 8003528:	f502 329a 	add.w	r2, r2, #78848	@ 0x13400
 800352c:	4293      	cmp	r3, r2
 800352e:	d030      	beq.n	8003592 <HAL_TIM_PWM_Start+0xc2>
    __HAL_TIM_ENABLE(htim);
 8003530:	681a      	ldr	r2, [r3, #0]
 8003532:	f042 0201 	orr.w	r2, r2, #1
 8003536:	601a      	str	r2, [r3, #0]
  return HAL_OK;
 8003538:	2000      	movs	r0, #0
 800353a:	e034      	b.n	80035a6 <HAL_TIM_PWM_Start+0xd6>
  if (TIM_CHANNEL_STATE_GET(htim, Channel) != HAL_TIM_CHANNEL_STATE_READY)
 800353c:	2904      	cmp	r1, #4
 800353e:	d007      	beq.n	8003550 <HAL_TIM_PWM_Start+0x80>
 8003540:	2908      	cmp	r1, #8
 8003542:	d00b      	beq.n	800355c <HAL_TIM_PWM_Start+0x8c>
 8003544:	f894 3041 	ldrb.w	r3, [r4, #65]	@ 0x41
 8003548:	3b01      	subs	r3, #1
 800354a:	bf18      	it	ne
 800354c:	2301      	movne	r3, #1
 800354e:	e7c8      	b.n	80034e2 <HAL_TIM_PWM_Start+0x12>
 8003550:	f894 303f 	ldrb.w	r3, [r4, #63]	@ 0x3f
 8003554:	3b01      	subs	r3, #1
 8003556:	bf18      	it	ne
 8003558:	2301      	movne	r3, #1
 800355a:	e7c2      	b.n	80034e2 <HAL_TIM_PWM_Start+0x12>
 800355c:	f894 3040 	ldrb.w	r3, [r4, #64]	@ 0x40
 8003560:	3b01      	subs	r3, #1
 8003562:	bf18      	it	ne
 8003564:	2301      	movne	r3, #1
 8003566:	e7bc      	b.n	80034e2 <HAL_TIM_PWM_Start+0x12>
  TIM_CHANNEL_STATE_SET(htim, Channel, HAL_TIM_CHANNEL_STATE_BUSY);
 8003568:	2804      	cmp	r0, #4
 800356a:	d005      	beq.n	8003578 <HAL_TIM_PWM_Start+0xa8>
 800356c:	2808      	cmp	r0, #8
 800356e:	d007      	beq.n	8003580 <HAL_TIM_PWM_Start+0xb0>
 8003570:	2302      	movs	r3, #2
 8003572:	f884 3041 	strb.w	r3, [r4, #65]	@ 0x41
 8003576:	e7bb      	b.n	80034f0 <HAL_TIM_PWM_Start+0x20>
 8003578:	2302      	movs	r3, #2
 800357a:	f884 303f 	strb.w	r3, [r4, #63]	@ 0x3f
 800357e:	e7b7      	b.n	80034f0 <HAL_TIM_PWM_Start+0x20>
 8003580:	2302      	movs	r3, #2
 8003582:	f884 3040 	strb.w	r3, [r4, #64]	@ 0x40
 8003586:	e7b3      	b.n	80034f0 <HAL_TIM_PWM_Start+0x20>
    __HAL_TIM_MOE_ENABLE(htim);
 8003588:	6c5a      	ldr	r2, [r3, #68]	@ 0x44
 800358a:	f442 4200 	orr.w	r2, r2, #32768	@ 0x8000
 800358e:	645a      	str	r2, [r3, #68]	@ 0x44
 8003590:	e7b7      	b.n	8003502 <HAL_TIM_PWM_Start+0x32>
    tmpsmcr = htim->Instance->SMCR & TIM_SMCR_SMS;
 8003592:	689a      	ldr	r2, [r3, #8]
 8003594:	f002 0207 	and.w	r2, r2, #7
    if (!IS_TIM_SLAVEMODE_TRIGGER_ENABLED(tmpsmcr))
 8003598:	2a06      	cmp	r2, #6
 800359a:	d007      	beq.n	80035ac <HAL_TIM_PWM_Start+0xdc>
      __HAL_TIM_ENABLE(htim);
 800359c:	681a      	ldr	r2, [r3, #0]
 800359e:	f042 0201 	orr.w	r2, r2, #1
 80035a2:	601a      	str	r2, [r3, #0]
  return HAL_OK;
 80035a4:	2000      	movs	r0, #0
}
 80035a6:	bd10      	pop	{r4, pc}
    return HAL_ERROR;
 80035a8:	2001      	movs	r0, #1
 80035aa:	e7fc      	b.n	80035a6 <HAL_TIM_PWM_Start+0xd6>
  return HAL_OK;
 80035ac:	2000      	movs	r0, #0
 80035ae:	e7fa      	b.n	80035a6 <HAL_TIM_PWM_Start+0xd6>
 80035b0:	40010000 	.word	0x40010000

080035b4 <HAL_TIMEx_MasterConfigSynchronization>:
  assert_param(IS_TIM_MASTER_INSTANCE(htim->Instance));
  assert_param(IS_TIM_TRGO_SOURCE(sMasterConfig->MasterOutputTrigger));
  assert_param(IS_TIM_MSM_STATE(sMasterConfig->MasterSlaveMode));

  /* Check input state */
  __HAL_LOCK(htim);
 80035b4:	f890 203c 	ldrb.w	r2, [r0, #60]	@ 0x3c
 80035b8:	2a01      	cmp	r2, #1
 80035ba:	d035      	beq.n	8003628 <HAL_TIMEx_MasterConfigSynchronization+0x74>
{
 80035bc:	b410      	push	{r4}
 80035be:	4603      	mov	r3, r0
  __HAL_LOCK(htim);
 80035c0:	2201      	movs	r2, #1
 80035c2:	f880 203c 	strb.w	r2, [r0, #60]	@ 0x3c

  /* Change the handler state */
  htim->State = HAL_TIM_STATE_BUSY;
 80035c6:	2202      	movs	r2, #2
 80035c8:	f880 203d 	strb.w	r2, [r0, #61]	@ 0x3d

  /* Get the TIMx CR2 register value */
  tmpcr2 = htim->Instance->CR2;
 80035cc:	6802      	ldr	r2, [r0, #0]
 80035ce:	6850      	ldr	r0, [r2, #4]

  /* Get the TIMx SMCR register value */
  tmpsmcr = htim->Instance->SMCR;
 80035d0:	6894      	ldr	r4, [r2, #8]

  /* Reset the MMS Bits */
  tmpcr2 &= ~TIM_CR2_MMS;
 80035d2:	f020 0c70 	bic.w	ip, r0, #112	@ 0x70
  /* Select the TRGO source */
  tmpcr2 |=  sMasterConfig->MasterOutputTrigger;
 80035d6:	6808      	ldr	r0, [r1, #0]
 80035d8:	ea40 000c 	orr.w	r0, r0, ip

  /* Update TIMx CR2 */
  htim->Instance->CR2 = tmpcr2;
 80035dc:	6050      	str	r0, [r2, #4]

  if (IS_TIM_SLAVE_INSTANCE(htim->Instance))
 80035de:	681a      	ldr	r2, [r3, #0]
 80035e0:	4812      	ldr	r0, [pc, #72]	@ (800362c <HAL_TIMEx_MasterConfigSynchronization+0x78>)
 80035e2:	4282      	cmp	r2, r0
 80035e4:	d012      	beq.n	800360c <HAL_TIMEx_MasterConfigSynchronization+0x58>
 80035e6:	f1b2 4f80 	cmp.w	r2, #1073741824	@ 0x40000000
 80035ea:	d00f      	beq.n	800360c <HAL_TIMEx_MasterConfigSynchronization+0x58>
 80035ec:	f5a0 407c 	sub.w	r0, r0, #64512	@ 0xfc00
 80035f0:	4282      	cmp	r2, r0
 80035f2:	d00b      	beq.n	800360c <HAL_TIMEx_MasterConfigSynchronization+0x58>
 80035f4:	f500 6080 	add.w	r0, r0, #1024	@ 0x400
 80035f8:	4282      	cmp	r2, r0
 80035fa:	d007      	beq.n	800360c <HAL_TIMEx_MasterConfigSynchronization+0x58>
 80035fc:	f500 6080 	add.w	r0, r0, #1024	@ 0x400
 8003600:	4282      	cmp	r2, r0
 8003602:	d003      	beq.n	800360c <HAL_TIMEx_MasterConfigSynchronization+0x58>
 8003604:	f500 309a 	add.w	r0, r0, #78848	@ 0x13400
 8003608:	4282      	cmp	r2, r0
 800360a:	d104      	bne.n	8003616 <HAL_TIMEx_MasterConfigSynchronization+0x62>
  {
    /* Reset the MSM Bit */
    tmpsmcr &= ~TIM_SMCR_MSM;
 800360c:	f024 0480 	bic.w	r4, r4, #128	@ 0x80
    /* Set master mode */
    tmpsmcr |= sMasterConfig->MasterSlaveMode;
 8003610:	6849      	ldr	r1, [r1, #4]
 8003612:	4321      	orrs	r1, r4

    /* Update TIMx SMCR */
    htim->Instance->SMCR = tmpsmcr;
 8003614:	6091      	str	r1, [r2, #8]
  }

  /* Change the htim state */
  htim->State = HAL_TIM_STATE_READY;
 8003616:	2201      	movs	r2, #1
 8003618:	f883 203d 	strb.w	r2, [r3, #61]	@ 0x3d

  __HAL_UNLOCK(htim);
 800361c:	2000      	movs	r0, #0
 800361e:	f883 003c 	strb.w	r0, [r3, #60]	@ 0x3c

  return HAL_OK;
}
 8003622:	f85d 4b04 	ldr.w	r4, [sp], #4
 8003626:	4770      	bx	lr
  __HAL_LOCK(htim);
 8003628:	2002      	movs	r0, #2
}
 800362a:	4770      	bx	lr
 800362c:	40010000 	.word	0x40010000

08003630 <HAL_TIMEx_ConfigBreakDeadTime>:
  *         interrupt can be enabled by calling the @ref __HAL_TIM_ENABLE_IT macro.
  * @retval HAL status
  */
HAL_StatusTypeDef HAL_TIMEx_ConfigBreakDeadTime(TIM_HandleTypeDef *htim,
                                                const TIM_BreakDeadTimeConfigTypeDef *sBreakDeadTimeConfig)
{
 8003630:	4602      	mov	r2, r0
  assert_param(IS_TIM_BREAK_STATE(sBreakDeadTimeConfig->BreakState));
  assert_param(IS_TIM_BREAK_POLARITY(sBreakDeadTimeConfig->BreakPolarity));
  assert_param(IS_TIM_AUTOMATIC_OUTPUT_STATE(sBreakDeadTimeConfig->AutomaticOutput));

  /* Check input state */
  __HAL_LOCK(htim);
 8003632:	f890 303c 	ldrb.w	r3, [r0, #60]	@ 0x3c
 8003636:	2b01      	cmp	r3, #1
 8003638:	d021      	beq.n	800367e <HAL_TIMEx_ConfigBreakDeadTime+0x4e>
 800363a:	2301      	movs	r3, #1
 800363c:	f880 303c 	strb.w	r3, [r0, #60]	@ 0x3c

  /* Set the Lock level, the Break enable Bit and the Polarity, the OSSR State,
     the OSSI State, the dead time value and the Automatic Output Enable Bit */

  /* Set the BDTR bits */
  MODIFY_REG(tmpbdtr, TIM_BDTR_DTG, sBreakDeadTimeConfig->DeadTime);
 8003640:	68cb      	ldr	r3, [r1, #12]
  MODIFY_REG(tmpbdtr, TIM_BDTR_LOCK, sBreakDeadTimeConfig->LockLevel);
 8003642:	f423 7340 	bic.w	r3, r3, #768	@ 0x300
 8003646:	6888      	ldr	r0, [r1, #8]
 8003648:	4303      	orrs	r3, r0
  MODIFY_REG(tmpbdtr, TIM_BDTR_OSSI, sBreakDeadTimeConfig->OffStateIDLEMode);
 800364a:	f423 6380 	bic.w	r3, r3, #1024	@ 0x400
 800364e:	6848      	ldr	r0, [r1, #4]
 8003650:	4303      	orrs	r3, r0
  MODIFY_REG(tmpbdtr, TIM_BDTR_OSSR, sBreakDeadTimeConfig->OffStateRunMode);
 8003652:	f423 6300 	bic.w	r3, r3, #2048	@ 0x800
 8003656:	6808      	ldr	r0, [r1, #0]
 8003658:	4303      	orrs	r3, r0
  MODIFY_REG(tmpbdtr, TIM_BDTR_BKE, sBreakDeadTimeConfig->BreakState);
 800365a:	f423 5380 	bic.w	r3, r3, #4096	@ 0x1000
 800365e:	6908      	ldr	r0, [r1, #16]
 8003660:	4303      	orrs	r3, r0
  MODIFY_REG(tmpbdtr, TIM_BDTR_BKP, sBreakDeadTimeConfig->BreakPolarity);
 8003662:	f423 5300 	bic.w	r3, r3, #8192	@ 0x2000
 8003666:	6948      	ldr	r0, [r1, #20]
 8003668:	4303      	orrs	r3, r0
  MODIFY_REG(tmpbdtr, TIM_BDTR_AOE, sBreakDeadTimeConfig->AutomaticOutput);
 800366a:	f423 4380 	bic.w	r3, r3, #16384	@ 0x4000
 800366e:	69c9      	ldr	r1, [r1, #28]
 8003670:	430b      	orrs	r3, r1


  /* Set TIMx_BDTR */
  htim->Instance->BDTR = tmpbdtr;
 8003672:	6811      	ldr	r1, [r2, #0]
 8003674:	644b      	str	r3, [r1, #68]	@ 0x44

  __HAL_UNLOCK(htim);
 8003676:	2000      	movs	r0, #0
 8003678:	f882 003c 	strb.w	r0, [r2, #60]	@ 0x3c

  return HAL_OK;
 800367c:	4770      	bx	lr
  __HAL_LOCK(htim);
 800367e:	2002      	movs	r0, #2
}
 8003680:	4770      	bx	lr

08003682 <HAL_TIMEx_CommutCallback>:
  UNUSED(htim);

  /* NOTE : This function should not be modified, when the callback is needed,
            the HAL_TIMEx_CommutCallback could be implemented in the user file
   */
}
 8003682:	4770      	bx	lr

08003684 <HAL_TIMEx_BreakCallback>:
  UNUSED(htim);

  /* NOTE : This function should not be modified, when the callback is needed,
            the HAL_TIMEx_BreakCallback could be implemented in the user file
   */
}
 8003684:	4770      	bx	lr

08003686 <UART_EndRxTransfer>:
  * @retval None
  */
static void UART_EndRxTransfer(UART_HandleTypeDef *huart)
{
  /* Disable RXNE, PE and ERR (Frame error, noise error, overrun error) interrupts */
  ATOMIC_CLEAR_BIT(huart->Instance->CR1, (USART_CR1_RXNEIE | USART_CR1_PEIE));
 8003686:	6802      	ldr	r2, [r0, #0]
   __ASM volatile ("ldrex %0, %1" : "=r" (result) : "Q" (*addr) );
 8003688:	f102 030c 	add.w	r3, r2, #12
 800368c:	e853 3f00 	ldrex	r3, [r3]
 8003690:	f423 7390 	bic.w	r3, r3, #288	@ 0x120
   __ASM volatile ("strex %0, %2, %1" : "=&r" (result), "=Q" (*addr) : "r" (value) );
 8003694:	320c      	adds	r2, #12
 8003696:	e842 3100 	strex	r1, r3, [r2]
 800369a:	2900      	cmp	r1, #0
 800369c:	d1f3      	bne.n	8003686 <UART_EndRxTransfer>
  ATOMIC_CLEAR_BIT(huart->Instance->CR3, USART_CR3_EIE);
 800369e:	6802      	ldr	r2, [r0, #0]
   __ASM volatile ("ldrex %0, %1" : "=r" (result) : "Q" (*addr) );
 80036a0:	f102 0314 	add.w	r3, r2, #20
 80036a4:	e853 3f00 	ldrex	r3, [r3]
 80036a8:	f023 0301 	bic.w	r3, r3, #1
   __ASM volatile ("strex %0, %2, %1" : "=&r" (result), "=Q" (*addr) : "r" (value) );
 80036ac:	3214      	adds	r2, #20
 80036ae:	e842 3100 	strex	r1, r3, [r2]
 80036b2:	2900      	cmp	r1, #0
 80036b4:	d1f3      	bne.n	800369e <UART_EndRxTransfer+0x18>

  /* In case of reception waiting for IDLE event, disable also the IDLE IE interrupt source */
  if (huart->ReceptionType == HAL_UART_RECEPTION_TOIDLE)
 80036b6:	6b03      	ldr	r3, [r0, #48]	@ 0x30
 80036b8:	2b01      	cmp	r3, #1
 80036ba:	d005      	beq.n	80036c8 <UART_EndRxTransfer+0x42>
  {
    ATOMIC_CLEAR_BIT(huart->Instance->CR1, USART_CR1_IDLEIE);
  }

  /* At end of Rx process, restore huart->RxState to Ready */
  huart->RxState = HAL_UART_STATE_READY;
 80036bc:	2320      	movs	r3, #32
 80036be:	f880 3042 	strb.w	r3, [r0, #66]	@ 0x42
  huart->ReceptionType = HAL_UART_RECEPTION_STANDARD;
 80036c2:	2300      	movs	r3, #0
 80036c4:	6303      	str	r3, [r0, #48]	@ 0x30
}
 80036c6:	4770      	bx	lr
    ATOMIC_CLEAR_BIT(huart->Instance->CR1, USART_CR1_IDLEIE);
 80036c8:	6802      	ldr	r2, [r0, #0]
   __ASM volatile ("ldrex %0, %1" : "=r" (result) : "Q" (*addr) );
 80036ca:	f102 030c 	add.w	r3, r2, #12
 80036ce:	e853 3f00 	ldrex	r3, [r3]
 80036d2:	f023 0310 	bic.w	r3, r3, #16
   __ASM volatile ("strex %0, %2, %1" : "=&r" (result), "=Q" (*addr) : "r" (value) );
 80036d6:	320c      	adds	r2, #12
 80036d8:	e842 3100 	strex	r1, r3, [r2]
 80036dc:	2900      	cmp	r1, #0
 80036de:	d1f3      	bne.n	80036c8 <UART_EndRxTransfer+0x42>
 80036e0:	e7ec      	b.n	80036bc <UART_EndRxTransfer+0x36>
	...

080036e4 <UART_SetConfig>:
  * @param  huart  Pointer to a UART_HandleTypeDef structure that contains
  *                the configuration information for the specified UART module.
  * @retval None
  */
static void UART_SetConfig(UART_HandleTypeDef *huart)
{
 80036e4:	b510      	push	{r4, lr}
 80036e6:	4604      	mov	r4, r0
  assert_param(IS_UART_MODE(huart->Init.Mode));

  /*-------------------------- USART CR2 Configuration -----------------------*/
  /* Configure the UART Stop Bits: Set STOP[13:12] bits
     according to huart->Init.StopBits value */
  MODIFY_REG(huart->Instance->CR2, USART_CR2_STOP, huart->Init.StopBits);
 80036e8:	6802      	ldr	r2, [r0, #0]
 80036ea:	6913      	ldr	r3, [r2, #16]
 80036ec:	f423 5340 	bic.w	r3, r3, #12288	@ 0x3000
 80036f0:	68c1      	ldr	r1, [r0, #12]
 80036f2:	430b      	orrs	r3, r1
 80036f4:	6113      	str	r3, [r2, #16]
     Set the M bits according to huart->Init.WordLength value
     Set PCE and PS bits according to huart->Init.Parity value
     Set TE and RE bits according to huart->Init.Mode value
     Set OVER8 bit according to huart->Init.OverSampling value */

  tmpreg = (uint32_t)huart->Init.WordLength | huart->Init.Parity | huart->Init.Mode | huart->Init.OverSampling;
 80036f6:	6883      	ldr	r3, [r0, #8]
 80036f8:	6902      	ldr	r2, [r0, #16]
 80036fa:	431a      	orrs	r2, r3
 80036fc:	6943      	ldr	r3, [r0, #20]
 80036fe:	431a      	orrs	r2, r3
 8003700:	69c3      	ldr	r3, [r0, #28]
 8003702:	431a      	orrs	r2, r3
  MODIFY_REG(huart->Instance->CR1,
 8003704:	6801      	ldr	r1, [r0, #0]
 8003706:	68cb      	ldr	r3, [r1, #12]
 8003708:	f423 4316 	bic.w	r3, r3, #38400	@ 0x9600
 800370c:	f023 030c 	bic.w	r3, r3, #12
 8003710:	4313      	orrs	r3, r2
 8003712:	60cb      	str	r3, [r1, #12]
             (uint32_t)(USART_CR1_M | USART_CR1_PCE | USART_CR1_PS | USART_CR1_TE | USART_CR1_RE | USART_CR1_OVER8),
             tmpreg);

  /*-------------------------- USART CR3 Configuration -----------------------*/
  /* Configure the UART HFC: Set CTSE and RTSE bits according to huart->Init.HwFlowCtl value */
  MODIFY_REG(huart->Instance->CR3, (USART_CR3_RTSE | USART_CR3_CTSE), huart->Init.HwFlowCtl);
 8003714:	6802      	ldr	r2, [r0, #0]
 8003716:	6953      	ldr	r3, [r2, #20]
 8003718:	f423 7340 	bic.w	r3, r3, #768	@ 0x300
 800371c:	6981      	ldr	r1, [r0, #24]
 800371e:	430b      	orrs	r3, r1
 8003720:	6153      	str	r3, [r2, #20]
    if ((huart->Instance == USART1) || (huart->Instance == USART6) || (huart->Instance == UART9) || (huart->Instance == UART10))
    {
      pclk = HAL_RCC_GetPCLK2Freq();
    }
#elif defined(USART6)
    if ((huart->Instance == USART1) || (huart->Instance == USART6))
 8003722:	6803      	ldr	r3, [r0, #0]
 8003724:	4a31      	ldr	r2, [pc, #196]	@ (80037ec <UART_SetConfig+0x108>)
 8003726:	4293      	cmp	r3, r2
 8003728:	d006      	beq.n	8003738 <UART_SetConfig+0x54>
 800372a:	f502 6280 	add.w	r2, r2, #1024	@ 0x400
 800372e:	4293      	cmp	r3, r2
 8003730:	d002      	beq.n	8003738 <UART_SetConfig+0x54>
      pclk = HAL_RCC_GetPCLK2Freq();
    }
#endif /* USART6 */
    else
    {
      pclk = HAL_RCC_GetPCLK1Freq();
 8003732:	f7ff fb67 	bl	8002e04 <HAL_RCC_GetPCLK1Freq>
 8003736:	e001      	b.n	800373c <UART_SetConfig+0x58>
      pclk = HAL_RCC_GetPCLK2Freq();
 8003738:	f7ff fb74 	bl	8002e24 <HAL_RCC_GetPCLK2Freq>
    }
  /*-------------------------- USART BRR Configuration ---------------------*/
  if (huart->Init.OverSampling == UART_OVERSAMPLING_8)
 800373c:	69e3      	ldr	r3, [r4, #28]
 800373e:	f5b3 4f00 	cmp.w	r3, #32768	@ 0x8000
 8003742:	d029      	beq.n	8003798 <UART_SetConfig+0xb4>
  {
    huart->Instance->BRR = UART_BRR_SAMPLING8(pclk, huart->Init.BaudRate);
  }
  else
  {
    huart->Instance->BRR = UART_BRR_SAMPLING16(pclk, huart->Init.BaudRate);
 8003744:	2100      	movs	r1, #0
 8003746:	1803      	adds	r3, r0, r0
 8003748:	4149      	adcs	r1, r1
 800374a:	181b      	adds	r3, r3, r0
 800374c:	f141 0100 	adc.w	r1, r1, #0
 8003750:	00c9      	lsls	r1, r1, #3
 8003752:	ea41 7153 	orr.w	r1, r1, r3, lsr #29
 8003756:	00db      	lsls	r3, r3, #3
 8003758:	1818      	adds	r0, r3, r0
 800375a:	6863      	ldr	r3, [r4, #4]
 800375c:	ea4f 0283 	mov.w	r2, r3, lsl #2
 8003760:	ea4f 7393 	mov.w	r3, r3, lsr #30
 8003764:	f141 0100 	adc.w	r1, r1, #0
 8003768:	f7fd fa56 	bl	8000c18 <__aeabi_uldivmod>
 800376c:	4a20      	ldr	r2, [pc, #128]	@ (80037f0 <UART_SetConfig+0x10c>)
 800376e:	fba2 3100 	umull	r3, r1, r2, r0
 8003772:	0949      	lsrs	r1, r1, #5
 8003774:	2364      	movs	r3, #100	@ 0x64
 8003776:	fb03 0311 	mls	r3, r3, r1, r0
 800377a:	011b      	lsls	r3, r3, #4
 800377c:	3332      	adds	r3, #50	@ 0x32
 800377e:	fba2 2303 	umull	r2, r3, r2, r3
 8003782:	095b      	lsrs	r3, r3, #5
 8003784:	f003 02f0 	and.w	r2, r3, #240	@ 0xf0
 8003788:	eb02 1201 	add.w	r2, r2, r1, lsl #4
 800378c:	f003 030f 	and.w	r3, r3, #15
 8003790:	6821      	ldr	r1, [r4, #0]
 8003792:	4413      	add	r3, r2
 8003794:	608b      	str	r3, [r1, #8]
  }
}
 8003796:	bd10      	pop	{r4, pc}
    huart->Instance->BRR = UART_BRR_SAMPLING8(pclk, huart->Init.BaudRate);
 8003798:	2300      	movs	r3, #0
 800379a:	1802      	adds	r2, r0, r0
 800379c:	eb43 0103 	adc.w	r1, r3, r3
 80037a0:	1812      	adds	r2, r2, r0
 80037a2:	f141 0100 	adc.w	r1, r1, #0
 80037a6:	00c9      	lsls	r1, r1, #3
 80037a8:	ea41 7152 	orr.w	r1, r1, r2, lsr #29
 80037ac:	00d2      	lsls	r2, r2, #3
 80037ae:	1810      	adds	r0, r2, r0
 80037b0:	f141 0100 	adc.w	r1, r1, #0
 80037b4:	6862      	ldr	r2, [r4, #4]
 80037b6:	1892      	adds	r2, r2, r2
 80037b8:	415b      	adcs	r3, r3
 80037ba:	f7fd fa2d 	bl	8000c18 <__aeabi_uldivmod>
 80037be:	4a0c      	ldr	r2, [pc, #48]	@ (80037f0 <UART_SetConfig+0x10c>)
 80037c0:	fba2 3100 	umull	r3, r1, r2, r0
 80037c4:	0949      	lsrs	r1, r1, #5
 80037c6:	2364      	movs	r3, #100	@ 0x64
 80037c8:	fb03 0311 	mls	r3, r3, r1, r0
 80037cc:	00db      	lsls	r3, r3, #3
 80037ce:	3332      	adds	r3, #50	@ 0x32
 80037d0:	fba2 2303 	umull	r2, r3, r2, r3
 80037d4:	095b      	lsrs	r3, r3, #5
 80037d6:	005a      	lsls	r2, r3, #1
 80037d8:	f402 72f8 	and.w	r2, r2, #496	@ 0x1f0
 80037dc:	eb02 1201 	add.w	r2, r2, r1, lsl #4
 80037e0:	f003 0307 	and.w	r3, r3, #7
 80037e4:	6821      	ldr	r1, [r4, #0]
 80037e6:	4413      	add	r3, r2
 80037e8:	608b      	str	r3, [r1, #8]
 80037ea:	e7d4      	b.n	8003796 <UART_SetConfig+0xb2>
 80037ec:	40011000 	.word	0x40011000
 80037f0:	51eb851f 	.word	0x51eb851f

080037f4 <UART_WaitOnFlagUntilTimeout>:
{
 80037f4:	e92d 43f0 	stmdb	sp!, {r4, r5, r6, r7, r8, r9, lr}
 80037f8:	b083      	sub	sp, #12
 80037fa:	4605      	mov	r5, r0
 80037fc:	460e      	mov	r6, r1
 80037fe:	4617      	mov	r7, r2
 8003800:	4699      	mov	r9, r3
 8003802:	f8dd 8028 	ldr.w	r8, [sp, #40]	@ 0x28
  while ((__HAL_UART_GET_FLAG(huart, Flag) ? SET : RESET) == Status)
 8003806:	682b      	ldr	r3, [r5, #0]
 8003808:	681c      	ldr	r4, [r3, #0]
 800380a:	ea36 0404 	bics.w	r4, r6, r4
 800380e:	bf0c      	ite	eq
 8003810:	2401      	moveq	r4, #1
 8003812:	2400      	movne	r4, #0
 8003814:	42bc      	cmp	r4, r7
 8003816:	d128      	bne.n	800386a <UART_WaitOnFlagUntilTimeout+0x76>
    if (Timeout != HAL_MAX_DELAY)
 8003818:	f1b8 3fff 	cmp.w	r8, #4294967295	@ 0xffffffff
 800381c:	d0f3      	beq.n	8003806 <UART_WaitOnFlagUntilTimeout+0x12>
      if (((HAL_GetTick() - Tickstart) > Timeout) || (Timeout == 0U))
 800381e:	f7fe f8c1 	bl	80019a4 <HAL_GetTick>
 8003822:	eba0 0009 	sub.w	r0, r0, r9
 8003826:	4540      	cmp	r0, r8
 8003828:	d823      	bhi.n	8003872 <UART_WaitOnFlagUntilTimeout+0x7e>
 800382a:	f1b8 0f00 	cmp.w	r8, #0
 800382e:	d022      	beq.n	8003876 <UART_WaitOnFlagUntilTimeout+0x82>
      if ((READ_BIT(huart->Instance->CR1, USART_CR1_RE) != 0U) && (Flag != UART_FLAG_TXE) && (Flag != UART_FLAG_TC))
 8003830:	682b      	ldr	r3, [r5, #0]
 8003832:	68da      	ldr	r2, [r3, #12]
 8003834:	f012 0f04 	tst.w	r2, #4
 8003838:	d0e5      	beq.n	8003806 <UART_WaitOnFlagUntilTimeout+0x12>
 800383a:	2e80      	cmp	r6, #128	@ 0x80
 800383c:	d0e3      	beq.n	8003806 <UART_WaitOnFlagUntilTimeout+0x12>
 800383e:	2e40      	cmp	r6, #64	@ 0x40
 8003840:	d0e1      	beq.n	8003806 <UART_WaitOnFlagUntilTimeout+0x12>
        if (__HAL_UART_GET_FLAG(huart, UART_FLAG_ORE) == SET)
 8003842:	681a      	ldr	r2, [r3, #0]
 8003844:	f012 0f08 	tst.w	r2, #8
 8003848:	d0dd      	beq.n	8003806 <UART_WaitOnFlagUntilTimeout+0x12>
          __HAL_UART_CLEAR_OREFLAG(huart);
 800384a:	2400      	movs	r4, #0
 800384c:	9401      	str	r4, [sp, #4]
 800384e:	681a      	ldr	r2, [r3, #0]
 8003850:	9201      	str	r2, [sp, #4]
 8003852:	685b      	ldr	r3, [r3, #4]
 8003854:	9301      	str	r3, [sp, #4]
 8003856:	9b01      	ldr	r3, [sp, #4]
          UART_EndRxTransfer(huart);
 8003858:	4628      	mov	r0, r5
 800385a:	f7ff ff14 	bl	8003686 <UART_EndRxTransfer>
          huart->ErrorCode = HAL_UART_ERROR_ORE;
 800385e:	2308      	movs	r3, #8
 8003860:	646b      	str	r3, [r5, #68]	@ 0x44
          __HAL_UNLOCK(huart);
 8003862:	f885 4040 	strb.w	r4, [r5, #64]	@ 0x40
          return HAL_ERROR;
 8003866:	2001      	movs	r0, #1
 8003868:	e000      	b.n	800386c <UART_WaitOnFlagUntilTimeout+0x78>
  return HAL_OK;
 800386a:	2000      	movs	r0, #0
}
 800386c:	b003      	add	sp, #12
 800386e:	e8bd 83f0 	ldmia.w	sp!, {r4, r5, r6, r7, r8, r9, pc}
        return HAL_TIMEOUT;
 8003872:	2003      	movs	r0, #3
 8003874:	e7fa      	b.n	800386c <UART_WaitOnFlagUntilTimeout+0x78>
 8003876:	2003      	movs	r0, #3
 8003878:	e7f8      	b.n	800386c <UART_WaitOnFlagUntilTimeout+0x78>

0800387a <HAL_UART_Init>:
  if (huart == NULL)
 800387a:	b360      	cbz	r0, 80038d6 <HAL_UART_Init+0x5c>
{
 800387c:	b510      	push	{r4, lr}
 800387e:	4604      	mov	r4, r0
  if (huart->gState == HAL_UART_STATE_RESET)
 8003880:	f890 3041 	ldrb.w	r3, [r0, #65]	@ 0x41
 8003884:	b313      	cbz	r3, 80038cc <HAL_UART_Init+0x52>
  huart->gState = HAL_UART_STATE_BUSY;
 8003886:	2324      	movs	r3, #36	@ 0x24
 8003888:	f884 3041 	strb.w	r3, [r4, #65]	@ 0x41
  __HAL_UART_DISABLE(huart);
 800388c:	6822      	ldr	r2, [r4, #0]
 800388e:	68d3      	ldr	r3, [r2, #12]
 8003890:	f423 5300 	bic.w	r3, r3, #8192	@ 0x2000
 8003894:	60d3      	str	r3, [r2, #12]
  UART_SetConfig(huart);
 8003896:	4620      	mov	r0, r4
 8003898:	f7ff ff24 	bl	80036e4 <UART_SetConfig>
  CLEAR_BIT(huart->Instance->CR2, (USART_CR2_LINEN | USART_CR2_CLKEN));
 800389c:	6822      	ldr	r2, [r4, #0]
 800389e:	6913      	ldr	r3, [r2, #16]
 80038a0:	f423 4390 	bic.w	r3, r3, #18432	@ 0x4800
 80038a4:	6113      	str	r3, [r2, #16]
  CLEAR_BIT(huart->Instance->CR3, (USART_CR3_SCEN | USART_CR3_HDSEL | USART_CR3_IREN));
 80038a6:	6822      	ldr	r2, [r4, #0]
 80038a8:	6953      	ldr	r3, [r2, #20]
 80038aa:	f023 032a 	bic.w	r3, r3, #42	@ 0x2a
 80038ae:	6153      	str	r3, [r2, #20]
  __HAL_UART_ENABLE(huart);
 80038b0:	6822      	ldr	r2, [r4, #0]
 80038b2:	68d3      	ldr	r3, [r2, #12]
 80038b4:	f443 5300 	orr.w	r3, r3, #8192	@ 0x2000
 80038b8:	60d3      	str	r3, [r2, #12]
  huart->ErrorCode = HAL_UART_ERROR_NONE;
 80038ba:	2000      	movs	r0, #0
 80038bc:	6460      	str	r0, [r4, #68]	@ 0x44
  huart->gState = HAL_UART_STATE_READY;
 80038be:	2320      	movs	r3, #32
 80038c0:	f884 3041 	strb.w	r3, [r4, #65]	@ 0x41
  huart->RxState = HAL_UART_STATE_READY;
 80038c4:	f884 3042 	strb.w	r3, [r4, #66]	@ 0x42
  huart->RxEventType = HAL_UART_RXEVENT_TC;
 80038c8:	6360      	str	r0, [r4, #52]	@ 0x34
}
 80038ca:	bd10      	pop	{r4, pc}
    huart->Lock = HAL_UNLOCKED;
 80038cc:	f880 3040 	strb.w	r3, [r0, #64]	@ 0x40
    HAL_UART_MspInit(huart);
 80038d0:	f000 f9f2 	bl	8003cb8 <HAL_UART_MspInit>
 80038d4:	e7d7      	b.n	8003886 <HAL_UART_Init+0xc>
    return HAL_ERROR;
 80038d6:	2001      	movs	r0, #1
}
 80038d8:	4770      	bx	lr

080038da <HAL_UART_Transmit>:
{
 80038da:	e92d 41f0 	stmdb	sp!, {r4, r5, r6, r7, r8, lr}
 80038de:	b082      	sub	sp, #8
 80038e0:	461e      	mov	r6, r3
  if (huart->gState == HAL_UART_STATE_READY)
 80038e2:	f890 3041 	ldrb.w	r3, [r0, #65]	@ 0x41
 80038e6:	2b20      	cmp	r3, #32
 80038e8:	d156      	bne.n	8003998 <HAL_UART_Transmit+0xbe>
 80038ea:	4604      	mov	r4, r0
 80038ec:	460d      	mov	r5, r1
 80038ee:	4690      	mov	r8, r2
    if ((pData == NULL) || (Size == 0U))
 80038f0:	2900      	cmp	r1, #0
 80038f2:	d055      	beq.n	80039a0 <HAL_UART_Transmit+0xc6>
 80038f4:	b90a      	cbnz	r2, 80038fa <HAL_UART_Transmit+0x20>
      return  HAL_ERROR;
 80038f6:	2001      	movs	r0, #1
 80038f8:	e04f      	b.n	800399a <HAL_UART_Transmit+0xc0>
    huart->ErrorCode = HAL_UART_ERROR_NONE;
 80038fa:	2300      	movs	r3, #0
 80038fc:	6443      	str	r3, [r0, #68]	@ 0x44
    huart->gState = HAL_UART_STATE_BUSY_TX;
 80038fe:	2321      	movs	r3, #33	@ 0x21
 8003900:	f880 3041 	strb.w	r3, [r0, #65]	@ 0x41
    tickstart = HAL_GetTick();
 8003904:	f7fe f84e 	bl	80019a4 <HAL_GetTick>
 8003908:	4607      	mov	r7, r0
    huart->TxXferSize = Size;
 800390a:	f8a4 8024 	strh.w	r8, [r4, #36]	@ 0x24
    huart->TxXferCount = Size;
 800390e:	f8a4 8026 	strh.w	r8, [r4, #38]	@ 0x26
    if ((huart->Init.WordLength == UART_WORDLENGTH_9B) && (huart->Init.Parity == UART_PARITY_NONE))
 8003912:	68a3      	ldr	r3, [r4, #8]
 8003914:	f5b3 5f80 	cmp.w	r3, #4096	@ 0x1000
 8003918:	d002      	beq.n	8003920 <HAL_UART_Transmit+0x46>
      pdata16bits = NULL;
 800391a:	f04f 0800 	mov.w	r8, #0
 800391e:	e014      	b.n	800394a <HAL_UART_Transmit+0x70>
    if ((huart->Init.WordLength == UART_WORDLENGTH_9B) && (huart->Init.Parity == UART_PARITY_NONE))
 8003920:	6923      	ldr	r3, [r4, #16]
 8003922:	b32b      	cbz	r3, 8003970 <HAL_UART_Transmit+0x96>
      pdata16bits = NULL;
 8003924:	f04f 0800 	mov.w	r8, #0
 8003928:	e00f      	b.n	800394a <HAL_UART_Transmit+0x70>
        huart->gState = HAL_UART_STATE_READY;
 800392a:	2320      	movs	r3, #32
 800392c:	f884 3041 	strb.w	r3, [r4, #65]	@ 0x41
        return HAL_TIMEOUT;
 8003930:	2003      	movs	r0, #3
 8003932:	e032      	b.n	800399a <HAL_UART_Transmit+0xc0>
        huart->Instance->DR = (uint16_t)(*pdata16bits & 0x01FFU);
 8003934:	f838 3b02 	ldrh.w	r3, [r8], #2
 8003938:	6822      	ldr	r2, [r4, #0]
 800393a:	f3c3 0308 	ubfx	r3, r3, #0, #9
 800393e:	6053      	str	r3, [r2, #4]
      huart->TxXferCount--;
 8003940:	8ce2      	ldrh	r2, [r4, #38]	@ 0x26
 8003942:	b292      	uxth	r2, r2
 8003944:	3a01      	subs	r2, #1
 8003946:	b292      	uxth	r2, r2
 8003948:	84e2      	strh	r2, [r4, #38]	@ 0x26
    while (huart->TxXferCount > 0U)
 800394a:	8ce3      	ldrh	r3, [r4, #38]	@ 0x26
 800394c:	b29b      	uxth	r3, r3
 800394e:	b193      	cbz	r3, 8003976 <HAL_UART_Transmit+0x9c>
      if (UART_WaitOnFlagUntilTimeout(huart, UART_FLAG_TXE, RESET, tickstart, Timeout) != HAL_OK)
 8003950:	9600      	str	r6, [sp, #0]
 8003952:	463b      	mov	r3, r7
 8003954:	2200      	movs	r2, #0
 8003956:	2180      	movs	r1, #128	@ 0x80
 8003958:	4620      	mov	r0, r4
 800395a:	f7ff ff4b 	bl	80037f4 <UART_WaitOnFlagUntilTimeout>
 800395e:	2800      	cmp	r0, #0
 8003960:	d1e3      	bne.n	800392a <HAL_UART_Transmit+0x50>
      if (pdata8bits == NULL)
 8003962:	2d00      	cmp	r5, #0
 8003964:	d0e6      	beq.n	8003934 <HAL_UART_Transmit+0x5a>
        huart->Instance->DR = (uint8_t)(*pdata8bits & 0xFFU);
 8003966:	f815 2b01 	ldrb.w	r2, [r5], #1
 800396a:	6823      	ldr	r3, [r4, #0]
 800396c:	605a      	str	r2, [r3, #4]
        pdata8bits++;
 800396e:	e7e7      	b.n	8003940 <HAL_UART_Transmit+0x66>
      pdata16bits = (const uint16_t *) pData;
 8003970:	46a8      	mov	r8, r5
      pdata8bits  = NULL;
 8003972:	2500      	movs	r5, #0
 8003974:	e7e9      	b.n	800394a <HAL_UART_Transmit+0x70>
    if (UART_WaitOnFlagUntilTimeout(huart, UART_FLAG_TC, RESET, tickstart, Timeout) != HAL_OK)
 8003976:	9600      	str	r6, [sp, #0]
 8003978:	463b      	mov	r3, r7
 800397a:	2200      	movs	r2, #0
 800397c:	2140      	movs	r1, #64	@ 0x40
 800397e:	4620      	mov	r0, r4
 8003980:	f7ff ff38 	bl	80037f4 <UART_WaitOnFlagUntilTimeout>
 8003984:	b918      	cbnz	r0, 800398e <HAL_UART_Transmit+0xb4>
    huart->gState = HAL_UART_STATE_READY;
 8003986:	2320      	movs	r3, #32
 8003988:	f884 3041 	strb.w	r3, [r4, #65]	@ 0x41
    return HAL_OK;
 800398c:	e005      	b.n	800399a <HAL_UART_Transmit+0xc0>
      huart->gState = HAL_UART_STATE_READY;
 800398e:	2320      	movs	r3, #32
 8003990:	f884 3041 	strb.w	r3, [r4, #65]	@ 0x41
      return HAL_TIMEOUT;
 8003994:	2003      	movs	r0, #3
 8003996:	e000      	b.n	800399a <HAL_UART_Transmit+0xc0>
    return HAL_BUSY;
 8003998:	2002      	movs	r0, #2
}
 800399a:	b002      	add	sp, #8
 800399c:	e8bd 81f0 	ldmia.w	sp!, {r4, r5, r6, r7, r8, pc}
      return  HAL_ERROR;
 80039a0:	2001      	movs	r0, #1
 80039a2:	e7fa      	b.n	800399a <HAL_UART_Transmit+0xc0>

080039a4 <NMI_Handler>:
{
  /* USER CODE BEGIN NonMaskableInt_IRQn 0 */

  /* USER CODE END NonMaskableInt_IRQn 0 */
  /* USER CODE BEGIN NonMaskableInt_IRQn 1 */
   while (1)
 80039a4:	e7fe      	b.n	80039a4 <NMI_Handler>

080039a6 <HardFault_Handler>:
void HardFault_Handler(void)
{
  /* USER CODE BEGIN HardFault_IRQn 0 */

  /* USER CODE END HardFault_IRQn 0 */
  while (1)
 80039a6:	e7fe      	b.n	80039a6 <HardFault_Handler>

080039a8 <MemManage_Handler>:
void MemManage_Handler(void)
{
  /* USER CODE BEGIN MemoryManagement_IRQn 0 */

  /* USER CODE END MemoryManagement_IRQn 0 */
  while (1)
 80039a8:	e7fe      	b.n	80039a8 <MemManage_Handler>

080039aa <BusFault_Handler>:
void BusFault_Handler(void)
{
  /* USER CODE BEGIN BusFault_IRQn 0 */

  /* USER CODE END BusFault_IRQn 0 */
  while (1)
 80039aa:	e7fe      	b.n	80039aa <BusFault_Handler>

080039ac <UsageFault_Handler>:
void UsageFault_Handler(void)
{
  /* USER CODE BEGIN UsageFault_IRQn 0 */

  /* USER CODE END UsageFault_IRQn 0 */
  while (1)
 80039ac:	e7fe      	b.n	80039ac <UsageFault_Handler>

080039ae <SVC_Handler>:

  /* USER CODE END SVCall_IRQn 0 */
  /* USER CODE BEGIN SVCall_IRQn 1 */

  /* USER CODE END SVCall_IRQn 1 */
}
 80039ae:	4770      	bx	lr

080039b0 <DebugMon_Handler>:

  /* USER CODE END DebugMonitor_IRQn 0 */
  /* USER CODE BEGIN DebugMonitor_IRQn 1 */

  /* USER CODE END DebugMonitor_IRQn 1 */
}
 80039b0:	4770      	bx	lr

080039b2 <PendSV_Handler>:

  /* USER CODE END PendSV_IRQn 0 */
  /* USER CODE BEGIN PendSV_IRQn 1 */

  /* USER CODE END PendSV_IRQn 1 */
}
 80039b2:	4770      	bx	lr

080039b4 <SysTick_Handler>:

/**
  * @brief This function handles System tick timer.
  */
void SysTick_Handler(void)
{
 80039b4:	b508      	push	{r3, lr}
  /* USER CODE BEGIN SysTick_IRQn 0 */

  /* USER CODE END SysTick_IRQn 0 */
  HAL_IncTick();
 80039b6:	f7fd ffe9 	bl	800198c <HAL_IncTick>
  /* USER CODE BEGIN SysTick_IRQn 1 */

  /* USER CODE END SysTick_IRQn 1 */
}
 80039ba:	bd08      	pop	{r3, pc}

080039bc <TIM1_BRK_TIM9_IRQHandler>:

/**
  * @brief This function handles TIM1 break interrupt and TIM9 global interrupt.
  */
void TIM1_BRK_TIM9_IRQHandler(void)
{
 80039bc:	b508      	push	{r3, lr}
  /* USER CODE BEGIN TIM1_BRK_TIM9_IRQn 0 */

  /* USER CODE END TIM1_BRK_TIM9_IRQn 0 */
  HAL_TIM_IRQHandler(&htim1);
 80039be:	4802      	ldr	r0, [pc, #8]	@ (80039c8 <TIM1_BRK_TIM9_IRQHandler+0xc>)
 80039c0:	f7ff faf1 	bl	8002fa6 <HAL_TIM_IRQHandler>
  /* USER CODE BEGIN TIM1_BRK_TIM9_IRQn 1 */

  /* USER CODE END TIM1_BRK_TIM9_IRQn 1 */
}
 80039c4:	bd08      	pop	{r3, pc}
 80039c6:	bf00      	nop
 80039c8:	20000268 	.word	0x20000268

080039cc <TIM1_UP_TIM10_IRQHandler>:

/**
  * @brief This function handles TIM1 update interrupt and TIM10 global interrupt.
  */
void TIM1_UP_TIM10_IRQHandler(void)
{
 80039cc:	b508      	push	{r3, lr}
  /* USER CODE BEGIN TIM1_UP_TIM10_IRQn 0 */

  /* USER CODE END TIM1_UP_TIM10_IRQn 0 */
  HAL_TIM_IRQHandler(&htim1);
 80039ce:	4802      	ldr	r0, [pc, #8]	@ (80039d8 <TIM1_UP_TIM10_IRQHandler+0xc>)
 80039d0:	f7ff fae9 	bl	8002fa6 <HAL_TIM_IRQHandler>
  /* USER CODE BEGIN TIM1_UP_TIM10_IRQn 1 */

  /* USER CODE END TIM1_UP_TIM10_IRQn 1 */
}
 80039d4:	bd08      	pop	{r3, pc}
 80039d6:	bf00      	nop
 80039d8:	20000268 	.word	0x20000268

080039dc <TIM1_TRG_COM_TIM11_IRQHandler>:

/**
  * @brief This function handles TIM1 trigger and commutation interrupts and TIM11 global interrupt.
  */
void TIM1_TRG_COM_TIM11_IRQHandler(void)
{
 80039dc:	b508      	push	{r3, lr}
  /* USER CODE BEGIN TIM1_TRG_COM_TIM11_IRQn 0 */

  /* USER CODE END TIM1_TRG_COM_TIM11_IRQn 0 */
  HAL_TIM_IRQHandler(&htim1);
 80039de:	4802      	ldr	r0, [pc, #8]	@ (80039e8 <TIM1_TRG_COM_TIM11_IRQHandler+0xc>)
 80039e0:	f7ff fae1 	bl	8002fa6 <HAL_TIM_IRQHandler>
  /* USER CODE BEGIN TIM1_TRG_COM_TIM11_IRQn 1 */

  /* USER CODE END TIM1_TRG_COM_TIM11_IRQn 1 */
}
 80039e4:	bd08      	pop	{r3, pc}
 80039e6:	bf00      	nop
 80039e8:	20000268 	.word	0x20000268

080039ec <TIM1_CC_IRQHandler>:

/**
  * @brief This function handles TIM1 capture compare interrupt.
  */
void TIM1_CC_IRQHandler(void)
{
 80039ec:	b508      	push	{r3, lr}
  /* USER CODE BEGIN TIM1_CC_IRQn 0 */

  /* USER CODE END TIM1_CC_IRQn 0 */
  HAL_TIM_IRQHandler(&htim1);
 80039ee:	4802      	ldr	r0, [pc, #8]	@ (80039f8 <TIM1_CC_IRQHandler+0xc>)
 80039f0:	f7ff fad9 	bl	8002fa6 <HAL_TIM_IRQHandler>
  /* USER CODE BEGIN TIM1_CC_IRQn 1 */

  /* USER CODE END TIM1_CC_IRQn 1 */
}
 80039f4:	bd08      	pop	{r3, pc}
 80039f6:	bf00      	nop
 80039f8:	20000268 	.word	0x20000268

080039fc <_getpid>:
}

int _getpid(void)
{
  return 1;
}
 80039fc:	2001      	movs	r0, #1
 80039fe:	4770      	bx	lr

08003a00 <_kill>:

int _kill(int pid, int sig)
{
 8003a00:	b508      	push	{r3, lr}
  (void)pid;
  (void)sig;
  errno = EINVAL;
 8003a02:	f000 ff9d 	bl	8004940 <__errno>
 8003a06:	2316      	movs	r3, #22
 8003a08:	6003      	str	r3, [r0, #0]
  return -1;
}
 8003a0a:	f04f 30ff 	mov.w	r0, #4294967295	@ 0xffffffff
 8003a0e:	bd08      	pop	{r3, pc}

08003a10 <_exit>:

void _exit (int status)
{
 8003a10:	b508      	push	{r3, lr}
  _kill(status, -1);
 8003a12:	f04f 31ff 	mov.w	r1, #4294967295	@ 0xffffffff
 8003a16:	f7ff fff3 	bl	8003a00 <_kill>
  while (1) {}    /* Make sure we hang here */
 8003a1a:	e7fe      	b.n	8003a1a <_exit+0xa>

08003a1c <_read>:
}

__attribute__((weak)) int _read(int file, char *ptr, int len)
{
 8003a1c:	b570      	push	{r4, r5, r6, lr}
 8003a1e:	460c      	mov	r4, r1
 8003a20:	4616      	mov	r6, r2
  (void)file;
  int DataIdx;

  for (DataIdx = 0; DataIdx < len; DataIdx++)
 8003a22:	2500      	movs	r5, #0
 8003a24:	e006      	b.n	8003a34 <_read+0x18>
  {
    *ptr++ = __io_getchar();
 8003a26:	f3af 8000 	nop.w
 8003a2a:	4621      	mov	r1, r4
 8003a2c:	f801 0b01 	strb.w	r0, [r1], #1
  for (DataIdx = 0; DataIdx < len; DataIdx++)
 8003a30:	3501      	adds	r5, #1
    *ptr++ = __io_getchar();
 8003a32:	460c      	mov	r4, r1
  for (DataIdx = 0; DataIdx < len; DataIdx++)
 8003a34:	42b5      	cmp	r5, r6
 8003a36:	dbf6      	blt.n	8003a26 <_read+0xa>
  }

  return len;
}
 8003a38:	4630      	mov	r0, r6
 8003a3a:	bd70      	pop	{r4, r5, r6, pc}

08003a3c <_write>:

__attribute__((weak)) int _write(int file, char *ptr, int len)
{
 8003a3c:	b570      	push	{r4, r5, r6, lr}
 8003a3e:	460c      	mov	r4, r1
 8003a40:	4616      	mov	r6, r2
  (void)file;
  int DataIdx;

  for (DataIdx = 0; DataIdx < len; DataIdx++)
 8003a42:	2500      	movs	r5, #0
 8003a44:	e004      	b.n	8003a50 <_write+0x14>
  {
    __io_putchar(*ptr++);
 8003a46:	f814 0b01 	ldrb.w	r0, [r4], #1
 8003a4a:	f3af 8000 	nop.w
  for (DataIdx = 0; DataIdx < len; DataIdx++)
 8003a4e:	3501      	adds	r5, #1
 8003a50:	42b5      	cmp	r5, r6
 8003a52:	dbf8      	blt.n	8003a46 <_write+0xa>
  }
  return len;
}
 8003a54:	4630      	mov	r0, r6
 8003a56:	bd70      	pop	{r4, r5, r6, pc}

08003a58 <_close>:

int _close(int file)
{
  (void)file;
  return -1;
}
 8003a58:	f04f 30ff 	mov.w	r0, #4294967295	@ 0xffffffff
 8003a5c:	4770      	bx	lr

08003a5e <_fstat>:


int _fstat(int file, struct stat *st)
{
  (void)file;
  st->st_mode = S_IFCHR;
 8003a5e:	f44f 5300 	mov.w	r3, #8192	@ 0x2000
 8003a62:	604b      	str	r3, [r1, #4]
  return 0;
}
 8003a64:	2000      	movs	r0, #0
 8003a66:	4770      	bx	lr

08003a68 <_isatty>:

int _isatty(int file)
{
  (void)file;
  return 1;
}
 8003a68:	2001      	movs	r0, #1
 8003a6a:	4770      	bx	lr

08003a6c <_lseek>:
{
  (void)file;
  (void)ptr;
  (void)dir;
  return 0;
}
 8003a6c:	2000      	movs	r0, #0
 8003a6e:	4770      	bx	lr

08003a70 <_sbrk>:
 *
 * @param incr Memory size
 * @return Pointer to allocated memory
 */
void *_sbrk(ptrdiff_t incr)
{
 8003a70:	b510      	push	{r4, lr}
 8003a72:	4603      	mov	r3, r0
  extern uint8_t _end; /* Symbol defined in the linker script */
  extern uint8_t _estack; /* Symbol defined in the linker script */
  extern uint32_t _Min_Stack_Size; /* Symbol defined in the linker script */
  const uint32_t stack_limit = (uint32_t)&_estack - (uint32_t)&_Min_Stack_Size;
 8003a74:	4a0c      	ldr	r2, [pc, #48]	@ (8003aa8 <_sbrk+0x38>)
 8003a76:	490d      	ldr	r1, [pc, #52]	@ (8003aac <_sbrk+0x3c>)
  const uint8_t *max_heap = (uint8_t *)stack_limit;
  uint8_t *prev_heap_end;

  /* Initialize heap end at first call */
  if (NULL == __sbrk_heap_end)
 8003a78:	480d      	ldr	r0, [pc, #52]	@ (8003ab0 <_sbrk+0x40>)
 8003a7a:	6800      	ldr	r0, [r0, #0]
 8003a7c:	b140      	cbz	r0, 8003a90 <_sbrk+0x20>
  {
    __sbrk_heap_end = &_end;
  }

  /* Protect heap from growing into the reserved MSP stack */
  if (__sbrk_heap_end + incr > max_heap)
 8003a7e:	480c      	ldr	r0, [pc, #48]	@ (8003ab0 <_sbrk+0x40>)
 8003a80:	6800      	ldr	r0, [r0, #0]
 8003a82:	4403      	add	r3, r0
 8003a84:	1a52      	subs	r2, r2, r1
 8003a86:	4293      	cmp	r3, r2
 8003a88:	d806      	bhi.n	8003a98 <_sbrk+0x28>
    errno = ENOMEM;
    return (void *)-1;
  }

  prev_heap_end = __sbrk_heap_end;
  __sbrk_heap_end += incr;
 8003a8a:	4a09      	ldr	r2, [pc, #36]	@ (8003ab0 <_sbrk+0x40>)
 8003a8c:	6013      	str	r3, [r2, #0]

  return (void *)prev_heap_end;
}
 8003a8e:	bd10      	pop	{r4, pc}
    __sbrk_heap_end = &_end;
 8003a90:	4807      	ldr	r0, [pc, #28]	@ (8003ab0 <_sbrk+0x40>)
 8003a92:	4c08      	ldr	r4, [pc, #32]	@ (8003ab4 <_sbrk+0x44>)
 8003a94:	6004      	str	r4, [r0, #0]
 8003a96:	e7f2      	b.n	8003a7e <_sbrk+0xe>
    errno = ENOMEM;
 8003a98:	f000 ff52 	bl	8004940 <__errno>
 8003a9c:	230c      	movs	r3, #12
 8003a9e:	6003      	str	r3, [r0, #0]
    return (void *)-1;
 8003aa0:	f04f 30ff 	mov.w	r0, #4294967295	@ 0xffffffff
 8003aa4:	e7f3      	b.n	8003a8e <_sbrk+0x1e>
 8003aa6:	bf00      	nop
 8003aa8:	20020000 	.word	0x20020000
 8003aac:	00000400 	.word	0x00000400
 8003ab0:	20000264 	.word	0x20000264
 8003ab4:	20000448 	.word	0x20000448

08003ab8 <SystemInit>:
  */
void SystemInit(void)
{
  /* FPU settings ------------------------------------------------------------*/
  #if (__FPU_PRESENT == 1) && (__FPU_USED == 1)
    SCB->CPACR |= ((3UL << 10*2)|(3UL << 11*2));  /* set CP10 and CP11 Full Access */
 8003ab8:	4a03      	ldr	r2, [pc, #12]	@ (8003ac8 <SystemInit+0x10>)
 8003aba:	f8d2 3088 	ldr.w	r3, [r2, #136]	@ 0x88
 8003abe:	f443 0370 	orr.w	r3, r3, #15728640	@ 0xf00000
 8003ac2:	f8c2 3088 	str.w	r3, [r2, #136]	@ 0x88

  /* Configure the Vector Table location -------------------------------------*/
#if defined(USER_VECT_TAB_ADDRESS)
  SCB->VTOR = VECT_TAB_BASE_ADDRESS | VECT_TAB_OFFSET; /* Vector Table Relocation in Internal SRAM */
#endif /* USER_VECT_TAB_ADDRESS */
}
 8003ac6:	4770      	bx	lr
 8003ac8:	e000ed00 	.word	0xe000ed00

08003acc <HAL_TIM_Base_MspInit>:
}

void HAL_TIM_Base_MspInit(TIM_HandleTypeDef* tim_baseHandle)
{

  if(tim_baseHandle->Instance==TIM1)
 8003acc:	6802      	ldr	r2, [r0, #0]
 8003ace:	4b1a      	ldr	r3, [pc, #104]	@ (8003b38 <HAL_TIM_Base_MspInit+0x6c>)
 8003ad0:	429a      	cmp	r2, r3
 8003ad2:	d000      	beq.n	8003ad6 <HAL_TIM_Base_MspInit+0xa>
 8003ad4:	4770      	bx	lr
{
 8003ad6:	b510      	push	{r4, lr}
 8003ad8:	b082      	sub	sp, #8
  {
  /* USER CODE BEGIN TIM1_MspInit 0 */

  /* USER CODE END TIM1_MspInit 0 */
    /* TIM1 clock enable */
    __HAL_RCC_TIM1_CLK_ENABLE();
 8003ada:	2400      	movs	r4, #0
 8003adc:	9401      	str	r4, [sp, #4]
 8003ade:	f503 339c 	add.w	r3, r3, #79872	@ 0x13800
 8003ae2:	6c5a      	ldr	r2, [r3, #68]	@ 0x44
 8003ae4:	f042 0201 	orr.w	r2, r2, #1
 8003ae8:	645a      	str	r2, [r3, #68]	@ 0x44
 8003aea:	6c5b      	ldr	r3, [r3, #68]	@ 0x44
 8003aec:	f003 0301 	and.w	r3, r3, #1
 8003af0:	9301      	str	r3, [sp, #4]
 8003af2:	9b01      	ldr	r3, [sp, #4]

    /* TIM1 interrupt Init */
    HAL_NVIC_SetPriority(TIM1_BRK_TIM9_IRQn, 0, 0);
 8003af4:	4622      	mov	r2, r4
 8003af6:	4621      	mov	r1, r4
 8003af8:	2018      	movs	r0, #24
 8003afa:	f7fd ffc1 	bl	8001a80 <HAL_NVIC_SetPriority>
    HAL_NVIC_EnableIRQ(TIM1_BRK_TIM9_IRQn);
 8003afe:	2018      	movs	r0, #24
 8003b00:	f7fd ffce 	bl	8001aa0 <HAL_NVIC_EnableIRQ>
    HAL_NVIC_SetPriority(TIM1_UP_TIM10_IRQn, 0, 0);
 8003b04:	4622      	mov	r2, r4
 8003b06:	4621      	mov	r1, r4
 8003b08:	2019      	movs	r0, #25
 8003b0a:	f7fd ffb9 	bl	8001a80 <HAL_NVIC_SetPriority>
    HAL_NVIC_EnableIRQ(TIM1_UP_TIM10_IRQn);
 8003b0e:	2019      	movs	r0, #25
 8003b10:	f7fd ffc6 	bl	8001aa0 <HAL_NVIC_EnableIRQ>
    HAL_NVIC_SetPriority(TIM1_TRG_COM_TIM11_IRQn, 0, 0);
 8003b14:	4622      	mov	r2, r4
 8003b16:	4621      	mov	r1, r4
 8003b18:	201a      	movs	r0, #26
 8003b1a:	f7fd ffb1 	bl	8001a80 <HAL_NVIC_SetPriority>
    HAL_NVIC_EnableIRQ(TIM1_TRG_COM_TIM11_IRQn);
 8003b1e:	201a      	movs	r0, #26
 8003b20:	f7fd ffbe 	bl	8001aa0 <HAL_NVIC_EnableIRQ>
    HAL_NVIC_SetPriority(TIM1_CC_IRQn, 0, 0);
 8003b24:	4622      	mov	r2, r4
 8003b26:	4621      	mov	r1, r4
 8003b28:	201b      	movs	r0, #27
 8003b2a:	f7fd ffa9 	bl	8001a80 <HAL_NVIC_SetPriority>
    HAL_NVIC_EnableIRQ(TIM1_CC_IRQn);
 8003b2e:	201b      	movs	r0, #27
 8003b30:	f7fd ffb6 	bl	8001aa0 <HAL_NVIC_EnableIRQ>
  /* USER CODE BEGIN TIM1_MspInit 1 */

  /* USER CODE END TIM1_MspInit 1 */
  }
}
 8003b34:	b002      	add	sp, #8
 8003b36:	bd10      	pop	{r4, pc}
 8003b38:	40010000 	.word	0x40010000

08003b3c <HAL_TIM_MspPostInit>:
void HAL_TIM_MspPostInit(TIM_HandleTypeDef* timHandle)
{
 8003b3c:	b500      	push	{lr}
 8003b3e:	b087      	sub	sp, #28

  GPIO_InitTypeDef GPIO_InitStruct = {0};
 8003b40:	2300      	movs	r3, #0
 8003b42:	9301      	str	r3, [sp, #4]
 8003b44:	9302      	str	r3, [sp, #8]
 8003b46:	9303      	str	r3, [sp, #12]
 8003b48:	9304      	str	r3, [sp, #16]
 8003b4a:	9305      	str	r3, [sp, #20]
  if(timHandle->Instance==TIM1)
 8003b4c:	6802      	ldr	r2, [r0, #0]
 8003b4e:	4b0f      	ldr	r3, [pc, #60]	@ (8003b8c <HAL_TIM_MspPostInit+0x50>)
 8003b50:	429a      	cmp	r2, r3
 8003b52:	d002      	beq.n	8003b5a <HAL_TIM_MspPostInit+0x1e>
  /* USER CODE BEGIN TIM1_MspPostInit 1 */

  /* USER CODE END TIM1_MspPostInit 1 */
  }

}
 8003b54:	b007      	add	sp, #28
 8003b56:	f85d fb04 	ldr.w	pc, [sp], #4
    __HAL_RCC_GPIOA_CLK_ENABLE();
 8003b5a:	2300      	movs	r3, #0
 8003b5c:	9300      	str	r3, [sp, #0]
 8003b5e:	4b0c      	ldr	r3, [pc, #48]	@ (8003b90 <HAL_TIM_MspPostInit+0x54>)
 8003b60:	6b1a      	ldr	r2, [r3, #48]	@ 0x30
 8003b62:	f042 0201 	orr.w	r2, r2, #1
 8003b66:	631a      	str	r2, [r3, #48]	@ 0x30
 8003b68:	6b1b      	ldr	r3, [r3, #48]	@ 0x30
 8003b6a:	f003 0301 	and.w	r3, r3, #1
 8003b6e:	9300      	str	r3, [sp, #0]
 8003b70:	9b00      	ldr	r3, [sp, #0]
    GPIO_InitStruct.Pin = GPIO_PIN_8;
 8003b72:	f44f 7380 	mov.w	r3, #256	@ 0x100
 8003b76:	9301      	str	r3, [sp, #4]
    GPIO_InitStruct.Mode = GPIO_MODE_AF_PP;
 8003b78:	2302      	movs	r3, #2
 8003b7a:	9302      	str	r3, [sp, #8]
    GPIO_InitStruct.Alternate = GPIO_AF1_TIM1;
 8003b7c:	2301      	movs	r3, #1
 8003b7e:	9305      	str	r3, [sp, #20]
    HAL_GPIO_Init(GPIOA, &GPIO_InitStruct);
 8003b80:	a901      	add	r1, sp, #4
 8003b82:	4804      	ldr	r0, [pc, #16]	@ (8003b94 <HAL_TIM_MspPostInit+0x58>)
 8003b84:	f7fd ffa4 	bl	8001ad0 <HAL_GPIO_Init>
}
 8003b88:	e7e4      	b.n	8003b54 <HAL_TIM_MspPostInit+0x18>
 8003b8a:	bf00      	nop
 8003b8c:	40010000 	.word	0x40010000
 8003b90:	40023800 	.word	0x40023800
 8003b94:	40020000 	.word	0x40020000

08003b98 <MX_TIM1_Init>:
{
 8003b98:	b510      	push	{r4, lr}
 8003b9a:	b096      	sub	sp, #88	@ 0x58
  TIM_ClockConfigTypeDef sClockSourceConfig = {0};
 8003b9c:	2400      	movs	r4, #0
 8003b9e:	9412      	str	r4, [sp, #72]	@ 0x48
 8003ba0:	9413      	str	r4, [sp, #76]	@ 0x4c
 8003ba2:	9414      	str	r4, [sp, #80]	@ 0x50
 8003ba4:	9415      	str	r4, [sp, #84]	@ 0x54
  TIM_MasterConfigTypeDef sMasterConfig = {0};
 8003ba6:	9410      	str	r4, [sp, #64]	@ 0x40
 8003ba8:	9411      	str	r4, [sp, #68]	@ 0x44
  TIM_OC_InitTypeDef sConfigOC = {0};
 8003baa:	9409      	str	r4, [sp, #36]	@ 0x24
 8003bac:	940a      	str	r4, [sp, #40]	@ 0x28
 8003bae:	940b      	str	r4, [sp, #44]	@ 0x2c
 8003bb0:	940c      	str	r4, [sp, #48]	@ 0x30
 8003bb2:	940d      	str	r4, [sp, #52]	@ 0x34
 8003bb4:	940e      	str	r4, [sp, #56]	@ 0x38
 8003bb6:	940f      	str	r4, [sp, #60]	@ 0x3c
  TIM_BreakDeadTimeConfigTypeDef sBreakDeadTimeConfig = {0};
 8003bb8:	2220      	movs	r2, #32
 8003bba:	4621      	mov	r1, r4
 8003bbc:	a801      	add	r0, sp, #4
 8003bbe:	f000 fe5d 	bl	800487c <memset>
  htim1.Instance = TIM1;
 8003bc2:	482e      	ldr	r0, [pc, #184]	@ (8003c7c <MX_TIM1_Init+0xe4>)
 8003bc4:	4b2e      	ldr	r3, [pc, #184]	@ (8003c80 <MX_TIM1_Init+0xe8>)
 8003bc6:	6003      	str	r3, [r0, #0]
  htim1.Init.Prescaler = 999;
 8003bc8:	f240 33e7 	movw	r3, #999	@ 0x3e7
 8003bcc:	6043      	str	r3, [r0, #4]
  htim1.Init.CounterMode = TIM_COUNTERMODE_UP;
 8003bce:	6084      	str	r4, [r0, #8]
  htim1.Init.Period = 1999;
 8003bd0:	f240 73cf 	movw	r3, #1999	@ 0x7cf
 8003bd4:	60c3      	str	r3, [r0, #12]
  htim1.Init.ClockDivision = TIM_CLOCKDIVISION_DIV1;
 8003bd6:	6104      	str	r4, [r0, #16]
  htim1.Init.RepetitionCounter = 0;
 8003bd8:	6144      	str	r4, [r0, #20]
  htim1.Init.AutoReloadPreload = TIM_AUTORELOAD_PRELOAD_DISABLE;
 8003bda:	6184      	str	r4, [r0, #24]
  if (HAL_TIM_Base_Init(&htim1) != HAL_OK)
 8003bdc:	f7ff fae8 	bl	80031b0 <HAL_TIM_Base_Init>
 8003be0:	2800      	cmp	r0, #0
 8003be2:	d138      	bne.n	8003c56 <MX_TIM1_Init+0xbe>
  sClockSourceConfig.ClockSource = TIM_CLOCKSOURCE_INTERNAL;
 8003be4:	f44f 5380 	mov.w	r3, #4096	@ 0x1000
 8003be8:	9312      	str	r3, [sp, #72]	@ 0x48
  if (HAL_TIM_ConfigClockSource(&htim1, &sClockSourceConfig) != HAL_OK)
 8003bea:	a912      	add	r1, sp, #72	@ 0x48
 8003bec:	4823      	ldr	r0, [pc, #140]	@ (8003c7c <MX_TIM1_Init+0xe4>)
 8003bee:	f7ff fbe0 	bl	80033b2 <HAL_TIM_ConfigClockSource>
 8003bf2:	2800      	cmp	r0, #0
 8003bf4:	d132      	bne.n	8003c5c <MX_TIM1_Init+0xc4>
  if (HAL_TIM_PWM_Init(&htim1) != HAL_OK)
 8003bf6:	4821      	ldr	r0, [pc, #132]	@ (8003c7c <MX_TIM1_Init+0xe4>)
 8003bf8:	f7ff fb06 	bl	8003208 <HAL_TIM_PWM_Init>
 8003bfc:	2800      	cmp	r0, #0
 8003bfe:	d130      	bne.n	8003c62 <MX_TIM1_Init+0xca>
  sMasterConfig.MasterOutputTrigger = TIM_TRGO_RESET;
 8003c00:	2300      	movs	r3, #0
 8003c02:	9310      	str	r3, [sp, #64]	@ 0x40
  sMasterConfig.MasterSlaveMode = TIM_MASTERSLAVEMODE_DISABLE;
 8003c04:	9311      	str	r3, [sp, #68]	@ 0x44
  if (HAL_TIMEx_MasterConfigSynchronization(&htim1, &sMasterConfig) != HAL_OK)
 8003c06:	a910      	add	r1, sp, #64	@ 0x40
 8003c08:	481c      	ldr	r0, [pc, #112]	@ (8003c7c <MX_TIM1_Init+0xe4>)
 8003c0a:	f7ff fcd3 	bl	80035b4 <HAL_TIMEx_MasterConfigSynchronization>
 8003c0e:	bb58      	cbnz	r0, 8003c68 <MX_TIM1_Init+0xd0>
  sConfigOC.OCMode = TIM_OCMODE_PWM1;
 8003c10:	2360      	movs	r3, #96	@ 0x60
 8003c12:	9309      	str	r3, [sp, #36]	@ 0x24
  sConfigOC.Pulse = 225;
 8003c14:	23e1      	movs	r3, #225	@ 0xe1
 8003c16:	930a      	str	r3, [sp, #40]	@ 0x28
  sConfigOC.OCPolarity = TIM_OCPOLARITY_HIGH;
 8003c18:	2200      	movs	r2, #0
 8003c1a:	920b      	str	r2, [sp, #44]	@ 0x2c
  sConfigOC.OCNPolarity = TIM_OCNPOLARITY_HIGH;
 8003c1c:	920c      	str	r2, [sp, #48]	@ 0x30
  sConfigOC.OCFastMode = TIM_OCFAST_DISABLE;
 8003c1e:	920d      	str	r2, [sp, #52]	@ 0x34
  sConfigOC.OCIdleState = TIM_OCIDLESTATE_RESET;
 8003c20:	920e      	str	r2, [sp, #56]	@ 0x38
  sConfigOC.OCNIdleState = TIM_OCNIDLESTATE_RESET;
 8003c22:	920f      	str	r2, [sp, #60]	@ 0x3c
  if (HAL_TIM_PWM_ConfigChannel(&htim1, &sConfigOC, TIM_CHANNEL_1) != HAL_OK)
 8003c24:	a909      	add	r1, sp, #36	@ 0x24
 8003c26:	4815      	ldr	r0, [pc, #84]	@ (8003c7c <MX_TIM1_Init+0xe4>)
 8003c28:	f7ff fb48 	bl	80032bc <HAL_TIM_PWM_ConfigChannel>
 8003c2c:	b9f8      	cbnz	r0, 8003c6e <MX_TIM1_Init+0xd6>
  sBreakDeadTimeConfig.OffStateRunMode = TIM_OSSR_DISABLE;
 8003c2e:	2300      	movs	r3, #0
 8003c30:	9301      	str	r3, [sp, #4]
  sBreakDeadTimeConfig.OffStateIDLEMode = TIM_OSSI_DISABLE;
 8003c32:	9302      	str	r3, [sp, #8]
  sBreakDeadTimeConfig.LockLevel = TIM_LOCKLEVEL_OFF;
 8003c34:	9303      	str	r3, [sp, #12]
  sBreakDeadTimeConfig.DeadTime = 0;
 8003c36:	9304      	str	r3, [sp, #16]
  sBreakDeadTimeConfig.BreakState = TIM_BREAK_DISABLE;
 8003c38:	9305      	str	r3, [sp, #20]
  sBreakDeadTimeConfig.BreakPolarity = TIM_BREAKPOLARITY_HIGH;
 8003c3a:	f44f 5200 	mov.w	r2, #8192	@ 0x2000
 8003c3e:	9206      	str	r2, [sp, #24]
  sBreakDeadTimeConfig.AutomaticOutput = TIM_AUTOMATICOUTPUT_DISABLE;
 8003c40:	9308      	str	r3, [sp, #32]
  if (HAL_TIMEx_ConfigBreakDeadTime(&htim1, &sBreakDeadTimeConfig) != HAL_OK)
 8003c42:	a901      	add	r1, sp, #4
 8003c44:	480d      	ldr	r0, [pc, #52]	@ (8003c7c <MX_TIM1_Init+0xe4>)
 8003c46:	f7ff fcf3 	bl	8003630 <HAL_TIMEx_ConfigBreakDeadTime>
 8003c4a:	b998      	cbnz	r0, 8003c74 <MX_TIM1_Init+0xdc>
  HAL_TIM_MspPostInit(&htim1);
 8003c4c:	480b      	ldr	r0, [pc, #44]	@ (8003c7c <MX_TIM1_Init+0xe4>)
 8003c4e:	f7ff ff75 	bl	8003b3c <HAL_TIM_MspPostInit>
}
 8003c52:	b016      	add	sp, #88	@ 0x58
 8003c54:	bd10      	pop	{r4, pc}
    Error_Handler();
 8003c56:	f7fd fcad 	bl	80015b4 <Error_Handler>
 8003c5a:	e7c3      	b.n	8003be4 <MX_TIM1_Init+0x4c>
    Error_Handler();
 8003c5c:	f7fd fcaa 	bl	80015b4 <Error_Handler>
 8003c60:	e7c9      	b.n	8003bf6 <MX_TIM1_Init+0x5e>
    Error_Handler();
 8003c62:	f7fd fca7 	bl	80015b4 <Error_Handler>
 8003c66:	e7cb      	b.n	8003c00 <MX_TIM1_Init+0x68>
    Error_Handler();
 8003c68:	f7fd fca4 	bl	80015b4 <Error_Handler>
 8003c6c:	e7d0      	b.n	8003c10 <MX_TIM1_Init+0x78>
    Error_Handler();
 8003c6e:	f7fd fca1 	bl	80015b4 <Error_Handler>
 8003c72:	e7dc      	b.n	8003c2e <MX_TIM1_Init+0x96>
    Error_Handler();
 8003c74:	f7fd fc9e 	bl	80015b4 <Error_Handler>
 8003c78:	e7e8      	b.n	8003c4c <MX_TIM1_Init+0xb4>
 8003c7a:	bf00      	nop
 8003c7c:	20000268 	.word	0x20000268
 8003c80:	40010000 	.word	0x40010000

08003c84 <MX_USART1_UART_Init>:
UART_HandleTypeDef huart1;

/* USART1 init function */

void MX_USART1_UART_Init(void)
{
 8003c84:	b508      	push	{r3, lr}
  /* USER CODE END USART1_Init 0 */

  /* USER CODE BEGIN USART1_Init 1 */

  /* USER CODE END USART1_Init 1 */
  huart1.Instance = USART1;
 8003c86:	480a      	ldr	r0, [pc, #40]	@ (8003cb0 <MX_USART1_UART_Init+0x2c>)
 8003c88:	4b0a      	ldr	r3, [pc, #40]	@ (8003cb4 <MX_USART1_UART_Init+0x30>)
 8003c8a:	6003      	str	r3, [r0, #0]
  huart1.Init.BaudRate = 115200;
 8003c8c:	f44f 33e1 	mov.w	r3, #115200	@ 0x1c200
 8003c90:	6043      	str	r3, [r0, #4]
  huart1.Init.WordLength = UART_WORDLENGTH_8B;
 8003c92:	2300      	movs	r3, #0
 8003c94:	6083      	str	r3, [r0, #8]
  huart1.Init.StopBits = UART_STOPBITS_1;
 8003c96:	60c3      	str	r3, [r0, #12]
  huart1.Init.Parity = UART_PARITY_NONE;
 8003c98:	6103      	str	r3, [r0, #16]
  huart1.Init.Mode = UART_MODE_TX_RX;
 8003c9a:	220c      	movs	r2, #12
 8003c9c:	6142      	str	r2, [r0, #20]
  huart1.Init.HwFlowCtl = UART_HWCONTROL_NONE;
 8003c9e:	6183      	str	r3, [r0, #24]
  huart1.Init.OverSampling = UART_OVERSAMPLING_16;
 8003ca0:	61c3      	str	r3, [r0, #28]
  if (HAL_UART_Init(&huart1) != HAL_OK)
 8003ca2:	f7ff fdea 	bl	800387a <HAL_UART_Init>
 8003ca6:	b900      	cbnz	r0, 8003caa <MX_USART1_UART_Init+0x26>
  }
  /* USER CODE BEGIN USART1_Init 2 */

  /* USER CODE END USART1_Init 2 */

}
 8003ca8:	bd08      	pop	{r3, pc}
    Error_Handler();
 8003caa:	f7fd fc83 	bl	80015b4 <Error_Handler>
}
 8003cae:	e7fb      	b.n	8003ca8 <MX_USART1_UART_Init+0x24>
 8003cb0:	200002b0 	.word	0x200002b0
 8003cb4:	40011000 	.word	0x40011000

08003cb8 <HAL_UART_MspInit>:

void HAL_UART_MspInit(UART_HandleTypeDef* uartHandle)
{
 8003cb8:	b500      	push	{lr}
 8003cba:	b089      	sub	sp, #36	@ 0x24

  GPIO_InitTypeDef GPIO_InitStruct = {0};
 8003cbc:	2300      	movs	r3, #0
 8003cbe:	9303      	str	r3, [sp, #12]
 8003cc0:	9304      	str	r3, [sp, #16]
 8003cc2:	9305      	str	r3, [sp, #20]
 8003cc4:	9306      	str	r3, [sp, #24]
 8003cc6:	9307      	str	r3, [sp, #28]
  if(uartHandle->Instance==USART1)
 8003cc8:	6802      	ldr	r2, [r0, #0]
 8003cca:	f103 4380 	add.w	r3, r3, #1073741824	@ 0x40000000
 8003cce:	f503 3388 	add.w	r3, r3, #69632	@ 0x11000
 8003cd2:	429a      	cmp	r2, r3
 8003cd4:	d002      	beq.n	8003cdc <HAL_UART_MspInit+0x24>

  /* USER CODE BEGIN USART1_MspInit 1 */

  /* USER CODE END USART1_MspInit 1 */
  }
}
 8003cd6:	b009      	add	sp, #36	@ 0x24
 8003cd8:	f85d fb04 	ldr.w	pc, [sp], #4
    __HAL_RCC_USART1_CLK_ENABLE();
 8003cdc:	2100      	movs	r1, #0
 8003cde:	9101      	str	r1, [sp, #4]
 8003ce0:	f503 3394 	add.w	r3, r3, #75776	@ 0x12800
 8003ce4:	6c5a      	ldr	r2, [r3, #68]	@ 0x44
 8003ce6:	f042 0210 	orr.w	r2, r2, #16
 8003cea:	645a      	str	r2, [r3, #68]	@ 0x44
 8003cec:	6c5a      	ldr	r2, [r3, #68]	@ 0x44
 8003cee:	f002 0210 	and.w	r2, r2, #16
 8003cf2:	9201      	str	r2, [sp, #4]
 8003cf4:	9a01      	ldr	r2, [sp, #4]
    __HAL_RCC_GPIOA_CLK_ENABLE();
 8003cf6:	9102      	str	r1, [sp, #8]
 8003cf8:	6b1a      	ldr	r2, [r3, #48]	@ 0x30
 8003cfa:	f042 0201 	orr.w	r2, r2, #1
 8003cfe:	631a      	str	r2, [r3, #48]	@ 0x30
 8003d00:	6b1b      	ldr	r3, [r3, #48]	@ 0x30
 8003d02:	f003 0301 	and.w	r3, r3, #1
 8003d06:	9302      	str	r3, [sp, #8]
 8003d08:	9b02      	ldr	r3, [sp, #8]
    GPIO_InitStruct.Pin = GPIO_PIN_9|GPIO_PIN_10;
 8003d0a:	f44f 63c0 	mov.w	r3, #1536	@ 0x600
 8003d0e:	9303      	str	r3, [sp, #12]
    GPIO_InitStruct.Mode = GPIO_MODE_AF_PP;
 8003d10:	2302      	movs	r3, #2
 8003d12:	9304      	str	r3, [sp, #16]
    GPIO_InitStruct.Speed = GPIO_SPEED_FREQ_VERY_HIGH;
 8003d14:	2303      	movs	r3, #3
 8003d16:	9306      	str	r3, [sp, #24]
    GPIO_InitStruct.Alternate = GPIO_AF7_USART1;
 8003d18:	2307      	movs	r3, #7
 8003d1a:	9307      	str	r3, [sp, #28]
    HAL_GPIO_Init(GPIOA, &GPIO_InitStruct);
 8003d1c:	a903      	add	r1, sp, #12
 8003d1e:	4802      	ldr	r0, [pc, #8]	@ (8003d28 <HAL_UART_MspInit+0x70>)
 8003d20:	f7fd fed6 	bl	8001ad0 <HAL_GPIO_Init>
}
 8003d24:	e7d7      	b.n	8003cd6 <HAL_UART_MspInit+0x1e>
 8003d26:	bf00      	nop
 8003d28:	40020000 	.word	0x40020000

08003d2c <Reset_Handler>:

    .section  .text.Reset_Handler
  .weak  Reset_Handler
  .type  Reset_Handler, %function
Reset_Handler:  
  ldr   sp, =_estack    		 /* set stack pointer */
 8003d2c:	f8df d034 	ldr.w	sp, [pc, #52]	@ 8003d64 <LoopFillZerobss+0xe>

/* Call the clock system initialization function.*/
  bl  SystemInit   
 8003d30:	f7ff fec2 	bl	8003ab8 <SystemInit>

/* Copy the data segment initializers from flash to SRAM */  
  ldr r0, =_sdata
 8003d34:	480c      	ldr	r0, [pc, #48]	@ (8003d68 <LoopFillZerobss+0x12>)
  ldr r1, =_edata
 8003d36:	490d      	ldr	r1, [pc, #52]	@ (8003d6c <LoopFillZerobss+0x16>)
  ldr r2, =_sidata
 8003d38:	4a0d      	ldr	r2, [pc, #52]	@ (8003d70 <LoopFillZerobss+0x1a>)
  movs r3, #0
 8003d3a:	2300      	movs	r3, #0
  b LoopCopyDataInit
 8003d3c:	e002      	b.n	8003d44 <LoopCopyDataInit>

08003d3e <CopyDataInit>:

CopyDataInit:
  ldr r4, [r2, r3]
 8003d3e:	58d4      	ldr	r4, [r2, r3]
  str r4, [r0, r3]
 8003d40:	50c4      	str	r4, [r0, r3]
  adds r3, r3, #4
 8003d42:	3304      	adds	r3, #4

08003d44 <LoopCopyDataInit>:

LoopCopyDataInit:
  adds r4, r0, r3
 8003d44:	18c4      	adds	r4, r0, r3
  cmp r4, r1
 8003d46:	428c      	cmp	r4, r1
  bcc CopyDataInit
 8003d48:	d3f9      	bcc.n	8003d3e <CopyDataInit>
  
/* Zero fill the bss segment. */
  ldr r2, =_sbss
 8003d4a:	4a0a      	ldr	r2, [pc, #40]	@ (8003d74 <LoopFillZerobss+0x1e>)
  ldr r4, =_ebss
 8003d4c:	4c0a      	ldr	r4, [pc, #40]	@ (8003d78 <LoopFillZerobss+0x22>)
  movs r3, #0
 8003d4e:	2300      	movs	r3, #0
  b LoopFillZerobss
 8003d50:	e001      	b.n	8003d56 <LoopFillZerobss>

08003d52 <FillZerobss>:

FillZerobss:
  str  r3, [r2]
 8003d52:	6013      	str	r3, [r2, #0]
  adds r2, r2, #4
 8003d54:	3204      	adds	r2, #4

08003d56 <LoopFillZerobss>:

LoopFillZerobss:
  cmp r2, r4
 8003d56:	42a2      	cmp	r2, r4
  bcc FillZerobss
 8003d58:	d3fb      	bcc.n	8003d52 <FillZerobss>

/* Call static constructors */
    bl __libc_init_array
 8003d5a:	f000 fdf7 	bl	800494c <__libc_init_array>
/* Call the application's entry point.*/
  bl  main
 8003d5e:	f7fd fc7b 	bl	8001658 <main>
  bx  lr    
 8003d62:	4770      	bx	lr
  ldr   sp, =_estack    		 /* set stack pointer */
 8003d64:	20020000 	.word	0x20020000
  ldr r0, =_sdata
 8003d68:	20000000 	.word	0x20000000
  ldr r1, =_edata
 8003d6c:	200001d4 	.word	0x200001d4
  ldr r2, =_sidata
 8003d70:	080073dc 	.word	0x080073dc
  ldr r2, =_sbss
 8003d74:	200001d4 	.word	0x200001d4
  ldr r4, =_ebss
 8003d78:	20000444 	.word	0x20000444

08003d7c <ADC_IRQHandler>:
 * @retval None       
*/
    .section  .text.Default_Handler,"ax",%progbits
Default_Handler:
Infinite_Loop:
  b  Infinite_Loop
 8003d7c:	e7fe      	b.n	8003d7c <ADC_IRQHandler>

08003d7e <__cvt>:
 8003d7e:	e92d 47ff 	stmdb	sp!, {r0, r1, r2, r3, r4, r5, r6, r7, r8, r9, sl, lr}
 8003d82:	ec57 6b10 	vmov	r6, r7, d0
 8003d86:	2f00      	cmp	r7, #0
 8003d88:	460c      	mov	r4, r1
 8003d8a:	4619      	mov	r1, r3
 8003d8c:	463b      	mov	r3, r7
 8003d8e:	bfbb      	ittet	lt
 8003d90:	f107 4300 	addlt.w	r3, r7, #2147483648	@ 0x80000000
 8003d94:	461f      	movlt	r7, r3
 8003d96:	2300      	movge	r3, #0
 8003d98:	232d      	movlt	r3, #45	@ 0x2d
 8003d9a:	700b      	strb	r3, [r1, #0]
 8003d9c:	9b0d      	ldr	r3, [sp, #52]	@ 0x34
 8003d9e:	f8dd a030 	ldr.w	sl, [sp, #48]	@ 0x30
 8003da2:	4691      	mov	r9, r2
 8003da4:	f023 0820 	bic.w	r8, r3, #32
 8003da8:	bfbc      	itt	lt
 8003daa:	4632      	movlt	r2, r6
 8003dac:	4616      	movlt	r6, r2
 8003dae:	f1b8 0f46 	cmp.w	r8, #70	@ 0x46
 8003db2:	d005      	beq.n	8003dc0 <__cvt+0x42>
 8003db4:	f1b8 0f45 	cmp.w	r8, #69	@ 0x45
 8003db8:	d100      	bne.n	8003dbc <__cvt+0x3e>
 8003dba:	3401      	adds	r4, #1
 8003dbc:	2102      	movs	r1, #2
 8003dbe:	e000      	b.n	8003dc2 <__cvt+0x44>
 8003dc0:	2103      	movs	r1, #3
 8003dc2:	ab03      	add	r3, sp, #12
 8003dc4:	9301      	str	r3, [sp, #4]
 8003dc6:	ab02      	add	r3, sp, #8
 8003dc8:	9300      	str	r3, [sp, #0]
 8003dca:	ec47 6b10 	vmov	d0, r6, r7
 8003dce:	4653      	mov	r3, sl
 8003dd0:	4622      	mov	r2, r4
 8003dd2:	f000 fe6d 	bl	8004ab0 <_dtoa_r>
 8003dd6:	f1b8 0f47 	cmp.w	r8, #71	@ 0x47
 8003dda:	4605      	mov	r5, r0
 8003ddc:	d119      	bne.n	8003e12 <__cvt+0x94>
 8003dde:	f019 0f01 	tst.w	r9, #1
 8003de2:	d00e      	beq.n	8003e02 <__cvt+0x84>
 8003de4:	eb00 0904 	add.w	r9, r0, r4
 8003de8:	2200      	movs	r2, #0
 8003dea:	2300      	movs	r3, #0
 8003dec:	4630      	mov	r0, r6
 8003dee:	4639      	mov	r1, r7
 8003df0:	f7fc fe52 	bl	8000a98 <__aeabi_dcmpeq>
 8003df4:	b108      	cbz	r0, 8003dfa <__cvt+0x7c>
 8003df6:	f8cd 900c 	str.w	r9, [sp, #12]
 8003dfa:	2230      	movs	r2, #48	@ 0x30
 8003dfc:	9b03      	ldr	r3, [sp, #12]
 8003dfe:	454b      	cmp	r3, r9
 8003e00:	d31e      	bcc.n	8003e40 <__cvt+0xc2>
 8003e02:	9b03      	ldr	r3, [sp, #12]
 8003e04:	9a0e      	ldr	r2, [sp, #56]	@ 0x38
 8003e06:	1b5b      	subs	r3, r3, r5
 8003e08:	4628      	mov	r0, r5
 8003e0a:	6013      	str	r3, [r2, #0]
 8003e0c:	b004      	add	sp, #16
 8003e0e:	e8bd 87f0 	ldmia.w	sp!, {r4, r5, r6, r7, r8, r9, sl, pc}
 8003e12:	f1b8 0f46 	cmp.w	r8, #70	@ 0x46
 8003e16:	eb00 0904 	add.w	r9, r0, r4
 8003e1a:	d1e5      	bne.n	8003de8 <__cvt+0x6a>
 8003e1c:	7803      	ldrb	r3, [r0, #0]
 8003e1e:	2b30      	cmp	r3, #48	@ 0x30
 8003e20:	d10a      	bne.n	8003e38 <__cvt+0xba>
 8003e22:	2200      	movs	r2, #0
 8003e24:	2300      	movs	r3, #0
 8003e26:	4630      	mov	r0, r6
 8003e28:	4639      	mov	r1, r7
 8003e2a:	f7fc fe35 	bl	8000a98 <__aeabi_dcmpeq>
 8003e2e:	b918      	cbnz	r0, 8003e38 <__cvt+0xba>
 8003e30:	f1c4 0401 	rsb	r4, r4, #1
 8003e34:	f8ca 4000 	str.w	r4, [sl]
 8003e38:	f8da 3000 	ldr.w	r3, [sl]
 8003e3c:	4499      	add	r9, r3
 8003e3e:	e7d3      	b.n	8003de8 <__cvt+0x6a>
 8003e40:	1c59      	adds	r1, r3, #1
 8003e42:	9103      	str	r1, [sp, #12]
 8003e44:	701a      	strb	r2, [r3, #0]
 8003e46:	e7d9      	b.n	8003dfc <__cvt+0x7e>

08003e48 <__exponent>:
 8003e48:	b5f7      	push	{r0, r1, r2, r4, r5, r6, r7, lr}
 8003e4a:	2900      	cmp	r1, #0
 8003e4c:	bfba      	itte	lt
 8003e4e:	4249      	neglt	r1, r1
 8003e50:	232d      	movlt	r3, #45	@ 0x2d
 8003e52:	232b      	movge	r3, #43	@ 0x2b
 8003e54:	2909      	cmp	r1, #9
 8003e56:	7002      	strb	r2, [r0, #0]
 8003e58:	7043      	strb	r3, [r0, #1]
 8003e5a:	dd29      	ble.n	8003eb0 <__exponent+0x68>
 8003e5c:	f10d 0407 	add.w	r4, sp, #7
 8003e60:	4625      	mov	r5, r4
 8003e62:	270a      	movs	r7, #10
 8003e64:	4622      	mov	r2, r4
 8003e66:	fbb1 f6f7 	udiv	r6, r1, r7
 8003e6a:	fb07 1316 	mls	r3, r7, r6, r1
 8003e6e:	3330      	adds	r3, #48	@ 0x30
 8003e70:	f802 3c01 	strb.w	r3, [r2, #-1]
 8003e74:	460b      	mov	r3, r1
 8003e76:	2b63      	cmp	r3, #99	@ 0x63
 8003e78:	f104 34ff 	add.w	r4, r4, #4294967295	@ 0xffffffff
 8003e7c:	4631      	mov	r1, r6
 8003e7e:	dcf1      	bgt.n	8003e64 <__exponent+0x1c>
 8003e80:	3130      	adds	r1, #48	@ 0x30
 8003e82:	1e93      	subs	r3, r2, #2
 8003e84:	f804 1c01 	strb.w	r1, [r4, #-1]
 8003e88:	1c41      	adds	r1, r0, #1
 8003e8a:	461c      	mov	r4, r3
 8003e8c:	42ab      	cmp	r3, r5
 8003e8e:	d30a      	bcc.n	8003ea6 <__exponent+0x5e>
 8003e90:	f10d 0309 	add.w	r3, sp, #9
 8003e94:	1a9b      	subs	r3, r3, r2
 8003e96:	42a5      	cmp	r5, r4
 8003e98:	bf38      	it	cc
 8003e9a:	2300      	movcc	r3, #0
 8003e9c:	1c82      	adds	r2, r0, #2
 8003e9e:	4413      	add	r3, r2
 8003ea0:	1a18      	subs	r0, r3, r0
 8003ea2:	b003      	add	sp, #12
 8003ea4:	bdf0      	pop	{r4, r5, r6, r7, pc}
 8003ea6:	f813 6b01 	ldrb.w	r6, [r3], #1
 8003eaa:	f801 6f01 	strb.w	r6, [r1, #1]!
 8003eae:	e7ed      	b.n	8003e8c <__exponent+0x44>
 8003eb0:	2330      	movs	r3, #48	@ 0x30
 8003eb2:	3130      	adds	r1, #48	@ 0x30
 8003eb4:	7083      	strb	r3, [r0, #2]
 8003eb6:	70c1      	strb	r1, [r0, #3]
 8003eb8:	1d03      	adds	r3, r0, #4
 8003eba:	e7f1      	b.n	8003ea0 <__exponent+0x58>

08003ebc <_printf_float>:
 8003ebc:	e92d 4ff0 	stmdb	sp!, {r4, r5, r6, r7, r8, r9, sl, fp, lr}
 8003ec0:	b08d      	sub	sp, #52	@ 0x34
 8003ec2:	460c      	mov	r4, r1
 8003ec4:	f8dd 8058 	ldr.w	r8, [sp, #88]	@ 0x58
 8003ec8:	4616      	mov	r6, r2
 8003eca:	461f      	mov	r7, r3
 8003ecc:	4605      	mov	r5, r0
 8003ece:	f000 fced 	bl	80048ac <_localeconv_r>
 8003ed2:	6803      	ldr	r3, [r0, #0]
 8003ed4:	9306      	str	r3, [sp, #24]
 8003ed6:	4618      	mov	r0, r3
 8003ed8:	f7fc f9b2 	bl	8000240 <strlen>
 8003edc:	2300      	movs	r3, #0
 8003ede:	930a      	str	r3, [sp, #40]	@ 0x28
 8003ee0:	f8d8 3000 	ldr.w	r3, [r8]
 8003ee4:	f894 a018 	ldrb.w	sl, [r4, #24]
 8003ee8:	f8d4 b000 	ldr.w	fp, [r4]
 8003eec:	9007      	str	r0, [sp, #28]
 8003eee:	3307      	adds	r3, #7
 8003ef0:	f023 0307 	bic.w	r3, r3, #7
 8003ef4:	ecb3 7b02 	vldmia	r3!, {d7}
 8003ef8:	ed8d 7b04 	vstr	d7, [sp, #16]
 8003efc:	f8c8 3000 	str.w	r3, [r8]
 8003f00:	e9dd 8304 	ldrd	r8, r3, [sp, #16]
 8003f04:	f023 4900 	bic.w	r9, r3, #2147483648	@ 0x80000000
 8003f08:	ed84 7b12 	vstr	d7, [r4, #72]	@ 0x48
 8003f0c:	4b9c      	ldr	r3, [pc, #624]	@ (8004180 <_printf_float+0x2c4>)
 8003f0e:	f04f 32ff 	mov.w	r2, #4294967295	@ 0xffffffff
 8003f12:	4640      	mov	r0, r8
 8003f14:	4649      	mov	r1, r9
 8003f16:	f7fc fdf1 	bl	8000afc <__aeabi_dcmpun>
 8003f1a:	bb70      	cbnz	r0, 8003f7a <_printf_float+0xbe>
 8003f1c:	4b98      	ldr	r3, [pc, #608]	@ (8004180 <_printf_float+0x2c4>)
 8003f1e:	f04f 32ff 	mov.w	r2, #4294967295	@ 0xffffffff
 8003f22:	4640      	mov	r0, r8
 8003f24:	4649      	mov	r1, r9
 8003f26:	f7fc fdcb 	bl	8000ac0 <__aeabi_dcmple>
 8003f2a:	bb30      	cbnz	r0, 8003f7a <_printf_float+0xbe>
 8003f2c:	e9dd 0104 	ldrd	r0, r1, [sp, #16]
 8003f30:	2200      	movs	r2, #0
 8003f32:	2300      	movs	r3, #0
 8003f34:	f7fc fdba 	bl	8000aac <__aeabi_dcmplt>
 8003f38:	b110      	cbz	r0, 8003f40 <_printf_float+0x84>
 8003f3a:	232d      	movs	r3, #45	@ 0x2d
 8003f3c:	f884 3043 	strb.w	r3, [r4, #67]	@ 0x43
 8003f40:	4a90      	ldr	r2, [pc, #576]	@ (8004184 <_printf_float+0x2c8>)
 8003f42:	4b91      	ldr	r3, [pc, #580]	@ (8004188 <_printf_float+0x2cc>)
 8003f44:	f1ba 0f47 	cmp.w	sl, #71	@ 0x47
 8003f48:	bf8c      	ite	hi
 8003f4a:	4690      	movhi	r8, r2
 8003f4c:	4698      	movls	r8, r3
 8003f4e:	2303      	movs	r3, #3
 8003f50:	6123      	str	r3, [r4, #16]
 8003f52:	f02b 0304 	bic.w	r3, fp, #4
 8003f56:	6023      	str	r3, [r4, #0]
 8003f58:	f04f 0900 	mov.w	r9, #0
 8003f5c:	9700      	str	r7, [sp, #0]
 8003f5e:	4633      	mov	r3, r6
 8003f60:	aa0b      	add	r2, sp, #44	@ 0x2c
 8003f62:	4621      	mov	r1, r4
 8003f64:	4628      	mov	r0, r5
 8003f66:	f000 f9d1 	bl	800430c <_printf_common>
 8003f6a:	3001      	adds	r0, #1
 8003f6c:	f040 808c 	bne.w	8004088 <_printf_float+0x1cc>
 8003f70:	f04f 30ff 	mov.w	r0, #4294967295	@ 0xffffffff
 8003f74:	b00d      	add	sp, #52	@ 0x34
 8003f76:	e8bd 8ff0 	ldmia.w	sp!, {r4, r5, r6, r7, r8, r9, sl, fp, pc}
 8003f7a:	e9dd 2304 	ldrd	r2, r3, [sp, #16]
 8003f7e:	4610      	mov	r0, r2
 8003f80:	4619      	mov	r1, r3
 8003f82:	f7fc fdbb 	bl	8000afc <__aeabi_dcmpun>
 8003f86:	b140      	cbz	r0, 8003f9a <_printf_float+0xde>
 8003f88:	9b05      	ldr	r3, [sp, #20]
 8003f8a:	4a80      	ldr	r2, [pc, #512]	@ (800418c <_printf_float+0x2d0>)
 8003f8c:	2b00      	cmp	r3, #0
 8003f8e:	bfbc      	itt	lt
 8003f90:	232d      	movlt	r3, #45	@ 0x2d
 8003f92:	f884 3043 	strblt.w	r3, [r4, #67]	@ 0x43
 8003f96:	4b7e      	ldr	r3, [pc, #504]	@ (8004190 <_printf_float+0x2d4>)
 8003f98:	e7d4      	b.n	8003f44 <_printf_float+0x88>
 8003f9a:	6863      	ldr	r3, [r4, #4]
 8003f9c:	1c5a      	adds	r2, r3, #1
 8003f9e:	f00a 09df 	and.w	r9, sl, #223	@ 0xdf
 8003fa2:	d13b      	bne.n	800401c <_printf_float+0x160>
 8003fa4:	2306      	movs	r3, #6
 8003fa6:	6063      	str	r3, [r4, #4]
 8003fa8:	f44b 6280 	orr.w	r2, fp, #1024	@ 0x400
 8003fac:	2300      	movs	r3, #0
 8003fae:	6022      	str	r2, [r4, #0]
 8003fb0:	9303      	str	r3, [sp, #12]
 8003fb2:	ab0a      	add	r3, sp, #40	@ 0x28
 8003fb4:	e9cd a301 	strd	sl, r3, [sp, #4]
 8003fb8:	ab09      	add	r3, sp, #36	@ 0x24
 8003fba:	9300      	str	r3, [sp, #0]
 8003fbc:	6861      	ldr	r1, [r4, #4]
 8003fbe:	ed9d 0b04 	vldr	d0, [sp, #16]
 8003fc2:	f10d 0323 	add.w	r3, sp, #35	@ 0x23
 8003fc6:	4628      	mov	r0, r5
 8003fc8:	f7ff fed9 	bl	8003d7e <__cvt>
 8003fcc:	f1b9 0f47 	cmp.w	r9, #71	@ 0x47
 8003fd0:	9909      	ldr	r1, [sp, #36]	@ 0x24
 8003fd2:	4680      	mov	r8, r0
 8003fd4:	d129      	bne.n	800402a <_printf_float+0x16e>
 8003fd6:	1cc8      	adds	r0, r1, #3
 8003fd8:	db02      	blt.n	8003fe0 <_printf_float+0x124>
 8003fda:	6863      	ldr	r3, [r4, #4]
 8003fdc:	428b      	cmp	r3, r1
 8003fde:	da41      	bge.n	8004064 <_printf_float+0x1a8>
 8003fe0:	f1aa 0a02 	sub.w	sl, sl, #2
 8003fe4:	fa5f fa8a 	uxtb.w	sl, sl
 8003fe8:	3901      	subs	r1, #1
 8003fea:	4652      	mov	r2, sl
 8003fec:	f104 0050 	add.w	r0, r4, #80	@ 0x50
 8003ff0:	9109      	str	r1, [sp, #36]	@ 0x24
 8003ff2:	f7ff ff29 	bl	8003e48 <__exponent>
 8003ff6:	9a0a      	ldr	r2, [sp, #40]	@ 0x28
 8003ff8:	1813      	adds	r3, r2, r0
 8003ffa:	2a01      	cmp	r2, #1
 8003ffc:	4681      	mov	r9, r0
 8003ffe:	6123      	str	r3, [r4, #16]
 8004000:	dc02      	bgt.n	8004008 <_printf_float+0x14c>
 8004002:	6822      	ldr	r2, [r4, #0]
 8004004:	07d2      	lsls	r2, r2, #31
 8004006:	d501      	bpl.n	800400c <_printf_float+0x150>
 8004008:	3301      	adds	r3, #1
 800400a:	6123      	str	r3, [r4, #16]
 800400c:	f89d 3023 	ldrb.w	r3, [sp, #35]	@ 0x23
 8004010:	2b00      	cmp	r3, #0
 8004012:	d0a3      	beq.n	8003f5c <_printf_float+0xa0>
 8004014:	232d      	movs	r3, #45	@ 0x2d
 8004016:	f884 3043 	strb.w	r3, [r4, #67]	@ 0x43
 800401a:	e79f      	b.n	8003f5c <_printf_float+0xa0>
 800401c:	f1b9 0f47 	cmp.w	r9, #71	@ 0x47
 8004020:	d1c2      	bne.n	8003fa8 <_printf_float+0xec>
 8004022:	2b00      	cmp	r3, #0
 8004024:	d1c0      	bne.n	8003fa8 <_printf_float+0xec>
 8004026:	2301      	movs	r3, #1
 8004028:	e7bd      	b.n	8003fa6 <_printf_float+0xea>
 800402a:	f1ba 0f65 	cmp.w	sl, #101	@ 0x65
 800402e:	d9db      	bls.n	8003fe8 <_printf_float+0x12c>
 8004030:	f1ba 0f66 	cmp.w	sl, #102	@ 0x66
 8004034:	d118      	bne.n	8004068 <_printf_float+0x1ac>
 8004036:	2900      	cmp	r1, #0
 8004038:	6863      	ldr	r3, [r4, #4]
 800403a:	dd0b      	ble.n	8004054 <_printf_float+0x198>
 800403c:	6121      	str	r1, [r4, #16]
 800403e:	b913      	cbnz	r3, 8004046 <_printf_float+0x18a>
 8004040:	6822      	ldr	r2, [r4, #0]
 8004042:	07d0      	lsls	r0, r2, #31
 8004044:	d502      	bpl.n	800404c <_printf_float+0x190>
 8004046:	3301      	adds	r3, #1
 8004048:	440b      	add	r3, r1
 800404a:	6123      	str	r3, [r4, #16]
 800404c:	65a1      	str	r1, [r4, #88]	@ 0x58
 800404e:	f04f 0900 	mov.w	r9, #0
 8004052:	e7db      	b.n	800400c <_printf_float+0x150>
 8004054:	b913      	cbnz	r3, 800405c <_printf_float+0x1a0>
 8004056:	6822      	ldr	r2, [r4, #0]
 8004058:	07d2      	lsls	r2, r2, #31
 800405a:	d501      	bpl.n	8004060 <_printf_float+0x1a4>
 800405c:	3302      	adds	r3, #2
 800405e:	e7f4      	b.n	800404a <_printf_float+0x18e>
 8004060:	2301      	movs	r3, #1
 8004062:	e7f2      	b.n	800404a <_printf_float+0x18e>
 8004064:	f04f 0a67 	mov.w	sl, #103	@ 0x67
 8004068:	9b0a      	ldr	r3, [sp, #40]	@ 0x28
 800406a:	428b      	cmp	r3, r1
 800406c:	dc05      	bgt.n	800407a <_printf_float+0x1be>
 800406e:	6823      	ldr	r3, [r4, #0]
 8004070:	6121      	str	r1, [r4, #16]
 8004072:	07d8      	lsls	r0, r3, #31
 8004074:	d5ea      	bpl.n	800404c <_printf_float+0x190>
 8004076:	1c4b      	adds	r3, r1, #1
 8004078:	e7e7      	b.n	800404a <_printf_float+0x18e>
 800407a:	2900      	cmp	r1, #0
 800407c:	bfd4      	ite	le
 800407e:	f1c1 0202 	rsble	r2, r1, #2
 8004082:	2201      	movgt	r2, #1
 8004084:	4413      	add	r3, r2
 8004086:	e7e0      	b.n	800404a <_printf_float+0x18e>
 8004088:	6823      	ldr	r3, [r4, #0]
 800408a:	055a      	lsls	r2, r3, #21
 800408c:	d407      	bmi.n	800409e <_printf_float+0x1e2>
 800408e:	6923      	ldr	r3, [r4, #16]
 8004090:	4642      	mov	r2, r8
 8004092:	4631      	mov	r1, r6
 8004094:	4628      	mov	r0, r5
 8004096:	47b8      	blx	r7
 8004098:	3001      	adds	r0, #1
 800409a:	d12b      	bne.n	80040f4 <_printf_float+0x238>
 800409c:	e768      	b.n	8003f70 <_printf_float+0xb4>
 800409e:	f1ba 0f65 	cmp.w	sl, #101	@ 0x65
 80040a2:	f240 80dd 	bls.w	8004260 <_printf_float+0x3a4>
 80040a6:	e9d4 0112 	ldrd	r0, r1, [r4, #72]	@ 0x48
 80040aa:	2200      	movs	r2, #0
 80040ac:	2300      	movs	r3, #0
 80040ae:	f7fc fcf3 	bl	8000a98 <__aeabi_dcmpeq>
 80040b2:	2800      	cmp	r0, #0
 80040b4:	d033      	beq.n	800411e <_printf_float+0x262>
 80040b6:	4a37      	ldr	r2, [pc, #220]	@ (8004194 <_printf_float+0x2d8>)
 80040b8:	2301      	movs	r3, #1
 80040ba:	4631      	mov	r1, r6
 80040bc:	4628      	mov	r0, r5
 80040be:	47b8      	blx	r7
 80040c0:	3001      	adds	r0, #1
 80040c2:	f43f af55 	beq.w	8003f70 <_printf_float+0xb4>
 80040c6:	e9dd 3809 	ldrd	r3, r8, [sp, #36]	@ 0x24
 80040ca:	4543      	cmp	r3, r8
 80040cc:	db02      	blt.n	80040d4 <_printf_float+0x218>
 80040ce:	6823      	ldr	r3, [r4, #0]
 80040d0:	07d8      	lsls	r0, r3, #31
 80040d2:	d50f      	bpl.n	80040f4 <_printf_float+0x238>
 80040d4:	e9dd 2306 	ldrd	r2, r3, [sp, #24]
 80040d8:	4631      	mov	r1, r6
 80040da:	4628      	mov	r0, r5
 80040dc:	47b8      	blx	r7
 80040de:	3001      	adds	r0, #1
 80040e0:	f43f af46 	beq.w	8003f70 <_printf_float+0xb4>
 80040e4:	f04f 0900 	mov.w	r9, #0
 80040e8:	f108 38ff 	add.w	r8, r8, #4294967295	@ 0xffffffff
 80040ec:	f104 0a1a 	add.w	sl, r4, #26
 80040f0:	45c8      	cmp	r8, r9
 80040f2:	dc09      	bgt.n	8004108 <_printf_float+0x24c>
 80040f4:	6823      	ldr	r3, [r4, #0]
 80040f6:	079b      	lsls	r3, r3, #30
 80040f8:	f100 8103 	bmi.w	8004302 <_printf_float+0x446>
 80040fc:	68e0      	ldr	r0, [r4, #12]
 80040fe:	9b0b      	ldr	r3, [sp, #44]	@ 0x2c
 8004100:	4298      	cmp	r0, r3
 8004102:	bfb8      	it	lt
 8004104:	4618      	movlt	r0, r3
 8004106:	e735      	b.n	8003f74 <_printf_float+0xb8>
 8004108:	2301      	movs	r3, #1
 800410a:	4652      	mov	r2, sl
 800410c:	4631      	mov	r1, r6
 800410e:	4628      	mov	r0, r5
 8004110:	47b8      	blx	r7
 8004112:	3001      	adds	r0, #1
 8004114:	f43f af2c 	beq.w	8003f70 <_printf_float+0xb4>
 8004118:	f109 0901 	add.w	r9, r9, #1
 800411c:	e7e8      	b.n	80040f0 <_printf_float+0x234>
 800411e:	9b09      	ldr	r3, [sp, #36]	@ 0x24
 8004120:	2b00      	cmp	r3, #0
 8004122:	dc39      	bgt.n	8004198 <_printf_float+0x2dc>
 8004124:	4a1b      	ldr	r2, [pc, #108]	@ (8004194 <_printf_float+0x2d8>)
 8004126:	2301      	movs	r3, #1
 8004128:	4631      	mov	r1, r6
 800412a:	4628      	mov	r0, r5
 800412c:	47b8      	blx	r7
 800412e:	3001      	adds	r0, #1
 8004130:	f43f af1e 	beq.w	8003f70 <_printf_float+0xb4>
 8004134:	e9dd 3909 	ldrd	r3, r9, [sp, #36]	@ 0x24
 8004138:	ea59 0303 	orrs.w	r3, r9, r3
 800413c:	d102      	bne.n	8004144 <_printf_float+0x288>
 800413e:	6823      	ldr	r3, [r4, #0]
 8004140:	07d9      	lsls	r1, r3, #31
 8004142:	d5d7      	bpl.n	80040f4 <_printf_float+0x238>
 8004144:	e9dd 2306 	ldrd	r2, r3, [sp, #24]
 8004148:	4631      	mov	r1, r6
 800414a:	4628      	mov	r0, r5
 800414c:	47b8      	blx	r7
 800414e:	3001      	adds	r0, #1
 8004150:	f43f af0e 	beq.w	8003f70 <_printf_float+0xb4>
 8004154:	f04f 0a00 	mov.w	sl, #0
 8004158:	f104 0b1a 	add.w	fp, r4, #26
 800415c:	9b09      	ldr	r3, [sp, #36]	@ 0x24
 800415e:	425b      	negs	r3, r3
 8004160:	4553      	cmp	r3, sl
 8004162:	dc01      	bgt.n	8004168 <_printf_float+0x2ac>
 8004164:	464b      	mov	r3, r9
 8004166:	e793      	b.n	8004090 <_printf_float+0x1d4>
 8004168:	2301      	movs	r3, #1
 800416a:	465a      	mov	r2, fp
 800416c:	4631      	mov	r1, r6
 800416e:	4628      	mov	r0, r5
 8004170:	47b8      	blx	r7
 8004172:	3001      	adds	r0, #1
 8004174:	f43f aefc 	beq.w	8003f70 <_printf_float+0xb4>
 8004178:	f10a 0a01 	add.w	sl, sl, #1
 800417c:	e7ee      	b.n	800415c <_printf_float+0x2a0>
 800417e:	bf00      	nop
 8004180:	7fefffff 	.word	0x7fefffff
 8004184:	08007084 	.word	0x08007084
 8004188:	08007080 	.word	0x08007080
 800418c:	0800708c 	.word	0x0800708c
 8004190:	08007088 	.word	0x08007088
 8004194:	08007090 	.word	0x08007090
 8004198:	6da3      	ldr	r3, [r4, #88]	@ 0x58
 800419a:	f8dd a028 	ldr.w	sl, [sp, #40]	@ 0x28
 800419e:	4553      	cmp	r3, sl
 80041a0:	bfa8      	it	ge
 80041a2:	4653      	movge	r3, sl
 80041a4:	2b00      	cmp	r3, #0
 80041a6:	4699      	mov	r9, r3
 80041a8:	dc36      	bgt.n	8004218 <_printf_float+0x35c>
 80041aa:	f04f 0b00 	mov.w	fp, #0
 80041ae:	ea29 79e9 	bic.w	r9, r9, r9, asr #31
 80041b2:	f104 021a 	add.w	r2, r4, #26
 80041b6:	6da3      	ldr	r3, [r4, #88]	@ 0x58
 80041b8:	9304      	str	r3, [sp, #16]
 80041ba:	eba3 0309 	sub.w	r3, r3, r9
 80041be:	455b      	cmp	r3, fp
 80041c0:	dc31      	bgt.n	8004226 <_printf_float+0x36a>
 80041c2:	9b09      	ldr	r3, [sp, #36]	@ 0x24
 80041c4:	459a      	cmp	sl, r3
 80041c6:	dc3a      	bgt.n	800423e <_printf_float+0x382>
 80041c8:	6823      	ldr	r3, [r4, #0]
 80041ca:	07da      	lsls	r2, r3, #31
 80041cc:	d437      	bmi.n	800423e <_printf_float+0x382>
 80041ce:	9b09      	ldr	r3, [sp, #36]	@ 0x24
 80041d0:	ebaa 0903 	sub.w	r9, sl, r3
 80041d4:	9b04      	ldr	r3, [sp, #16]
 80041d6:	ebaa 0303 	sub.w	r3, sl, r3
 80041da:	4599      	cmp	r9, r3
 80041dc:	bfa8      	it	ge
 80041de:	4699      	movge	r9, r3
 80041e0:	f1b9 0f00 	cmp.w	r9, #0
 80041e4:	dc33      	bgt.n	800424e <_printf_float+0x392>
 80041e6:	f04f 0800 	mov.w	r8, #0
 80041ea:	ea29 79e9 	bic.w	r9, r9, r9, asr #31
 80041ee:	f104 0b1a 	add.w	fp, r4, #26
 80041f2:	9b09      	ldr	r3, [sp, #36]	@ 0x24
 80041f4:	ebaa 0303 	sub.w	r3, sl, r3
 80041f8:	eba3 0309 	sub.w	r3, r3, r9
 80041fc:	4543      	cmp	r3, r8
 80041fe:	f77f af79 	ble.w	80040f4 <_printf_float+0x238>
 8004202:	2301      	movs	r3, #1
 8004204:	465a      	mov	r2, fp
 8004206:	4631      	mov	r1, r6
 8004208:	4628      	mov	r0, r5
 800420a:	47b8      	blx	r7
 800420c:	3001      	adds	r0, #1
 800420e:	f43f aeaf 	beq.w	8003f70 <_printf_float+0xb4>
 8004212:	f108 0801 	add.w	r8, r8, #1
 8004216:	e7ec      	b.n	80041f2 <_printf_float+0x336>
 8004218:	4642      	mov	r2, r8
 800421a:	4631      	mov	r1, r6
 800421c:	4628      	mov	r0, r5
 800421e:	47b8      	blx	r7
 8004220:	3001      	adds	r0, #1
 8004222:	d1c2      	bne.n	80041aa <_printf_float+0x2ee>
 8004224:	e6a4      	b.n	8003f70 <_printf_float+0xb4>
 8004226:	2301      	movs	r3, #1
 8004228:	4631      	mov	r1, r6
 800422a:	4628      	mov	r0, r5
 800422c:	9204      	str	r2, [sp, #16]
 800422e:	47b8      	blx	r7
 8004230:	3001      	adds	r0, #1
 8004232:	f43f ae9d 	beq.w	8003f70 <_printf_float+0xb4>
 8004236:	9a04      	ldr	r2, [sp, #16]
 8004238:	f10b 0b01 	add.w	fp, fp, #1
 800423c:	e7bb      	b.n	80041b6 <_printf_float+0x2fa>
 800423e:	e9dd 2306 	ldrd	r2, r3, [sp, #24]
 8004242:	4631      	mov	r1, r6
 8004244:	4628      	mov	r0, r5
 8004246:	47b8      	blx	r7
 8004248:	3001      	adds	r0, #1
 800424a:	d1c0      	bne.n	80041ce <_printf_float+0x312>
 800424c:	e690      	b.n	8003f70 <_printf_float+0xb4>
 800424e:	9a04      	ldr	r2, [sp, #16]
 8004250:	464b      	mov	r3, r9
 8004252:	4442      	add	r2, r8
 8004254:	4631      	mov	r1, r6
 8004256:	4628      	mov	r0, r5
 8004258:	47b8      	blx	r7
 800425a:	3001      	adds	r0, #1
 800425c:	d1c3      	bne.n	80041e6 <_printf_float+0x32a>
 800425e:	e687      	b.n	8003f70 <_printf_float+0xb4>
 8004260:	f8dd a028 	ldr.w	sl, [sp, #40]	@ 0x28
 8004264:	f1ba 0f01 	cmp.w	sl, #1
 8004268:	dc01      	bgt.n	800426e <_printf_float+0x3b2>
 800426a:	07db      	lsls	r3, r3, #31
 800426c:	d536      	bpl.n	80042dc <_printf_float+0x420>
 800426e:	2301      	movs	r3, #1
 8004270:	4642      	mov	r2, r8
 8004272:	4631      	mov	r1, r6
 8004274:	4628      	mov	r0, r5
 8004276:	47b8      	blx	r7
 8004278:	3001      	adds	r0, #1
 800427a:	f43f ae79 	beq.w	8003f70 <_printf_float+0xb4>
 800427e:	e9dd 2306 	ldrd	r2, r3, [sp, #24]
 8004282:	4631      	mov	r1, r6
 8004284:	4628      	mov	r0, r5
 8004286:	47b8      	blx	r7
 8004288:	3001      	adds	r0, #1
 800428a:	f43f ae71 	beq.w	8003f70 <_printf_float+0xb4>
 800428e:	e9d4 0112 	ldrd	r0, r1, [r4, #72]	@ 0x48
 8004292:	2200      	movs	r2, #0
 8004294:	2300      	movs	r3, #0
 8004296:	f10a 3aff 	add.w	sl, sl, #4294967295	@ 0xffffffff
 800429a:	f7fc fbfd 	bl	8000a98 <__aeabi_dcmpeq>
 800429e:	b9c0      	cbnz	r0, 80042d2 <_printf_float+0x416>
 80042a0:	4653      	mov	r3, sl
 80042a2:	f108 0201 	add.w	r2, r8, #1
 80042a6:	4631      	mov	r1, r6
 80042a8:	4628      	mov	r0, r5
 80042aa:	47b8      	blx	r7
 80042ac:	3001      	adds	r0, #1
 80042ae:	d10c      	bne.n	80042ca <_printf_float+0x40e>
 80042b0:	e65e      	b.n	8003f70 <_printf_float+0xb4>
 80042b2:	2301      	movs	r3, #1
 80042b4:	465a      	mov	r2, fp
 80042b6:	4631      	mov	r1, r6
 80042b8:	4628      	mov	r0, r5
 80042ba:	47b8      	blx	r7
 80042bc:	3001      	adds	r0, #1
 80042be:	f43f ae57 	beq.w	8003f70 <_printf_float+0xb4>
 80042c2:	f108 0801 	add.w	r8, r8, #1
 80042c6:	45d0      	cmp	r8, sl
 80042c8:	dbf3      	blt.n	80042b2 <_printf_float+0x3f6>
 80042ca:	464b      	mov	r3, r9
 80042cc:	f104 0250 	add.w	r2, r4, #80	@ 0x50
 80042d0:	e6df      	b.n	8004092 <_printf_float+0x1d6>
 80042d2:	f04f 0800 	mov.w	r8, #0
 80042d6:	f104 0b1a 	add.w	fp, r4, #26
 80042da:	e7f4      	b.n	80042c6 <_printf_float+0x40a>
 80042dc:	2301      	movs	r3, #1
 80042de:	4642      	mov	r2, r8
 80042e0:	e7e1      	b.n	80042a6 <_printf_float+0x3ea>
 80042e2:	2301      	movs	r3, #1
 80042e4:	464a      	mov	r2, r9
 80042e6:	4631      	mov	r1, r6
 80042e8:	4628      	mov	r0, r5
 80042ea:	47b8      	blx	r7
 80042ec:	3001      	adds	r0, #1
 80042ee:	f43f ae3f 	beq.w	8003f70 <_printf_float+0xb4>
 80042f2:	f108 0801 	add.w	r8, r8, #1
 80042f6:	68e3      	ldr	r3, [r4, #12]
 80042f8:	990b      	ldr	r1, [sp, #44]	@ 0x2c
 80042fa:	1a5b      	subs	r3, r3, r1
 80042fc:	4543      	cmp	r3, r8
 80042fe:	dcf0      	bgt.n	80042e2 <_printf_float+0x426>
 8004300:	e6fc      	b.n	80040fc <_printf_float+0x240>
 8004302:	f04f 0800 	mov.w	r8, #0
 8004306:	f104 0919 	add.w	r9, r4, #25
 800430a:	e7f4      	b.n	80042f6 <_printf_float+0x43a>

0800430c <_printf_common>:
 800430c:	e92d 47f0 	stmdb	sp!, {r4, r5, r6, r7, r8, r9, sl, lr}
 8004310:	4616      	mov	r6, r2
 8004312:	4698      	mov	r8, r3
 8004314:	688a      	ldr	r2, [r1, #8]
 8004316:	690b      	ldr	r3, [r1, #16]
 8004318:	f8dd 9020 	ldr.w	r9, [sp, #32]
 800431c:	4293      	cmp	r3, r2
 800431e:	bfb8      	it	lt
 8004320:	4613      	movlt	r3, r2
 8004322:	6033      	str	r3, [r6, #0]
 8004324:	f891 2043 	ldrb.w	r2, [r1, #67]	@ 0x43
 8004328:	4607      	mov	r7, r0
 800432a:	460c      	mov	r4, r1
 800432c:	b10a      	cbz	r2, 8004332 <_printf_common+0x26>
 800432e:	3301      	adds	r3, #1
 8004330:	6033      	str	r3, [r6, #0]
 8004332:	6823      	ldr	r3, [r4, #0]
 8004334:	0699      	lsls	r1, r3, #26
 8004336:	bf42      	ittt	mi
 8004338:	6833      	ldrmi	r3, [r6, #0]
 800433a:	3302      	addmi	r3, #2
 800433c:	6033      	strmi	r3, [r6, #0]
 800433e:	6825      	ldr	r5, [r4, #0]
 8004340:	f015 0506 	ands.w	r5, r5, #6
 8004344:	d106      	bne.n	8004354 <_printf_common+0x48>
 8004346:	f104 0a19 	add.w	sl, r4, #25
 800434a:	68e3      	ldr	r3, [r4, #12]
 800434c:	6832      	ldr	r2, [r6, #0]
 800434e:	1a9b      	subs	r3, r3, r2
 8004350:	42ab      	cmp	r3, r5
 8004352:	dc26      	bgt.n	80043a2 <_printf_common+0x96>
 8004354:	f894 3043 	ldrb.w	r3, [r4, #67]	@ 0x43
 8004358:	6822      	ldr	r2, [r4, #0]
 800435a:	3b00      	subs	r3, #0
 800435c:	bf18      	it	ne
 800435e:	2301      	movne	r3, #1
 8004360:	0692      	lsls	r2, r2, #26
 8004362:	d42b      	bmi.n	80043bc <_printf_common+0xb0>
 8004364:	f104 0243 	add.w	r2, r4, #67	@ 0x43
 8004368:	4641      	mov	r1, r8
 800436a:	4638      	mov	r0, r7
 800436c:	47c8      	blx	r9
 800436e:	3001      	adds	r0, #1
 8004370:	d01e      	beq.n	80043b0 <_printf_common+0xa4>
 8004372:	6823      	ldr	r3, [r4, #0]
 8004374:	6922      	ldr	r2, [r4, #16]
 8004376:	f003 0306 	and.w	r3, r3, #6
 800437a:	2b04      	cmp	r3, #4
 800437c:	bf02      	ittt	eq
 800437e:	68e5      	ldreq	r5, [r4, #12]
 8004380:	6833      	ldreq	r3, [r6, #0]
 8004382:	1aed      	subeq	r5, r5, r3
 8004384:	68a3      	ldr	r3, [r4, #8]
 8004386:	bf0c      	ite	eq
 8004388:	ea25 75e5 	biceq.w	r5, r5, r5, asr #31
 800438c:	2500      	movne	r5, #0
 800438e:	4293      	cmp	r3, r2
 8004390:	bfc4      	itt	gt
 8004392:	1a9b      	subgt	r3, r3, r2
 8004394:	18ed      	addgt	r5, r5, r3
 8004396:	2600      	movs	r6, #0
 8004398:	341a      	adds	r4, #26
 800439a:	42b5      	cmp	r5, r6
 800439c:	d11a      	bne.n	80043d4 <_printf_common+0xc8>
 800439e:	2000      	movs	r0, #0
 80043a0:	e008      	b.n	80043b4 <_printf_common+0xa8>
 80043a2:	2301      	movs	r3, #1
 80043a4:	4652      	mov	r2, sl
 80043a6:	4641      	mov	r1, r8
 80043a8:	4638      	mov	r0, r7
 80043aa:	47c8      	blx	r9
 80043ac:	3001      	adds	r0, #1
 80043ae:	d103      	bne.n	80043b8 <_printf_common+0xac>
 80043b0:	f04f 30ff 	mov.w	r0, #4294967295	@ 0xffffffff
 80043b4:	e8bd 87f0 	ldmia.w	sp!, {r4, r5, r6, r7, r8, r9, sl, pc}
 80043b8:	3501      	adds	r5, #1
 80043ba:	e7c6      	b.n	800434a <_printf_common+0x3e>
 80043bc:	18e1      	adds	r1, r4, r3
 80043be:	1c5a      	adds	r2, r3, #1
 80043c0:	2030      	movs	r0, #48	@ 0x30
 80043c2:	f881 0043 	strb.w	r0, [r1, #67]	@ 0x43
 80043c6:	4422      	add	r2, r4
 80043c8:	f894 1045 	ldrb.w	r1, [r4, #69]	@ 0x45
 80043cc:	f882 1043 	strb.w	r1, [r2, #67]	@ 0x43
 80043d0:	3302      	adds	r3, #2
 80043d2:	e7c7      	b.n	8004364 <_printf_common+0x58>
 80043d4:	2301      	movs	r3, #1
 80043d6:	4622      	mov	r2, r4
 80043d8:	4641      	mov	r1, r8
 80043da:	4638      	mov	r0, r7
 80043dc:	47c8      	blx	r9
 80043de:	3001      	adds	r0, #1
 80043e0:	d0e6      	beq.n	80043b0 <_printf_common+0xa4>
 80043e2:	3601      	adds	r6, #1
 80043e4:	e7d9      	b.n	800439a <_printf_common+0x8e>
	...

080043e8 <_printf_i>:
 80043e8:	e92d 47ff 	stmdb	sp!, {r0, r1, r2, r3, r4, r5, r6, r7, r8, r9, sl, lr}
 80043ec:	7e0f      	ldrb	r7, [r1, #24]
 80043ee:	9e0c      	ldr	r6, [sp, #48]	@ 0x30
 80043f0:	2f78      	cmp	r7, #120	@ 0x78
 80043f2:	4691      	mov	r9, r2
 80043f4:	4680      	mov	r8, r0
 80043f6:	460c      	mov	r4, r1
 80043f8:	469a      	mov	sl, r3
 80043fa:	f101 0243 	add.w	r2, r1, #67	@ 0x43
 80043fe:	d807      	bhi.n	8004410 <_printf_i+0x28>
 8004400:	2f62      	cmp	r7, #98	@ 0x62
 8004402:	d80a      	bhi.n	800441a <_printf_i+0x32>
 8004404:	2f00      	cmp	r7, #0
 8004406:	f000 80d2 	beq.w	80045ae <_printf_i+0x1c6>
 800440a:	2f58      	cmp	r7, #88	@ 0x58
 800440c:	f000 80b7 	beq.w	800457e <_printf_i+0x196>
 8004410:	f104 0642 	add.w	r6, r4, #66	@ 0x42
 8004414:	f884 7042 	strb.w	r7, [r4, #66]	@ 0x42
 8004418:	e03a      	b.n	8004490 <_printf_i+0xa8>
 800441a:	f1a7 0363 	sub.w	r3, r7, #99	@ 0x63
 800441e:	2b15      	cmp	r3, #21
 8004420:	d8f6      	bhi.n	8004410 <_printf_i+0x28>
 8004422:	a101      	add	r1, pc, #4	@ (adr r1, 8004428 <_printf_i+0x40>)
 8004424:	f851 f023 	ldr.w	pc, [r1, r3, lsl #2]
 8004428:	08004481 	.word	0x08004481
 800442c:	08004495 	.word	0x08004495
 8004430:	08004411 	.word	0x08004411
 8004434:	08004411 	.word	0x08004411
 8004438:	08004411 	.word	0x08004411
 800443c:	08004411 	.word	0x08004411
 8004440:	08004495 	.word	0x08004495
 8004444:	08004411 	.word	0x08004411
 8004448:	08004411 	.word	0x08004411
 800444c:	08004411 	.word	0x08004411
 8004450:	08004411 	.word	0x08004411
 8004454:	08004595 	.word	0x08004595
 8004458:	080044bf 	.word	0x080044bf
 800445c:	0800454b 	.word	0x0800454b
 8004460:	08004411 	.word	0x08004411
 8004464:	08004411 	.word	0x08004411
 8004468:	080045b7 	.word	0x080045b7
 800446c:	08004411 	.word	0x08004411
 8004470:	080044bf 	.word	0x080044bf
 8004474:	08004411 	.word	0x08004411
 8004478:	08004411 	.word	0x08004411
 800447c:	08004553 	.word	0x08004553
 8004480:	6833      	ldr	r3, [r6, #0]
 8004482:	1d1a      	adds	r2, r3, #4
 8004484:	681b      	ldr	r3, [r3, #0]
 8004486:	6032      	str	r2, [r6, #0]
 8004488:	f104 0642 	add.w	r6, r4, #66	@ 0x42
 800448c:	f884 3042 	strb.w	r3, [r4, #66]	@ 0x42
 8004490:	2301      	movs	r3, #1
 8004492:	e09d      	b.n	80045d0 <_printf_i+0x1e8>
 8004494:	6833      	ldr	r3, [r6, #0]
 8004496:	6820      	ldr	r0, [r4, #0]
 8004498:	1d19      	adds	r1, r3, #4
 800449a:	6031      	str	r1, [r6, #0]
 800449c:	0606      	lsls	r6, r0, #24
 800449e:	d501      	bpl.n	80044a4 <_printf_i+0xbc>
 80044a0:	681d      	ldr	r5, [r3, #0]
 80044a2:	e003      	b.n	80044ac <_printf_i+0xc4>
 80044a4:	0645      	lsls	r5, r0, #25
 80044a6:	d5fb      	bpl.n	80044a0 <_printf_i+0xb8>
 80044a8:	f9b3 5000 	ldrsh.w	r5, [r3]
 80044ac:	2d00      	cmp	r5, #0
 80044ae:	da03      	bge.n	80044b8 <_printf_i+0xd0>
 80044b0:	232d      	movs	r3, #45	@ 0x2d
 80044b2:	426d      	negs	r5, r5
 80044b4:	f884 3043 	strb.w	r3, [r4, #67]	@ 0x43
 80044b8:	4859      	ldr	r0, [pc, #356]	@ (8004620 <_printf_i+0x238>)
 80044ba:	230a      	movs	r3, #10
 80044bc:	e010      	b.n	80044e0 <_printf_i+0xf8>
 80044be:	6821      	ldr	r1, [r4, #0]
 80044c0:	6833      	ldr	r3, [r6, #0]
 80044c2:	0608      	lsls	r0, r1, #24
 80044c4:	f853 5b04 	ldr.w	r5, [r3], #4
 80044c8:	d402      	bmi.n	80044d0 <_printf_i+0xe8>
 80044ca:	0649      	lsls	r1, r1, #25
 80044cc:	bf48      	it	mi
 80044ce:	b2ad      	uxthmi	r5, r5
 80044d0:	2f6f      	cmp	r7, #111	@ 0x6f
 80044d2:	4853      	ldr	r0, [pc, #332]	@ (8004620 <_printf_i+0x238>)
 80044d4:	6033      	str	r3, [r6, #0]
 80044d6:	d159      	bne.n	800458c <_printf_i+0x1a4>
 80044d8:	2308      	movs	r3, #8
 80044da:	2100      	movs	r1, #0
 80044dc:	f884 1043 	strb.w	r1, [r4, #67]	@ 0x43
 80044e0:	6866      	ldr	r6, [r4, #4]
 80044e2:	60a6      	str	r6, [r4, #8]
 80044e4:	2e00      	cmp	r6, #0
 80044e6:	db05      	blt.n	80044f4 <_printf_i+0x10c>
 80044e8:	6821      	ldr	r1, [r4, #0]
 80044ea:	432e      	orrs	r6, r5
 80044ec:	f021 0104 	bic.w	r1, r1, #4
 80044f0:	6021      	str	r1, [r4, #0]
 80044f2:	d04d      	beq.n	8004590 <_printf_i+0x1a8>
 80044f4:	4616      	mov	r6, r2
 80044f6:	fbb5 f1f3 	udiv	r1, r5, r3
 80044fa:	fb03 5711 	mls	r7, r3, r1, r5
 80044fe:	5dc7      	ldrb	r7, [r0, r7]
 8004500:	f806 7d01 	strb.w	r7, [r6, #-1]!
 8004504:	462f      	mov	r7, r5
 8004506:	42bb      	cmp	r3, r7
 8004508:	460d      	mov	r5, r1
 800450a:	d9f4      	bls.n	80044f6 <_printf_i+0x10e>
 800450c:	2b08      	cmp	r3, #8
 800450e:	d10b      	bne.n	8004528 <_printf_i+0x140>
 8004510:	6823      	ldr	r3, [r4, #0]
 8004512:	07df      	lsls	r7, r3, #31
 8004514:	d508      	bpl.n	8004528 <_printf_i+0x140>
 8004516:	6923      	ldr	r3, [r4, #16]
 8004518:	6861      	ldr	r1, [r4, #4]
 800451a:	4299      	cmp	r1, r3
 800451c:	bfde      	ittt	le
 800451e:	2330      	movle	r3, #48	@ 0x30
 8004520:	f806 3c01 	strble.w	r3, [r6, #-1]
 8004524:	f106 36ff 	addle.w	r6, r6, #4294967295	@ 0xffffffff
 8004528:	1b92      	subs	r2, r2, r6
 800452a:	6122      	str	r2, [r4, #16]
 800452c:	f8cd a000 	str.w	sl, [sp]
 8004530:	464b      	mov	r3, r9
 8004532:	aa03      	add	r2, sp, #12
 8004534:	4621      	mov	r1, r4
 8004536:	4640      	mov	r0, r8
 8004538:	f7ff fee8 	bl	800430c <_printf_common>
 800453c:	3001      	adds	r0, #1
 800453e:	d14c      	bne.n	80045da <_printf_i+0x1f2>
 8004540:	f04f 30ff 	mov.w	r0, #4294967295	@ 0xffffffff
 8004544:	b004      	add	sp, #16
 8004546:	e8bd 87f0 	ldmia.w	sp!, {r4, r5, r6, r7, r8, r9, sl, pc}
 800454a:	6823      	ldr	r3, [r4, #0]
 800454c:	f043 0320 	orr.w	r3, r3, #32
 8004550:	6023      	str	r3, [r4, #0]
 8004552:	4834      	ldr	r0, [pc, #208]	@ (8004624 <_printf_i+0x23c>)
 8004554:	2778      	movs	r7, #120	@ 0x78
 8004556:	f884 7045 	strb.w	r7, [r4, #69]	@ 0x45
 800455a:	6823      	ldr	r3, [r4, #0]
 800455c:	6831      	ldr	r1, [r6, #0]
 800455e:	061f      	lsls	r7, r3, #24
 8004560:	f851 5b04 	ldr.w	r5, [r1], #4
 8004564:	d402      	bmi.n	800456c <_printf_i+0x184>
 8004566:	065f      	lsls	r7, r3, #25
 8004568:	bf48      	it	mi
 800456a:	b2ad      	uxthmi	r5, r5
 800456c:	6031      	str	r1, [r6, #0]
 800456e:	07d9      	lsls	r1, r3, #31
 8004570:	bf44      	itt	mi
 8004572:	f043 0320 	orrmi.w	r3, r3, #32
 8004576:	6023      	strmi	r3, [r4, #0]
 8004578:	b11d      	cbz	r5, 8004582 <_printf_i+0x19a>
 800457a:	2310      	movs	r3, #16
 800457c:	e7ad      	b.n	80044da <_printf_i+0xf2>
 800457e:	4828      	ldr	r0, [pc, #160]	@ (8004620 <_printf_i+0x238>)
 8004580:	e7e9      	b.n	8004556 <_printf_i+0x16e>
 8004582:	6823      	ldr	r3, [r4, #0]
 8004584:	f023 0320 	bic.w	r3, r3, #32
 8004588:	6023      	str	r3, [r4, #0]
 800458a:	e7f6      	b.n	800457a <_printf_i+0x192>
 800458c:	230a      	movs	r3, #10
 800458e:	e7a4      	b.n	80044da <_printf_i+0xf2>
 8004590:	4616      	mov	r6, r2
 8004592:	e7bb      	b.n	800450c <_printf_i+0x124>
 8004594:	6833      	ldr	r3, [r6, #0]
 8004596:	6825      	ldr	r5, [r4, #0]
 8004598:	6961      	ldr	r1, [r4, #20]
 800459a:	1d18      	adds	r0, r3, #4
 800459c:	6030      	str	r0, [r6, #0]
 800459e:	062e      	lsls	r6, r5, #24
 80045a0:	681b      	ldr	r3, [r3, #0]
 80045a2:	d501      	bpl.n	80045a8 <_printf_i+0x1c0>
 80045a4:	6019      	str	r1, [r3, #0]
 80045a6:	e002      	b.n	80045ae <_printf_i+0x1c6>
 80045a8:	0668      	lsls	r0, r5, #25
 80045aa:	d5fb      	bpl.n	80045a4 <_printf_i+0x1bc>
 80045ac:	8019      	strh	r1, [r3, #0]
 80045ae:	2300      	movs	r3, #0
 80045b0:	6123      	str	r3, [r4, #16]
 80045b2:	4616      	mov	r6, r2
 80045b4:	e7ba      	b.n	800452c <_printf_i+0x144>
 80045b6:	6833      	ldr	r3, [r6, #0]
 80045b8:	1d1a      	adds	r2, r3, #4
 80045ba:	6032      	str	r2, [r6, #0]
 80045bc:	681e      	ldr	r6, [r3, #0]
 80045be:	6862      	ldr	r2, [r4, #4]
 80045c0:	2100      	movs	r1, #0
 80045c2:	4630      	mov	r0, r6
 80045c4:	f7fb fdec 	bl	80001a0 <memchr>
 80045c8:	b108      	cbz	r0, 80045ce <_printf_i+0x1e6>
 80045ca:	1b80      	subs	r0, r0, r6
 80045cc:	6060      	str	r0, [r4, #4]
 80045ce:	6863      	ldr	r3, [r4, #4]
 80045d0:	6123      	str	r3, [r4, #16]
 80045d2:	2300      	movs	r3, #0
 80045d4:	f884 3043 	strb.w	r3, [r4, #67]	@ 0x43
 80045d8:	e7a8      	b.n	800452c <_printf_i+0x144>
 80045da:	6923      	ldr	r3, [r4, #16]
 80045dc:	4632      	mov	r2, r6
 80045de:	4649      	mov	r1, r9
 80045e0:	4640      	mov	r0, r8
 80045e2:	47d0      	blx	sl
 80045e4:	3001      	adds	r0, #1
 80045e6:	d0ab      	beq.n	8004540 <_printf_i+0x158>
 80045e8:	6823      	ldr	r3, [r4, #0]
 80045ea:	079b      	lsls	r3, r3, #30
 80045ec:	d413      	bmi.n	8004616 <_printf_i+0x22e>
 80045ee:	68e0      	ldr	r0, [r4, #12]
 80045f0:	9b03      	ldr	r3, [sp, #12]
 80045f2:	4298      	cmp	r0, r3
 80045f4:	bfb8      	it	lt
 80045f6:	4618      	movlt	r0, r3
 80045f8:	e7a4      	b.n	8004544 <_printf_i+0x15c>
 80045fa:	2301      	movs	r3, #1
 80045fc:	4632      	mov	r2, r6
 80045fe:	4649      	mov	r1, r9
 8004600:	4640      	mov	r0, r8
 8004602:	47d0      	blx	sl
 8004604:	3001      	adds	r0, #1
 8004606:	d09b      	beq.n	8004540 <_printf_i+0x158>
 8004608:	3501      	adds	r5, #1
 800460a:	68e3      	ldr	r3, [r4, #12]
 800460c:	9903      	ldr	r1, [sp, #12]
 800460e:	1a5b      	subs	r3, r3, r1
 8004610:	42ab      	cmp	r3, r5
 8004612:	dcf2      	bgt.n	80045fa <_printf_i+0x212>
 8004614:	e7eb      	b.n	80045ee <_printf_i+0x206>
 8004616:	2500      	movs	r5, #0
 8004618:	f104 0619 	add.w	r6, r4, #25
 800461c:	e7f5      	b.n	800460a <_printf_i+0x222>
 800461e:	bf00      	nop
 8004620:	08007092 	.word	0x08007092
 8004624:	080070a3 	.word	0x080070a3

08004628 <std>:
 8004628:	2300      	movs	r3, #0
 800462a:	b510      	push	{r4, lr}
 800462c:	4604      	mov	r4, r0
 800462e:	e9c0 3300 	strd	r3, r3, [r0]
 8004632:	e9c0 3304 	strd	r3, r3, [r0, #16]
 8004636:	6083      	str	r3, [r0, #8]
 8004638:	8181      	strh	r1, [r0, #12]
 800463a:	6643      	str	r3, [r0, #100]	@ 0x64
 800463c:	81c2      	strh	r2, [r0, #14]
 800463e:	6183      	str	r3, [r0, #24]
 8004640:	4619      	mov	r1, r3
 8004642:	2208      	movs	r2, #8
 8004644:	305c      	adds	r0, #92	@ 0x5c
 8004646:	f000 f919 	bl	800487c <memset>
 800464a:	4b0d      	ldr	r3, [pc, #52]	@ (8004680 <std+0x58>)
 800464c:	6263      	str	r3, [r4, #36]	@ 0x24
 800464e:	4b0d      	ldr	r3, [pc, #52]	@ (8004684 <std+0x5c>)
 8004650:	62a3      	str	r3, [r4, #40]	@ 0x28
 8004652:	4b0d      	ldr	r3, [pc, #52]	@ (8004688 <std+0x60>)
 8004654:	62e3      	str	r3, [r4, #44]	@ 0x2c
 8004656:	4b0d      	ldr	r3, [pc, #52]	@ (800468c <std+0x64>)
 8004658:	6323      	str	r3, [r4, #48]	@ 0x30
 800465a:	4b0d      	ldr	r3, [pc, #52]	@ (8004690 <std+0x68>)
 800465c:	6224      	str	r4, [r4, #32]
 800465e:	429c      	cmp	r4, r3
 8004660:	d006      	beq.n	8004670 <std+0x48>
 8004662:	f103 0268 	add.w	r2, r3, #104	@ 0x68
 8004666:	4294      	cmp	r4, r2
 8004668:	d002      	beq.n	8004670 <std+0x48>
 800466a:	33d0      	adds	r3, #208	@ 0xd0
 800466c:	429c      	cmp	r4, r3
 800466e:	d105      	bne.n	800467c <std+0x54>
 8004670:	f104 0058 	add.w	r0, r4, #88	@ 0x58
 8004674:	e8bd 4010 	ldmia.w	sp!, {r4, lr}
 8004678:	f000 b98c 	b.w	8004994 <__retarget_lock_init_recursive>
 800467c:	bd10      	pop	{r4, pc}
 800467e:	bf00      	nop
 8004680:	080047f5 	.word	0x080047f5
 8004684:	08004817 	.word	0x08004817
 8004688:	0800484f 	.word	0x0800484f
 800468c:	08004875 	.word	0x08004875
 8004690:	200002f8 	.word	0x200002f8

08004694 <stdio_exit_handler>:
 8004694:	4a02      	ldr	r2, [pc, #8]	@ (80046a0 <stdio_exit_handler+0xc>)
 8004696:	4903      	ldr	r1, [pc, #12]	@ (80046a4 <stdio_exit_handler+0x10>)
 8004698:	4803      	ldr	r0, [pc, #12]	@ (80046a8 <stdio_exit_handler+0x14>)
 800469a:	f000 b86b 	b.w	8004774 <_fwalk_sglue>
 800469e:	bf00      	nop
 80046a0:	2000000c 	.word	0x2000000c
 80046a4:	0800634d 	.word	0x0800634d
 80046a8:	2000001c 	.word	0x2000001c

080046ac <cleanup_stdio>:
 80046ac:	6841      	ldr	r1, [r0, #4]
 80046ae:	4b0c      	ldr	r3, [pc, #48]	@ (80046e0 <cleanup_stdio+0x34>)
 80046b0:	4299      	cmp	r1, r3
 80046b2:	b510      	push	{r4, lr}
 80046b4:	4604      	mov	r4, r0
 80046b6:	d001      	beq.n	80046bc <cleanup_stdio+0x10>
 80046b8:	f001 fe48 	bl	800634c <_fflush_r>
 80046bc:	68a1      	ldr	r1, [r4, #8]
 80046be:	4b09      	ldr	r3, [pc, #36]	@ (80046e4 <cleanup_stdio+0x38>)
 80046c0:	4299      	cmp	r1, r3
 80046c2:	d002      	beq.n	80046ca <cleanup_stdio+0x1e>
 80046c4:	4620      	mov	r0, r4
 80046c6:	f001 fe41 	bl	800634c <_fflush_r>
 80046ca:	68e1      	ldr	r1, [r4, #12]
 80046cc:	4b06      	ldr	r3, [pc, #24]	@ (80046e8 <cleanup_stdio+0x3c>)
 80046ce:	4299      	cmp	r1, r3
 80046d0:	d004      	beq.n	80046dc <cleanup_stdio+0x30>
 80046d2:	4620      	mov	r0, r4
 80046d4:	e8bd 4010 	ldmia.w	sp!, {r4, lr}
 80046d8:	f001 be38 	b.w	800634c <_fflush_r>
 80046dc:	bd10      	pop	{r4, pc}
 80046de:	bf00      	nop
 80046e0:	200002f8 	.word	0x200002f8
 80046e4:	20000360 	.word	0x20000360
 80046e8:	200003c8 	.word	0x200003c8

080046ec <global_stdio_init.part.0>:
 80046ec:	4b0c      	ldr	r3, [pc, #48]	@ (8004720 <global_stdio_init.part.0+0x34>)
 80046ee:	4a0d      	ldr	r2, [pc, #52]	@ (8004724 <global_stdio_init.part.0+0x38>)
 80046f0:	480d      	ldr	r0, [pc, #52]	@ (8004728 <global_stdio_init.part.0+0x3c>)
 80046f2:	b510      	push	{r4, lr}
 80046f4:	2104      	movs	r1, #4
 80046f6:	601a      	str	r2, [r3, #0]
 80046f8:	2200      	movs	r2, #0
 80046fa:	f7ff ff95 	bl	8004628 <std>
 80046fe:	4b0a      	ldr	r3, [pc, #40]	@ (8004728 <global_stdio_init.part.0+0x3c>)
 8004700:	2201      	movs	r2, #1
 8004702:	461c      	mov	r4, r3
 8004704:	2109      	movs	r1, #9
 8004706:	f103 0068 	add.w	r0, r3, #104	@ 0x68
 800470a:	f7ff ff8d 	bl	8004628 <std>
 800470e:	f104 00d0 	add.w	r0, r4, #208	@ 0xd0
 8004712:	2202      	movs	r2, #2
 8004714:	e8bd 4010 	ldmia.w	sp!, {r4, lr}
 8004718:	2112      	movs	r1, #18
 800471a:	f7ff bf85 	b.w	8004628 <std>
 800471e:	bf00      	nop
 8004720:	20000430 	.word	0x20000430
 8004724:	08004695 	.word	0x08004695
 8004728:	200002f8 	.word	0x200002f8

0800472c <__sfp_lock_acquire>:
 800472c:	4801      	ldr	r0, [pc, #4]	@ (8004734 <__sfp_lock_acquire+0x8>)
 800472e:	f000 b932 	b.w	8004996 <__retarget_lock_acquire_recursive>
 8004732:	bf00      	nop
 8004734:	20000439 	.word	0x20000439

08004738 <__sfp_lock_release>:
 8004738:	4801      	ldr	r0, [pc, #4]	@ (8004740 <__sfp_lock_release+0x8>)
 800473a:	f000 b92d 	b.w	8004998 <__retarget_lock_release_recursive>
 800473e:	bf00      	nop
 8004740:	20000439 	.word	0x20000439

08004744 <__sinit>:
 8004744:	b510      	push	{r4, lr}
 8004746:	4604      	mov	r4, r0
 8004748:	f7ff fff0 	bl	800472c <__sfp_lock_acquire>
 800474c:	6a23      	ldr	r3, [r4, #32]
 800474e:	b11b      	cbz	r3, 8004758 <__sinit+0x14>
 8004750:	e8bd 4010 	ldmia.w	sp!, {r4, lr}
 8004754:	f7ff bff0 	b.w	8004738 <__sfp_lock_release>
 8004758:	4b04      	ldr	r3, [pc, #16]	@ (800476c <__sinit+0x28>)
 800475a:	6223      	str	r3, [r4, #32]
 800475c:	4b04      	ldr	r3, [pc, #16]	@ (8004770 <__sinit+0x2c>)
 800475e:	681b      	ldr	r3, [r3, #0]
 8004760:	2b00      	cmp	r3, #0
 8004762:	d1f5      	bne.n	8004750 <__sinit+0xc>
 8004764:	f7ff ffc2 	bl	80046ec <global_stdio_init.part.0>
 8004768:	e7f2      	b.n	8004750 <__sinit+0xc>
 800476a:	bf00      	nop
 800476c:	080046ad 	.word	0x080046ad
 8004770:	20000430 	.word	0x20000430

08004774 <_fwalk_sglue>:
 8004774:	e92d 43f8 	stmdb	sp!, {r3, r4, r5, r6, r7, r8, r9, lr}
 8004778:	4607      	mov	r7, r0
 800477a:	4688      	mov	r8, r1
 800477c:	4614      	mov	r4, r2
 800477e:	2600      	movs	r6, #0
 8004780:	e9d4 9501 	ldrd	r9, r5, [r4, #4]
 8004784:	f1b9 0901 	subs.w	r9, r9, #1
 8004788:	d505      	bpl.n	8004796 <_fwalk_sglue+0x22>
 800478a:	6824      	ldr	r4, [r4, #0]
 800478c:	2c00      	cmp	r4, #0
 800478e:	d1f7      	bne.n	8004780 <_fwalk_sglue+0xc>
 8004790:	4630      	mov	r0, r6
 8004792:	e8bd 83f8 	ldmia.w	sp!, {r3, r4, r5, r6, r7, r8, r9, pc}
 8004796:	89ab      	ldrh	r3, [r5, #12]
 8004798:	2b01      	cmp	r3, #1
 800479a:	d907      	bls.n	80047ac <_fwalk_sglue+0x38>
 800479c:	f9b5 300e 	ldrsh.w	r3, [r5, #14]
 80047a0:	3301      	adds	r3, #1
 80047a2:	d003      	beq.n	80047ac <_fwalk_sglue+0x38>
 80047a4:	4629      	mov	r1, r5
 80047a6:	4638      	mov	r0, r7
 80047a8:	47c0      	blx	r8
 80047aa:	4306      	orrs	r6, r0
 80047ac:	3568      	adds	r5, #104	@ 0x68
 80047ae:	e7e9      	b.n	8004784 <_fwalk_sglue+0x10>

080047b0 <siprintf>:
 80047b0:	b40e      	push	{r1, r2, r3}
 80047b2:	b510      	push	{r4, lr}
 80047b4:	b09d      	sub	sp, #116	@ 0x74
 80047b6:	ab1f      	add	r3, sp, #124	@ 0x7c
 80047b8:	9002      	str	r0, [sp, #8]
 80047ba:	9006      	str	r0, [sp, #24]
 80047bc:	f06f 4100 	mvn.w	r1, #2147483648	@ 0x80000000
 80047c0:	480a      	ldr	r0, [pc, #40]	@ (80047ec <siprintf+0x3c>)
 80047c2:	9107      	str	r1, [sp, #28]
 80047c4:	9104      	str	r1, [sp, #16]
 80047c6:	490a      	ldr	r1, [pc, #40]	@ (80047f0 <siprintf+0x40>)
 80047c8:	f853 2b04 	ldr.w	r2, [r3], #4
 80047cc:	9105      	str	r1, [sp, #20]
 80047ce:	2400      	movs	r4, #0
 80047d0:	a902      	add	r1, sp, #8
 80047d2:	6800      	ldr	r0, [r0, #0]
 80047d4:	9301      	str	r3, [sp, #4]
 80047d6:	941b      	str	r4, [sp, #108]	@ 0x6c
 80047d8:	f001 fc3a 	bl	8006050 <_svfiprintf_r>
 80047dc:	9b02      	ldr	r3, [sp, #8]
 80047de:	701c      	strb	r4, [r3, #0]
 80047e0:	b01d      	add	sp, #116	@ 0x74
 80047e2:	e8bd 4010 	ldmia.w	sp!, {r4, lr}
 80047e6:	b003      	add	sp, #12
 80047e8:	4770      	bx	lr
 80047ea:	bf00      	nop
 80047ec:	20000018 	.word	0x20000018
 80047f0:	ffff0208 	.word	0xffff0208

080047f4 <__sread>:
 80047f4:	b510      	push	{r4, lr}
 80047f6:	460c      	mov	r4, r1
 80047f8:	f9b1 100e 	ldrsh.w	r1, [r1, #14]
 80047fc:	f000 f87c 	bl	80048f8 <_read_r>
 8004800:	2800      	cmp	r0, #0
 8004802:	bfab      	itete	ge
 8004804:	6d63      	ldrge	r3, [r4, #84]	@ 0x54
 8004806:	89a3      	ldrhlt	r3, [r4, #12]
 8004808:	181b      	addge	r3, r3, r0
 800480a:	f423 5380 	biclt.w	r3, r3, #4096	@ 0x1000
 800480e:	bfac      	ite	ge
 8004810:	6563      	strge	r3, [r4, #84]	@ 0x54
 8004812:	81a3      	strhlt	r3, [r4, #12]
 8004814:	bd10      	pop	{r4, pc}

08004816 <__swrite>:
 8004816:	e92d 41f0 	stmdb	sp!, {r4, r5, r6, r7, r8, lr}
 800481a:	461f      	mov	r7, r3
 800481c:	898b      	ldrh	r3, [r1, #12]
 800481e:	05db      	lsls	r3, r3, #23
 8004820:	4605      	mov	r5, r0
 8004822:	460c      	mov	r4, r1
 8004824:	4616      	mov	r6, r2
 8004826:	d505      	bpl.n	8004834 <__swrite+0x1e>
 8004828:	f9b1 100e 	ldrsh.w	r1, [r1, #14]
 800482c:	2302      	movs	r3, #2
 800482e:	2200      	movs	r2, #0
 8004830:	f000 f850 	bl	80048d4 <_lseek_r>
 8004834:	89a3      	ldrh	r3, [r4, #12]
 8004836:	f9b4 100e 	ldrsh.w	r1, [r4, #14]
 800483a:	f423 5380 	bic.w	r3, r3, #4096	@ 0x1000
 800483e:	81a3      	strh	r3, [r4, #12]
 8004840:	4632      	mov	r2, r6
 8004842:	463b      	mov	r3, r7
 8004844:	4628      	mov	r0, r5
 8004846:	e8bd 41f0 	ldmia.w	sp!, {r4, r5, r6, r7, r8, lr}
 800484a:	f000 b867 	b.w	800491c <_write_r>

0800484e <__sseek>:
 800484e:	b510      	push	{r4, lr}
 8004850:	460c      	mov	r4, r1
 8004852:	f9b1 100e 	ldrsh.w	r1, [r1, #14]
 8004856:	f000 f83d 	bl	80048d4 <_lseek_r>
 800485a:	f9b4 300c 	ldrsh.w	r3, [r4, #12]
 800485e:	1c42      	adds	r2, r0, #1
 8004860:	bf0b      	itete	eq
 8004862:	f423 5380 	biceq.w	r3, r3, #4096	@ 0x1000
 8004866:	f443 5380 	orrne.w	r3, r3, #4096	@ 0x1000
 800486a:	81a3      	strheq	r3, [r4, #12]
 800486c:	81a3      	strhne	r3, [r4, #12]
 800486e:	bf18      	it	ne
 8004870:	6560      	strne	r0, [r4, #84]	@ 0x54
 8004872:	bd10      	pop	{r4, pc}

08004874 <__sclose>:
 8004874:	f9b1 100e 	ldrsh.w	r1, [r1, #14]
 8004878:	f000 b81c 	b.w	80048b4 <_close_r>

0800487c <memset>:
 800487c:	4402      	add	r2, r0
 800487e:	4603      	mov	r3, r0
 8004880:	4293      	cmp	r3, r2
 8004882:	d100      	bne.n	8004886 <memset+0xa>
 8004884:	4770      	bx	lr
 8004886:	f803 1b01 	strb.w	r1, [r3], #1
 800488a:	e7f9      	b.n	8004880 <memset+0x4>

0800488c <strcat>:
 800488c:	b510      	push	{r4, lr}
 800488e:	4602      	mov	r2, r0
 8004890:	7814      	ldrb	r4, [r2, #0]
 8004892:	4613      	mov	r3, r2
 8004894:	3201      	adds	r2, #1
 8004896:	2c00      	cmp	r4, #0
 8004898:	d1fa      	bne.n	8004890 <strcat+0x4>
 800489a:	3b01      	subs	r3, #1
 800489c:	f811 2b01 	ldrb.w	r2, [r1], #1
 80048a0:	f803 2f01 	strb.w	r2, [r3, #1]!
 80048a4:	2a00      	cmp	r2, #0
 80048a6:	d1f9      	bne.n	800489c <strcat+0x10>
 80048a8:	bd10      	pop	{r4, pc}
	...

080048ac <_localeconv_r>:
 80048ac:	4800      	ldr	r0, [pc, #0]	@ (80048b0 <_localeconv_r+0x4>)
 80048ae:	4770      	bx	lr
 80048b0:	20000158 	.word	0x20000158

080048b4 <_close_r>:
 80048b4:	b538      	push	{r3, r4, r5, lr}
 80048b6:	4d06      	ldr	r5, [pc, #24]	@ (80048d0 <_close_r+0x1c>)
 80048b8:	2300      	movs	r3, #0
 80048ba:	4604      	mov	r4, r0
 80048bc:	4608      	mov	r0, r1
 80048be:	602b      	str	r3, [r5, #0]
 80048c0:	f7ff f8ca 	bl	8003a58 <_close>
 80048c4:	1c43      	adds	r3, r0, #1
 80048c6:	d102      	bne.n	80048ce <_close_r+0x1a>
 80048c8:	682b      	ldr	r3, [r5, #0]
 80048ca:	b103      	cbz	r3, 80048ce <_close_r+0x1a>
 80048cc:	6023      	str	r3, [r4, #0]
 80048ce:	bd38      	pop	{r3, r4, r5, pc}
 80048d0:	20000434 	.word	0x20000434

080048d4 <_lseek_r>:
 80048d4:	b538      	push	{r3, r4, r5, lr}
 80048d6:	4d07      	ldr	r5, [pc, #28]	@ (80048f4 <_lseek_r+0x20>)
 80048d8:	4604      	mov	r4, r0
 80048da:	4608      	mov	r0, r1
 80048dc:	4611      	mov	r1, r2
 80048de:	2200      	movs	r2, #0
 80048e0:	602a      	str	r2, [r5, #0]
 80048e2:	461a      	mov	r2, r3
 80048e4:	f7ff f8c2 	bl	8003a6c <_lseek>
 80048e8:	1c43      	adds	r3, r0, #1
 80048ea:	d102      	bne.n	80048f2 <_lseek_r+0x1e>
 80048ec:	682b      	ldr	r3, [r5, #0]
 80048ee:	b103      	cbz	r3, 80048f2 <_lseek_r+0x1e>
 80048f0:	6023      	str	r3, [r4, #0]
 80048f2:	bd38      	pop	{r3, r4, r5, pc}
 80048f4:	20000434 	.word	0x20000434

080048f8 <_read_r>:
 80048f8:	b538      	push	{r3, r4, r5, lr}
 80048fa:	4d07      	ldr	r5, [pc, #28]	@ (8004918 <_read_r+0x20>)
 80048fc:	4604      	mov	r4, r0
 80048fe:	4608      	mov	r0, r1
 8004900:	4611      	mov	r1, r2
 8004902:	2200      	movs	r2, #0
 8004904:	602a      	str	r2, [r5, #0]
 8004906:	461a      	mov	r2, r3
 8004908:	f7ff f888 	bl	8003a1c <_read>
 800490c:	1c43      	adds	r3, r0, #1
 800490e:	d102      	bne.n	8004916 <_read_r+0x1e>
 8004910:	682b      	ldr	r3, [r5, #0]
 8004912:	b103      	cbz	r3, 8004916 <_read_r+0x1e>
 8004914:	6023      	str	r3, [r4, #0]
 8004916:	bd38      	pop	{r3, r4, r5, pc}
 8004918:	20000434 	.word	0x20000434

0800491c <_write_r>:
 800491c:	b538      	push	{r3, r4, r5, lr}
 800491e:	4d07      	ldr	r5, [pc, #28]	@ (800493c <_write_r+0x20>)
 8004920:	4604      	mov	r4, r0
 8004922:	4608      	mov	r0, r1
 8004924:	4611      	mov	r1, r2
 8004926:	2200      	movs	r2, #0
 8004928:	602a      	str	r2, [r5, #0]
 800492a:	461a      	mov	r2, r3
 800492c:	f7ff f886 	bl	8003a3c <_write>
 8004930:	1c43      	adds	r3, r0, #1
 8004932:	d102      	bne.n	800493a <_write_r+0x1e>
 8004934:	682b      	ldr	r3, [r5, #0]
 8004936:	b103      	cbz	r3, 800493a <_write_r+0x1e>
 8004938:	6023      	str	r3, [r4, #0]
 800493a:	bd38      	pop	{r3, r4, r5, pc}
 800493c:	20000434 	.word	0x20000434

08004940 <__errno>:
 8004940:	4b01      	ldr	r3, [pc, #4]	@ (8004948 <__errno+0x8>)
 8004942:	6818      	ldr	r0, [r3, #0]
 8004944:	4770      	bx	lr
 8004946:	bf00      	nop
 8004948:	20000018 	.word	0x20000018

0800494c <__libc_init_array>:
 800494c:	b570      	push	{r4, r5, r6, lr}
 800494e:	4b0d      	ldr	r3, [pc, #52]	@ (8004984 <__libc_init_array+0x38>)
 8004950:	4d0d      	ldr	r5, [pc, #52]	@ (8004988 <__libc_init_array+0x3c>)
 8004952:	1b5b      	subs	r3, r3, r5
 8004954:	109c      	asrs	r4, r3, #2
 8004956:	2600      	movs	r6, #0
 8004958:	42a6      	cmp	r6, r4
 800495a:	d109      	bne.n	8004970 <__libc_init_array+0x24>
 800495c:	f002 f9ec 	bl	8006d38 <_init>
 8004960:	4d0a      	ldr	r5, [pc, #40]	@ (800498c <__libc_init_array+0x40>)
 8004962:	4b0b      	ldr	r3, [pc, #44]	@ (8004990 <__libc_init_array+0x44>)
 8004964:	1b5b      	subs	r3, r3, r5
 8004966:	109c      	asrs	r4, r3, #2
 8004968:	2600      	movs	r6, #0
 800496a:	42a6      	cmp	r6, r4
 800496c:	d105      	bne.n	800497a <__libc_init_array+0x2e>
 800496e:	bd70      	pop	{r4, r5, r6, pc}
 8004970:	f855 3b04 	ldr.w	r3, [r5], #4
 8004974:	4798      	blx	r3
 8004976:	3601      	adds	r6, #1
 8004978:	e7ee      	b.n	8004958 <__libc_init_array+0xc>
 800497a:	f855 3b04 	ldr.w	r3, [r5], #4
 800497e:	4798      	blx	r3
 8004980:	3601      	adds	r6, #1
 8004982:	e7f2      	b.n	800496a <__libc_init_array+0x1e>
 8004984:	080073d4 	.word	0x080073d4
 8004988:	080073d4 	.word	0x080073d4
 800498c:	080073d4 	.word	0x080073d4
 8004990:	080073d8 	.word	0x080073d8

08004994 <__retarget_lock_init_recursive>:
 8004994:	4770      	bx	lr

08004996 <__retarget_lock_acquire_recursive>:
 8004996:	4770      	bx	lr

08004998 <__retarget_lock_release_recursive>:
 8004998:	4770      	bx	lr

0800499a <quorem>:
 800499a:	e92d 4ff7 	stmdb	sp!, {r0, r1, r2, r4, r5, r6, r7, r8, r9, sl, fp, lr}
 800499e:	6903      	ldr	r3, [r0, #16]
 80049a0:	690c      	ldr	r4, [r1, #16]
 80049a2:	42a3      	cmp	r3, r4
 80049a4:	4607      	mov	r7, r0
 80049a6:	db7e      	blt.n	8004aa6 <quorem+0x10c>
 80049a8:	3c01      	subs	r4, #1
 80049aa:	f101 0814 	add.w	r8, r1, #20
 80049ae:	00a3      	lsls	r3, r4, #2
 80049b0:	f100 0514 	add.w	r5, r0, #20
 80049b4:	9300      	str	r3, [sp, #0]
 80049b6:	eb05 0384 	add.w	r3, r5, r4, lsl #2
 80049ba:	9301      	str	r3, [sp, #4]
 80049bc:	f858 3024 	ldr.w	r3, [r8, r4, lsl #2]
 80049c0:	f855 2024 	ldr.w	r2, [r5, r4, lsl #2]
 80049c4:	3301      	adds	r3, #1
 80049c6:	429a      	cmp	r2, r3
 80049c8:	eb08 0984 	add.w	r9, r8, r4, lsl #2
 80049cc:	fbb2 f6f3 	udiv	r6, r2, r3
 80049d0:	d32e      	bcc.n	8004a30 <quorem+0x96>
 80049d2:	f04f 0a00 	mov.w	sl, #0
 80049d6:	46c4      	mov	ip, r8
 80049d8:	46ae      	mov	lr, r5
 80049da:	46d3      	mov	fp, sl
 80049dc:	f85c 3b04 	ldr.w	r3, [ip], #4
 80049e0:	b298      	uxth	r0, r3
 80049e2:	fb06 a000 	mla	r0, r6, r0, sl
 80049e6:	0c02      	lsrs	r2, r0, #16
 80049e8:	0c1b      	lsrs	r3, r3, #16
 80049ea:	fb06 2303 	mla	r3, r6, r3, r2
 80049ee:	f8de 2000 	ldr.w	r2, [lr]
 80049f2:	b280      	uxth	r0, r0
 80049f4:	b292      	uxth	r2, r2
 80049f6:	1a12      	subs	r2, r2, r0
 80049f8:	445a      	add	r2, fp
 80049fa:	f8de 0000 	ldr.w	r0, [lr]
 80049fe:	ea4f 4a13 	mov.w	sl, r3, lsr #16
 8004a02:	b29b      	uxth	r3, r3
 8004a04:	ebc3 4322 	rsb	r3, r3, r2, asr #16
 8004a08:	eb03 4310 	add.w	r3, r3, r0, lsr #16
 8004a0c:	b292      	uxth	r2, r2
 8004a0e:	ea42 4203 	orr.w	r2, r2, r3, lsl #16
 8004a12:	45e1      	cmp	r9, ip
 8004a14:	f84e 2b04 	str.w	r2, [lr], #4
 8004a18:	ea4f 4b23 	mov.w	fp, r3, asr #16
 8004a1c:	d2de      	bcs.n	80049dc <quorem+0x42>
 8004a1e:	9b00      	ldr	r3, [sp, #0]
 8004a20:	58eb      	ldr	r3, [r5, r3]
 8004a22:	b92b      	cbnz	r3, 8004a30 <quorem+0x96>
 8004a24:	9b01      	ldr	r3, [sp, #4]
 8004a26:	3b04      	subs	r3, #4
 8004a28:	429d      	cmp	r5, r3
 8004a2a:	461a      	mov	r2, r3
 8004a2c:	d32f      	bcc.n	8004a8e <quorem+0xf4>
 8004a2e:	613c      	str	r4, [r7, #16]
 8004a30:	4638      	mov	r0, r7
 8004a32:	f001 f9a1 	bl	8005d78 <__mcmp>
 8004a36:	2800      	cmp	r0, #0
 8004a38:	db25      	blt.n	8004a86 <quorem+0xec>
 8004a3a:	4629      	mov	r1, r5
 8004a3c:	2000      	movs	r0, #0
 8004a3e:	f858 2b04 	ldr.w	r2, [r8], #4
 8004a42:	f8d1 c000 	ldr.w	ip, [r1]
 8004a46:	fa1f fe82 	uxth.w	lr, r2
 8004a4a:	fa1f f38c 	uxth.w	r3, ip
 8004a4e:	eba3 030e 	sub.w	r3, r3, lr
 8004a52:	4403      	add	r3, r0
 8004a54:	0c12      	lsrs	r2, r2, #16
 8004a56:	ebc2 4223 	rsb	r2, r2, r3, asr #16
 8004a5a:	eb02 421c 	add.w	r2, r2, ip, lsr #16
 8004a5e:	b29b      	uxth	r3, r3
 8004a60:	ea43 4302 	orr.w	r3, r3, r2, lsl #16
 8004a64:	45c1      	cmp	r9, r8
 8004a66:	f841 3b04 	str.w	r3, [r1], #4
 8004a6a:	ea4f 4022 	mov.w	r0, r2, asr #16
 8004a6e:	d2e6      	bcs.n	8004a3e <quorem+0xa4>
 8004a70:	f855 2024 	ldr.w	r2, [r5, r4, lsl #2]
 8004a74:	eb05 0384 	add.w	r3, r5, r4, lsl #2
 8004a78:	b922      	cbnz	r2, 8004a84 <quorem+0xea>
 8004a7a:	3b04      	subs	r3, #4
 8004a7c:	429d      	cmp	r5, r3
 8004a7e:	461a      	mov	r2, r3
 8004a80:	d30b      	bcc.n	8004a9a <quorem+0x100>
 8004a82:	613c      	str	r4, [r7, #16]
 8004a84:	3601      	adds	r6, #1
 8004a86:	4630      	mov	r0, r6
 8004a88:	b003      	add	sp, #12
 8004a8a:	e8bd 8ff0 	ldmia.w	sp!, {r4, r5, r6, r7, r8, r9, sl, fp, pc}
 8004a8e:	6812      	ldr	r2, [r2, #0]
 8004a90:	3b04      	subs	r3, #4
 8004a92:	2a00      	cmp	r2, #0
 8004a94:	d1cb      	bne.n	8004a2e <quorem+0x94>
 8004a96:	3c01      	subs	r4, #1
 8004a98:	e7c6      	b.n	8004a28 <quorem+0x8e>
 8004a9a:	6812      	ldr	r2, [r2, #0]
 8004a9c:	3b04      	subs	r3, #4
 8004a9e:	2a00      	cmp	r2, #0
 8004aa0:	d1ef      	bne.n	8004a82 <quorem+0xe8>
 8004aa2:	3c01      	subs	r4, #1
 8004aa4:	e7ea      	b.n	8004a7c <quorem+0xe2>
 8004aa6:	2000      	movs	r0, #0
 8004aa8:	e7ee      	b.n	8004a88 <quorem+0xee>
 8004aaa:	0000      	movs	r0, r0
 8004aac:	0000      	movs	r0, r0
	...

08004ab0 <_dtoa_r>:
 8004ab0:	e92d 4ff0 	stmdb	sp!, {r4, r5, r6, r7, r8, r9, sl, fp, lr}
 8004ab4:	b099      	sub	sp, #100	@ 0x64
 8004ab6:	ed8d 0b0e 	vstr	d0, [sp, #56]	@ 0x38
 8004aba:	920c      	str	r2, [sp, #48]	@ 0x30
 8004abc:	69c2      	ldr	r2, [r0, #28]
 8004abe:	9c22      	ldr	r4, [sp, #136]	@ 0x88
 8004ac0:	910a      	str	r1, [sp, #40]	@ 0x28
 8004ac2:	ec57 6b10 	vmov	r6, r7, d0
 8004ac6:	4681      	mov	r9, r0
 8004ac8:	9313      	str	r3, [sp, #76]	@ 0x4c
 8004aca:	b982      	cbnz	r2, 8004aee <_dtoa_r+0x3e>
 8004acc:	2010      	movs	r0, #16
 8004ace:	f000 fe21 	bl	8005714 <malloc>
 8004ad2:	4602      	mov	r2, r0
 8004ad4:	f8c9 001c 	str.w	r0, [r9, #28]
 8004ad8:	b920      	cbnz	r0, 8004ae4 <_dtoa_r+0x34>
 8004ada:	4bb1      	ldr	r3, [pc, #708]	@ (8004da0 <_dtoa_r+0x2f0>)
 8004adc:	21ef      	movs	r1, #239	@ 0xef
 8004ade:	48b1      	ldr	r0, [pc, #708]	@ (8004da4 <_dtoa_r+0x2f4>)
 8004ae0:	f001 fc94 	bl	800640c <__assert_func>
 8004ae4:	2300      	movs	r3, #0
 8004ae6:	e9c0 3301 	strd	r3, r3, [r0, #4]
 8004aea:	6003      	str	r3, [r0, #0]
 8004aec:	60c3      	str	r3, [r0, #12]
 8004aee:	6811      	ldr	r1, [r2, #0]
 8004af0:	b159      	cbz	r1, 8004b0a <_dtoa_r+0x5a>
 8004af2:	6852      	ldr	r2, [r2, #4]
 8004af4:	604a      	str	r2, [r1, #4]
 8004af6:	2301      	movs	r3, #1
 8004af8:	4093      	lsls	r3, r2
 8004afa:	608b      	str	r3, [r1, #8]
 8004afc:	4648      	mov	r0, r9
 8004afe:	f000 fefd 	bl	80058fc <_Bfree>
 8004b02:	f8d9 301c 	ldr.w	r3, [r9, #28]
 8004b06:	2200      	movs	r2, #0
 8004b08:	601a      	str	r2, [r3, #0]
 8004b0a:	f1b7 0800 	subs.w	r8, r7, #0
 8004b0e:	bfb5      	itete	lt
 8004b10:	2301      	movlt	r3, #1
 8004b12:	2300      	movge	r3, #0
 8004b14:	6023      	strlt	r3, [r4, #0]
 8004b16:	6023      	strge	r3, [r4, #0]
 8004b18:	4ba3      	ldr	r3, [pc, #652]	@ (8004da8 <_dtoa_r+0x2f8>)
 8004b1a:	bfbc      	itt	lt
 8004b1c:	f028 4800 	biclt.w	r8, r8, #2147483648	@ 0x80000000
 8004b20:	f8cd 803c 	strlt.w	r8, [sp, #60]	@ 0x3c
 8004b24:	ea33 0308 	bics.w	r3, r3, r8
 8004b28:	d11a      	bne.n	8004b60 <_dtoa_r+0xb0>
 8004b2a:	9a13      	ldr	r2, [sp, #76]	@ 0x4c
 8004b2c:	f3c8 0813 	ubfx	r8, r8, #0, #20
 8004b30:	f242 730f 	movw	r3, #9999	@ 0x270f
 8004b34:	ea58 0806 	orrs.w	r8, r8, r6
 8004b38:	6013      	str	r3, [r2, #0]
 8004b3a:	f000 8574 	beq.w	8005626 <_dtoa_r+0xb76>
 8004b3e:	9b23      	ldr	r3, [sp, #140]	@ 0x8c
 8004b40:	b953      	cbnz	r3, 8004b58 <_dtoa_r+0xa8>
 8004b42:	4b9a      	ldr	r3, [pc, #616]	@ (8004dac <_dtoa_r+0x2fc>)
 8004b44:	e021      	b.n	8004b8a <_dtoa_r+0xda>
 8004b46:	4b9a      	ldr	r3, [pc, #616]	@ (8004db0 <_dtoa_r+0x300>)
 8004b48:	9300      	str	r3, [sp, #0]
 8004b4a:	3308      	adds	r3, #8
 8004b4c:	9a23      	ldr	r2, [sp, #140]	@ 0x8c
 8004b4e:	6013      	str	r3, [r2, #0]
 8004b50:	9800      	ldr	r0, [sp, #0]
 8004b52:	b019      	add	sp, #100	@ 0x64
 8004b54:	e8bd 8ff0 	ldmia.w	sp!, {r4, r5, r6, r7, r8, r9, sl, fp, pc}
 8004b58:	4b94      	ldr	r3, [pc, #592]	@ (8004dac <_dtoa_r+0x2fc>)
 8004b5a:	9300      	str	r3, [sp, #0]
 8004b5c:	3303      	adds	r3, #3
 8004b5e:	e7f5      	b.n	8004b4c <_dtoa_r+0x9c>
 8004b60:	ed9d 7b0e 	vldr	d7, [sp, #56]	@ 0x38
 8004b64:	2200      	movs	r2, #0
 8004b66:	ec51 0b17 	vmov	r0, r1, d7
 8004b6a:	2300      	movs	r3, #0
 8004b6c:	ed8d 7b06 	vstr	d7, [sp, #24]
 8004b70:	f7fb ff92 	bl	8000a98 <__aeabi_dcmpeq>
 8004b74:	4682      	mov	sl, r0
 8004b76:	b150      	cbz	r0, 8004b8e <_dtoa_r+0xde>
 8004b78:	9a13      	ldr	r2, [sp, #76]	@ 0x4c
 8004b7a:	2301      	movs	r3, #1
 8004b7c:	6013      	str	r3, [r2, #0]
 8004b7e:	9b23      	ldr	r3, [sp, #140]	@ 0x8c
 8004b80:	b113      	cbz	r3, 8004b88 <_dtoa_r+0xd8>
 8004b82:	9a23      	ldr	r2, [sp, #140]	@ 0x8c
 8004b84:	4b8b      	ldr	r3, [pc, #556]	@ (8004db4 <_dtoa_r+0x304>)
 8004b86:	6013      	str	r3, [r2, #0]
 8004b88:	4b8b      	ldr	r3, [pc, #556]	@ (8004db8 <_dtoa_r+0x308>)
 8004b8a:	9300      	str	r3, [sp, #0]
 8004b8c:	e7e0      	b.n	8004b50 <_dtoa_r+0xa0>
 8004b8e:	ed9d 0b06 	vldr	d0, [sp, #24]
 8004b92:	aa16      	add	r2, sp, #88	@ 0x58
 8004b94:	a917      	add	r1, sp, #92	@ 0x5c
 8004b96:	4648      	mov	r0, r9
 8004b98:	f001 f9a2 	bl	8005ee0 <__d2b>
 8004b9c:	ea5f 5418 	movs.w	r4, r8, lsr #20
 8004ba0:	9d16      	ldr	r5, [sp, #88]	@ 0x58
 8004ba2:	9001      	str	r0, [sp, #4]
 8004ba4:	f000 8082 	beq.w	8004cac <_dtoa_r+0x1fc>
 8004ba8:	9b07      	ldr	r3, [sp, #28]
 8004baa:	f8cd a050 	str.w	sl, [sp, #80]	@ 0x50
 8004bae:	f3c3 0313 	ubfx	r3, r3, #0, #20
 8004bb2:	e9dd 0106 	ldrd	r0, r1, [sp, #24]
 8004bb6:	f043 537f 	orr.w	r3, r3, #1069547520	@ 0x3fc00000
 8004bba:	f443 1340 	orr.w	r3, r3, #3145728	@ 0x300000
 8004bbe:	f2a4 34ff 	subw	r4, r4, #1023	@ 0x3ff
 8004bc2:	4619      	mov	r1, r3
 8004bc4:	2200      	movs	r2, #0
 8004bc6:	4b7d      	ldr	r3, [pc, #500]	@ (8004dbc <_dtoa_r+0x30c>)
 8004bc8:	f7fb fb46 	bl	8000258 <__aeabi_dsub>
 8004bcc:	a36e      	add	r3, pc, #440	@ (adr r3, 8004d88 <_dtoa_r+0x2d8>)
 8004bce:	e9d3 2300 	ldrd	r2, r3, [r3]
 8004bd2:	f7fb fcf9 	bl	80005c8 <__aeabi_dmul>
 8004bd6:	a36e      	add	r3, pc, #440	@ (adr r3, 8004d90 <_dtoa_r+0x2e0>)
 8004bd8:	e9d3 2300 	ldrd	r2, r3, [r3]
 8004bdc:	f7fb fb3e 	bl	800025c <__adddf3>
 8004be0:	4606      	mov	r6, r0
 8004be2:	4620      	mov	r0, r4
 8004be4:	460f      	mov	r7, r1
 8004be6:	f7fb fc85 	bl	80004f4 <__aeabi_i2d>
 8004bea:	a36b      	add	r3, pc, #428	@ (adr r3, 8004d98 <_dtoa_r+0x2e8>)
 8004bec:	e9d3 2300 	ldrd	r2, r3, [r3]
 8004bf0:	f7fb fcea 	bl	80005c8 <__aeabi_dmul>
 8004bf4:	4602      	mov	r2, r0
 8004bf6:	460b      	mov	r3, r1
 8004bf8:	4630      	mov	r0, r6
 8004bfa:	4639      	mov	r1, r7
 8004bfc:	f7fb fb2e 	bl	800025c <__adddf3>
 8004c00:	4606      	mov	r6, r0
 8004c02:	460f      	mov	r7, r1
 8004c04:	f7fb ff90 	bl	8000b28 <__aeabi_d2iz>
 8004c08:	2200      	movs	r2, #0
 8004c0a:	4680      	mov	r8, r0
 8004c0c:	2300      	movs	r3, #0
 8004c0e:	4630      	mov	r0, r6
 8004c10:	4639      	mov	r1, r7
 8004c12:	f7fb ff4b 	bl	8000aac <__aeabi_dcmplt>
 8004c16:	b148      	cbz	r0, 8004c2c <_dtoa_r+0x17c>
 8004c18:	4640      	mov	r0, r8
 8004c1a:	f7fb fc6b 	bl	80004f4 <__aeabi_i2d>
 8004c1e:	4632      	mov	r2, r6
 8004c20:	463b      	mov	r3, r7
 8004c22:	f7fb ff39 	bl	8000a98 <__aeabi_dcmpeq>
 8004c26:	b908      	cbnz	r0, 8004c2c <_dtoa_r+0x17c>
 8004c28:	f108 38ff 	add.w	r8, r8, #4294967295	@ 0xffffffff
 8004c2c:	f1b8 0f16 	cmp.w	r8, #22
 8004c30:	d859      	bhi.n	8004ce6 <_dtoa_r+0x236>
 8004c32:	4b63      	ldr	r3, [pc, #396]	@ (8004dc0 <_dtoa_r+0x310>)
 8004c34:	eb03 03c8 	add.w	r3, r3, r8, lsl #3
 8004c38:	e9d3 2300 	ldrd	r2, r3, [r3]
 8004c3c:	e9dd 0106 	ldrd	r0, r1, [sp, #24]
 8004c40:	f7fb ff34 	bl	8000aac <__aeabi_dcmplt>
 8004c44:	2800      	cmp	r0, #0
 8004c46:	d050      	beq.n	8004cea <_dtoa_r+0x23a>
 8004c48:	f108 38ff 	add.w	r8, r8, #4294967295	@ 0xffffffff
 8004c4c:	2300      	movs	r3, #0
 8004c4e:	9312      	str	r3, [sp, #72]	@ 0x48
 8004c50:	1b2d      	subs	r5, r5, r4
 8004c52:	1e6b      	subs	r3, r5, #1
 8004c54:	9308      	str	r3, [sp, #32]
 8004c56:	bf43      	ittte	mi
 8004c58:	2300      	movmi	r3, #0
 8004c5a:	f1c5 0701 	rsbmi	r7, r5, #1
 8004c5e:	9308      	strmi	r3, [sp, #32]
 8004c60:	2700      	movpl	r7, #0
 8004c62:	f1b8 0f00 	cmp.w	r8, #0
 8004c66:	db42      	blt.n	8004cee <_dtoa_r+0x23e>
 8004c68:	9b08      	ldr	r3, [sp, #32]
 8004c6a:	f8cd 8034 	str.w	r8, [sp, #52]	@ 0x34
 8004c6e:	4443      	add	r3, r8
 8004c70:	9308      	str	r3, [sp, #32]
 8004c72:	2300      	movs	r3, #0
 8004c74:	9309      	str	r3, [sp, #36]	@ 0x24
 8004c76:	9b0a      	ldr	r3, [sp, #40]	@ 0x28
 8004c78:	2b09      	cmp	r3, #9
 8004c7a:	d86c      	bhi.n	8004d56 <_dtoa_r+0x2a6>
 8004c7c:	2b05      	cmp	r3, #5
 8004c7e:	bfc4      	itt	gt
 8004c80:	3b04      	subgt	r3, #4
 8004c82:	930a      	strgt	r3, [sp, #40]	@ 0x28
 8004c84:	9b0a      	ldr	r3, [sp, #40]	@ 0x28
 8004c86:	f1a3 0302 	sub.w	r3, r3, #2
 8004c8a:	bfcc      	ite	gt
 8004c8c:	2400      	movgt	r4, #0
 8004c8e:	2401      	movle	r4, #1
 8004c90:	2b03      	cmp	r3, #3
 8004c92:	d86c      	bhi.n	8004d6e <_dtoa_r+0x2be>
 8004c94:	a201      	add	r2, pc, #4	@ (adr r2, 8004c9c <_dtoa_r+0x1ec>)
 8004c96:	f852 f023 	ldr.w	pc, [r2, r3, lsl #2]
 8004c9a:	bf00      	nop
 8004c9c:	08004d4f 	.word	0x08004d4f
 8004ca0:	08004d53 	.word	0x08004d53
 8004ca4:	08004d15 	.word	0x08004d15
 8004ca8:	08004cff 	.word	0x08004cff
 8004cac:	9c17      	ldr	r4, [sp, #92]	@ 0x5c
 8004cae:	442c      	add	r4, r5
 8004cb0:	f204 4332 	addw	r3, r4, #1074	@ 0x432
 8004cb4:	2b20      	cmp	r3, #32
 8004cb6:	bfc1      	itttt	gt
 8004cb8:	f1c3 0340 	rsbgt	r3, r3, #64	@ 0x40
 8004cbc:	fa08 f803 	lslgt.w	r8, r8, r3
 8004cc0:	f204 4312 	addwgt	r3, r4, #1042	@ 0x412
 8004cc4:	fa26 f303 	lsrgt.w	r3, r6, r3
 8004cc8:	bfd6      	itet	le
 8004cca:	f1c3 0320 	rsble	r3, r3, #32
 8004cce:	ea48 0003 	orrgt.w	r0, r8, r3
 8004cd2:	fa06 f003 	lslle.w	r0, r6, r3
 8004cd6:	f7fb fbfd 	bl	80004d4 <__aeabi_ui2d>
 8004cda:	2201      	movs	r2, #1
 8004cdc:	f1a1 73f8 	sub.w	r3, r1, #32505856	@ 0x1f00000
 8004ce0:	3c01      	subs	r4, #1
 8004ce2:	9214      	str	r2, [sp, #80]	@ 0x50
 8004ce4:	e76d      	b.n	8004bc2 <_dtoa_r+0x112>
 8004ce6:	2301      	movs	r3, #1
 8004ce8:	e7b1      	b.n	8004c4e <_dtoa_r+0x19e>
 8004cea:	9012      	str	r0, [sp, #72]	@ 0x48
 8004cec:	e7b0      	b.n	8004c50 <_dtoa_r+0x1a0>
 8004cee:	f1c8 0300 	rsb	r3, r8, #0
 8004cf2:	9309      	str	r3, [sp, #36]	@ 0x24
 8004cf4:	2300      	movs	r3, #0
 8004cf6:	eba7 0708 	sub.w	r7, r7, r8
 8004cfa:	930d      	str	r3, [sp, #52]	@ 0x34
 8004cfc:	e7bb      	b.n	8004c76 <_dtoa_r+0x1c6>
 8004cfe:	2301      	movs	r3, #1
 8004d00:	930b      	str	r3, [sp, #44]	@ 0x2c
 8004d02:	9b0c      	ldr	r3, [sp, #48]	@ 0x30
 8004d04:	4443      	add	r3, r8
 8004d06:	9305      	str	r3, [sp, #20]
 8004d08:	3301      	adds	r3, #1
 8004d0a:	2b01      	cmp	r3, #1
 8004d0c:	9304      	str	r3, [sp, #16]
 8004d0e:	bfb8      	it	lt
 8004d10:	2301      	movlt	r3, #1
 8004d12:	e006      	b.n	8004d22 <_dtoa_r+0x272>
 8004d14:	2301      	movs	r3, #1
 8004d16:	930b      	str	r3, [sp, #44]	@ 0x2c
 8004d18:	9b0c      	ldr	r3, [sp, #48]	@ 0x30
 8004d1a:	2b00      	cmp	r3, #0
 8004d1c:	dd2a      	ble.n	8004d74 <_dtoa_r+0x2c4>
 8004d1e:	e9cd 3304 	strd	r3, r3, [sp, #16]
 8004d22:	f8d9 001c 	ldr.w	r0, [r9, #28]
 8004d26:	2100      	movs	r1, #0
 8004d28:	2204      	movs	r2, #4
 8004d2a:	f102 0514 	add.w	r5, r2, #20
 8004d2e:	429d      	cmp	r5, r3
 8004d30:	f101 0601 	add.w	r6, r1, #1
 8004d34:	d923      	bls.n	8004d7e <_dtoa_r+0x2ce>
 8004d36:	6041      	str	r1, [r0, #4]
 8004d38:	4648      	mov	r0, r9
 8004d3a:	f000 fda1 	bl	8005880 <_Balloc>
 8004d3e:	9000      	str	r0, [sp, #0]
 8004d40:	2800      	cmp	r0, #0
 8004d42:	d141      	bne.n	8004dc8 <_dtoa_r+0x318>
 8004d44:	4b1f      	ldr	r3, [pc, #124]	@ (8004dc4 <_dtoa_r+0x314>)
 8004d46:	4602      	mov	r2, r0
 8004d48:	f240 11af 	movw	r1, #431	@ 0x1af
 8004d4c:	e6c7      	b.n	8004ade <_dtoa_r+0x2e>
 8004d4e:	2300      	movs	r3, #0
 8004d50:	e7e1      	b.n	8004d16 <_dtoa_r+0x266>
 8004d52:	2300      	movs	r3, #0
 8004d54:	e7d4      	b.n	8004d00 <_dtoa_r+0x250>
 8004d56:	2401      	movs	r4, #1
 8004d58:	2300      	movs	r3, #0
 8004d5a:	e9cd 340a 	strd	r3, r4, [sp, #40]	@ 0x28
 8004d5e:	f04f 33ff 	mov.w	r3, #4294967295	@ 0xffffffff
 8004d62:	e9cd 3304 	strd	r3, r3, [sp, #16]
 8004d66:	2200      	movs	r2, #0
 8004d68:	2312      	movs	r3, #18
 8004d6a:	920c      	str	r2, [sp, #48]	@ 0x30
 8004d6c:	e7d9      	b.n	8004d22 <_dtoa_r+0x272>
 8004d6e:	2301      	movs	r3, #1
 8004d70:	930b      	str	r3, [sp, #44]	@ 0x2c
 8004d72:	e7f4      	b.n	8004d5e <_dtoa_r+0x2ae>
 8004d74:	2301      	movs	r3, #1
 8004d76:	e9cd 3304 	strd	r3, r3, [sp, #16]
 8004d7a:	461a      	mov	r2, r3
 8004d7c:	e7f5      	b.n	8004d6a <_dtoa_r+0x2ba>
 8004d7e:	0052      	lsls	r2, r2, #1
 8004d80:	4631      	mov	r1, r6
 8004d82:	e7d2      	b.n	8004d2a <_dtoa_r+0x27a>
 8004d84:	f3af 8000 	nop.w
 8004d88:	636f4361 	.word	0x636f4361
 8004d8c:	3fd287a7 	.word	0x3fd287a7
 8004d90:	8b60c8b3 	.word	0x8b60c8b3
 8004d94:	3fc68a28 	.word	0x3fc68a28
 8004d98:	509f79fb 	.word	0x509f79fb
 8004d9c:	3fd34413 	.word	0x3fd34413
 8004da0:	080070c1 	.word	0x080070c1
 8004da4:	080070d8 	.word	0x080070d8
 8004da8:	7ff00000 	.word	0x7ff00000
 8004dac:	080070bd 	.word	0x080070bd
 8004db0:	080070b4 	.word	0x080070b4
 8004db4:	08007091 	.word	0x08007091
 8004db8:	08007090 	.word	0x08007090
 8004dbc:	3ff80000 	.word	0x3ff80000
 8004dc0:	08007200 	.word	0x08007200
 8004dc4:	0800711a 	.word	0x0800711a
 8004dc8:	f8d9 301c 	ldr.w	r3, [r9, #28]
 8004dcc:	9a00      	ldr	r2, [sp, #0]
 8004dce:	601a      	str	r2, [r3, #0]
 8004dd0:	9b04      	ldr	r3, [sp, #16]
 8004dd2:	2b0e      	cmp	r3, #14
 8004dd4:	f200 80a1 	bhi.w	8004f1a <_dtoa_r+0x46a>
 8004dd8:	2c00      	cmp	r4, #0
 8004dda:	f000 809e 	beq.w	8004f1a <_dtoa_r+0x46a>
 8004dde:	f1b8 0f00 	cmp.w	r8, #0
 8004de2:	dd36      	ble.n	8004e52 <_dtoa_r+0x3a2>
 8004de4:	4b9e      	ldr	r3, [pc, #632]	@ (8005060 <_dtoa_r+0x5b0>)
 8004de6:	f008 020f 	and.w	r2, r8, #15
 8004dea:	eb03 03c2 	add.w	r3, r3, r2, lsl #3
 8004dee:	f418 7f80 	tst.w	r8, #256	@ 0x100
 8004df2:	e9d3 ab00 	ldrd	sl, fp, [r3]
 8004df6:	ea4f 1528 	mov.w	r5, r8, asr #4
 8004dfa:	d016      	beq.n	8004e2a <_dtoa_r+0x37a>
 8004dfc:	4b99      	ldr	r3, [pc, #612]	@ (8005064 <_dtoa_r+0x5b4>)
 8004dfe:	e9dd 0106 	ldrd	r0, r1, [sp, #24]
 8004e02:	e9d3 2308 	ldrd	r2, r3, [r3, #32]
 8004e06:	f7fb fd09 	bl	800081c <__aeabi_ddiv>
 8004e0a:	e9cd 0102 	strd	r0, r1, [sp, #8]
 8004e0e:	f005 050f 	and.w	r5, r5, #15
 8004e12:	2403      	movs	r4, #3
 8004e14:	4e93      	ldr	r6, [pc, #588]	@ (8005064 <_dtoa_r+0x5b4>)
 8004e16:	b975      	cbnz	r5, 8004e36 <_dtoa_r+0x386>
 8004e18:	e9dd 0102 	ldrd	r0, r1, [sp, #8]
 8004e1c:	4652      	mov	r2, sl
 8004e1e:	465b      	mov	r3, fp
 8004e20:	f7fb fcfc 	bl	800081c <__aeabi_ddiv>
 8004e24:	4682      	mov	sl, r0
 8004e26:	468b      	mov	fp, r1
 8004e28:	e02d      	b.n	8004e86 <_dtoa_r+0x3d6>
 8004e2a:	ed9d 7b06 	vldr	d7, [sp, #24]
 8004e2e:	2402      	movs	r4, #2
 8004e30:	ed8d 7b02 	vstr	d7, [sp, #8]
 8004e34:	e7ee      	b.n	8004e14 <_dtoa_r+0x364>
 8004e36:	07e9      	lsls	r1, r5, #31
 8004e38:	d508      	bpl.n	8004e4c <_dtoa_r+0x39c>
 8004e3a:	4650      	mov	r0, sl
 8004e3c:	4659      	mov	r1, fp
 8004e3e:	e9d6 2300 	ldrd	r2, r3, [r6]
 8004e42:	f7fb fbc1 	bl	80005c8 <__aeabi_dmul>
 8004e46:	3401      	adds	r4, #1
 8004e48:	4682      	mov	sl, r0
 8004e4a:	468b      	mov	fp, r1
 8004e4c:	106d      	asrs	r5, r5, #1
 8004e4e:	3608      	adds	r6, #8
 8004e50:	e7e1      	b.n	8004e16 <_dtoa_r+0x366>
 8004e52:	f000 80ad 	beq.w	8004fb0 <_dtoa_r+0x500>
 8004e56:	f1c8 0500 	rsb	r5, r8, #0
 8004e5a:	4b81      	ldr	r3, [pc, #516]	@ (8005060 <_dtoa_r+0x5b0>)
 8004e5c:	4e81      	ldr	r6, [pc, #516]	@ (8005064 <_dtoa_r+0x5b4>)
 8004e5e:	f005 020f 	and.w	r2, r5, #15
 8004e62:	eb03 03c2 	add.w	r3, r3, r2, lsl #3
 8004e66:	e9d3 2300 	ldrd	r2, r3, [r3]
 8004e6a:	e9dd 0106 	ldrd	r0, r1, [sp, #24]
 8004e6e:	f7fb fbab 	bl	80005c8 <__aeabi_dmul>
 8004e72:	112d      	asrs	r5, r5, #4
 8004e74:	4682      	mov	sl, r0
 8004e76:	468b      	mov	fp, r1
 8004e78:	2300      	movs	r3, #0
 8004e7a:	2402      	movs	r4, #2
 8004e7c:	2d00      	cmp	r5, #0
 8004e7e:	f040 808c 	bne.w	8004f9a <_dtoa_r+0x4ea>
 8004e82:	2b00      	cmp	r3, #0
 8004e84:	d1ce      	bne.n	8004e24 <_dtoa_r+0x374>
 8004e86:	9b12      	ldr	r3, [sp, #72]	@ 0x48
 8004e88:	2b00      	cmp	r3, #0
 8004e8a:	f000 8095 	beq.w	8004fb8 <_dtoa_r+0x508>
 8004e8e:	4b76      	ldr	r3, [pc, #472]	@ (8005068 <_dtoa_r+0x5b8>)
 8004e90:	2200      	movs	r2, #0
 8004e92:	4650      	mov	r0, sl
 8004e94:	4659      	mov	r1, fp
 8004e96:	f7fb fe09 	bl	8000aac <__aeabi_dcmplt>
 8004e9a:	2800      	cmp	r0, #0
 8004e9c:	f000 808c 	beq.w	8004fb8 <_dtoa_r+0x508>
 8004ea0:	9b04      	ldr	r3, [sp, #16]
 8004ea2:	2b00      	cmp	r3, #0
 8004ea4:	f000 8088 	beq.w	8004fb8 <_dtoa_r+0x508>
 8004ea8:	9b05      	ldr	r3, [sp, #20]
 8004eaa:	2b00      	cmp	r3, #0
 8004eac:	dd35      	ble.n	8004f1a <_dtoa_r+0x46a>
 8004eae:	f108 33ff 	add.w	r3, r8, #4294967295	@ 0xffffffff
 8004eb2:	9302      	str	r3, [sp, #8]
 8004eb4:	4650      	mov	r0, sl
 8004eb6:	4659      	mov	r1, fp
 8004eb8:	4b6c      	ldr	r3, [pc, #432]	@ (800506c <_dtoa_r+0x5bc>)
 8004eba:	2200      	movs	r2, #0
 8004ebc:	f7fb fb84 	bl	80005c8 <__aeabi_dmul>
 8004ec0:	9e05      	ldr	r6, [sp, #20]
 8004ec2:	4682      	mov	sl, r0
 8004ec4:	468b      	mov	fp, r1
 8004ec6:	3401      	adds	r4, #1
 8004ec8:	4620      	mov	r0, r4
 8004eca:	f7fb fb13 	bl	80004f4 <__aeabi_i2d>
 8004ece:	4652      	mov	r2, sl
 8004ed0:	465b      	mov	r3, fp
 8004ed2:	f7fb fb79 	bl	80005c8 <__aeabi_dmul>
 8004ed6:	4b66      	ldr	r3, [pc, #408]	@ (8005070 <_dtoa_r+0x5c0>)
 8004ed8:	2200      	movs	r2, #0
 8004eda:	f7fb f9bf 	bl	800025c <__adddf3>
 8004ede:	4604      	mov	r4, r0
 8004ee0:	f1a1 7550 	sub.w	r5, r1, #54525952	@ 0x3400000
 8004ee4:	e9cd 4510 	strd	r4, r5, [sp, #64]	@ 0x40
 8004ee8:	2e00      	cmp	r6, #0
 8004eea:	d169      	bne.n	8004fc0 <_dtoa_r+0x510>
 8004eec:	4b61      	ldr	r3, [pc, #388]	@ (8005074 <_dtoa_r+0x5c4>)
 8004eee:	2200      	movs	r2, #0
 8004ef0:	4650      	mov	r0, sl
 8004ef2:	4659      	mov	r1, fp
 8004ef4:	f7fb f9b0 	bl	8000258 <__aeabi_dsub>
 8004ef8:	4622      	mov	r2, r4
 8004efa:	462b      	mov	r3, r5
 8004efc:	4682      	mov	sl, r0
 8004efe:	468b      	mov	fp, r1
 8004f00:	f7fb fdf2 	bl	8000ae8 <__aeabi_dcmpgt>
 8004f04:	2800      	cmp	r0, #0
 8004f06:	f040 8294 	bne.w	8005432 <_dtoa_r+0x982>
 8004f0a:	4622      	mov	r2, r4
 8004f0c:	f105 4300 	add.w	r3, r5, #2147483648	@ 0x80000000
 8004f10:	4650      	mov	r0, sl
 8004f12:	4659      	mov	r1, fp
 8004f14:	f7fb fdca 	bl	8000aac <__aeabi_dcmplt>
 8004f18:	bb20      	cbnz	r0, 8004f64 <_dtoa_r+0x4b4>
 8004f1a:	9b17      	ldr	r3, [sp, #92]	@ 0x5c
 8004f1c:	2b00      	cmp	r3, #0
 8004f1e:	f2c0 8160 	blt.w	80051e2 <_dtoa_r+0x732>
 8004f22:	f1b8 0f0e 	cmp.w	r8, #14
 8004f26:	f300 815c 	bgt.w	80051e2 <_dtoa_r+0x732>
 8004f2a:	4b4d      	ldr	r3, [pc, #308]	@ (8005060 <_dtoa_r+0x5b0>)
 8004f2c:	eb03 03c8 	add.w	r3, r3, r8, lsl #3
 8004f30:	e9d3 ab00 	ldrd	sl, fp, [r3]
 8004f34:	9b0c      	ldr	r3, [sp, #48]	@ 0x30
 8004f36:	2b00      	cmp	r3, #0
 8004f38:	f280 80ee 	bge.w	8005118 <_dtoa_r+0x668>
 8004f3c:	9b04      	ldr	r3, [sp, #16]
 8004f3e:	2b00      	cmp	r3, #0
 8004f40:	f300 80ea 	bgt.w	8005118 <_dtoa_r+0x668>
 8004f44:	d10e      	bne.n	8004f64 <_dtoa_r+0x4b4>
 8004f46:	4b4b      	ldr	r3, [pc, #300]	@ (8005074 <_dtoa_r+0x5c4>)
 8004f48:	2200      	movs	r2, #0
 8004f4a:	4650      	mov	r0, sl
 8004f4c:	4659      	mov	r1, fp
 8004f4e:	f7fb fb3b 	bl	80005c8 <__aeabi_dmul>
 8004f52:	4602      	mov	r2, r0
 8004f54:	460b      	mov	r3, r1
 8004f56:	e9dd 0106 	ldrd	r0, r1, [sp, #24]
 8004f5a:	f7fb fdb1 	bl	8000ac0 <__aeabi_dcmple>
 8004f5e:	2800      	cmp	r0, #0
 8004f60:	f000 826a 	beq.w	8005438 <_dtoa_r+0x988>
 8004f64:	2500      	movs	r5, #0
 8004f66:	462c      	mov	r4, r5
 8004f68:	9b0c      	ldr	r3, [sp, #48]	@ 0x30
 8004f6a:	9e00      	ldr	r6, [sp, #0]
 8004f6c:	43db      	mvns	r3, r3
 8004f6e:	9302      	str	r3, [sp, #8]
 8004f70:	4627      	mov	r7, r4
 8004f72:	2400      	movs	r4, #0
 8004f74:	4629      	mov	r1, r5
 8004f76:	4648      	mov	r0, r9
 8004f78:	f000 fcc0 	bl	80058fc <_Bfree>
 8004f7c:	2f00      	cmp	r7, #0
 8004f7e:	f000 80c1 	beq.w	8005104 <_dtoa_r+0x654>
 8004f82:	b12c      	cbz	r4, 8004f90 <_dtoa_r+0x4e0>
 8004f84:	42bc      	cmp	r4, r7
 8004f86:	d003      	beq.n	8004f90 <_dtoa_r+0x4e0>
 8004f88:	4621      	mov	r1, r4
 8004f8a:	4648      	mov	r0, r9
 8004f8c:	f000 fcb6 	bl	80058fc <_Bfree>
 8004f90:	4639      	mov	r1, r7
 8004f92:	4648      	mov	r0, r9
 8004f94:	f000 fcb2 	bl	80058fc <_Bfree>
 8004f98:	e0b4      	b.n	8005104 <_dtoa_r+0x654>
 8004f9a:	07ea      	lsls	r2, r5, #31
 8004f9c:	d505      	bpl.n	8004faa <_dtoa_r+0x4fa>
 8004f9e:	e9d6 2300 	ldrd	r2, r3, [r6]
 8004fa2:	f7fb fb11 	bl	80005c8 <__aeabi_dmul>
 8004fa6:	3401      	adds	r4, #1
 8004fa8:	2301      	movs	r3, #1
 8004faa:	106d      	asrs	r5, r5, #1
 8004fac:	3608      	adds	r6, #8
 8004fae:	e765      	b.n	8004e7c <_dtoa_r+0x3cc>
 8004fb0:	e9dd ab06 	ldrd	sl, fp, [sp, #24]
 8004fb4:	2402      	movs	r4, #2
 8004fb6:	e766      	b.n	8004e86 <_dtoa_r+0x3d6>
 8004fb8:	9e04      	ldr	r6, [sp, #16]
 8004fba:	f8cd 8008 	str.w	r8, [sp, #8]
 8004fbe:	e783      	b.n	8004ec8 <_dtoa_r+0x418>
 8004fc0:	4b27      	ldr	r3, [pc, #156]	@ (8005060 <_dtoa_r+0x5b0>)
 8004fc2:	eb03 03c6 	add.w	r3, r3, r6, lsl #3
 8004fc6:	e953 0102 	ldrd	r0, r1, [r3, #-8]
 8004fca:	9b0b      	ldr	r3, [sp, #44]	@ 0x2c
 8004fcc:	2b00      	cmp	r3, #0
 8004fce:	d055      	beq.n	800507c <_dtoa_r+0x5cc>
 8004fd0:	4602      	mov	r2, r0
 8004fd2:	460b      	mov	r3, r1
 8004fd4:	2000      	movs	r0, #0
 8004fd6:	4928      	ldr	r1, [pc, #160]	@ (8005078 <_dtoa_r+0x5c8>)
 8004fd8:	f7fb fc20 	bl	800081c <__aeabi_ddiv>
 8004fdc:	e9dd 2310 	ldrd	r2, r3, [sp, #64]	@ 0x40
 8004fe0:	f7fb f93a 	bl	8000258 <__aeabi_dsub>
 8004fe4:	9b00      	ldr	r3, [sp, #0]
 8004fe6:	e9cd 0110 	strd	r0, r1, [sp, #64]	@ 0x40
 8004fea:	199d      	adds	r5, r3, r6
 8004fec:	461e      	mov	r6, r3
 8004fee:	4659      	mov	r1, fp
 8004ff0:	4650      	mov	r0, sl
 8004ff2:	f7fb fd99 	bl	8000b28 <__aeabi_d2iz>
 8004ff6:	4604      	mov	r4, r0
 8004ff8:	f7fb fa7c 	bl	80004f4 <__aeabi_i2d>
 8004ffc:	4602      	mov	r2, r0
 8004ffe:	460b      	mov	r3, r1
 8005000:	4650      	mov	r0, sl
 8005002:	4659      	mov	r1, fp
 8005004:	f7fb f928 	bl	8000258 <__aeabi_dsub>
 8005008:	3430      	adds	r4, #48	@ 0x30
 800500a:	e9dd 2310 	ldrd	r2, r3, [sp, #64]	@ 0x40
 800500e:	f806 4b01 	strb.w	r4, [r6], #1
 8005012:	4682      	mov	sl, r0
 8005014:	468b      	mov	fp, r1
 8005016:	f7fb fd49 	bl	8000aac <__aeabi_dcmplt>
 800501a:	2800      	cmp	r0, #0
 800501c:	d172      	bne.n	8005104 <_dtoa_r+0x654>
 800501e:	4652      	mov	r2, sl
 8005020:	465b      	mov	r3, fp
 8005022:	4911      	ldr	r1, [pc, #68]	@ (8005068 <_dtoa_r+0x5b8>)
 8005024:	2000      	movs	r0, #0
 8005026:	f7fb f917 	bl	8000258 <__aeabi_dsub>
 800502a:	e9dd 2310 	ldrd	r2, r3, [sp, #64]	@ 0x40
 800502e:	f7fb fd3d 	bl	8000aac <__aeabi_dcmplt>
 8005032:	2800      	cmp	r0, #0
 8005034:	f040 80b6 	bne.w	80051a4 <_dtoa_r+0x6f4>
 8005038:	42ae      	cmp	r6, r5
 800503a:	f43f af6e 	beq.w	8004f1a <_dtoa_r+0x46a>
 800503e:	e9dd 0110 	ldrd	r0, r1, [sp, #64]	@ 0x40
 8005042:	4b0a      	ldr	r3, [pc, #40]	@ (800506c <_dtoa_r+0x5bc>)
 8005044:	2200      	movs	r2, #0
 8005046:	f7fb fabf 	bl	80005c8 <__aeabi_dmul>
 800504a:	4b08      	ldr	r3, [pc, #32]	@ (800506c <_dtoa_r+0x5bc>)
 800504c:	e9cd 0110 	strd	r0, r1, [sp, #64]	@ 0x40
 8005050:	2200      	movs	r2, #0
 8005052:	4650      	mov	r0, sl
 8005054:	4659      	mov	r1, fp
 8005056:	f7fb fab7 	bl	80005c8 <__aeabi_dmul>
 800505a:	4682      	mov	sl, r0
 800505c:	468b      	mov	fp, r1
 800505e:	e7c6      	b.n	8004fee <_dtoa_r+0x53e>
 8005060:	08007200 	.word	0x08007200
 8005064:	080071d8 	.word	0x080071d8
 8005068:	3ff00000 	.word	0x3ff00000
 800506c:	40240000 	.word	0x40240000
 8005070:	401c0000 	.word	0x401c0000
 8005074:	40140000 	.word	0x40140000
 8005078:	3fe00000 	.word	0x3fe00000
 800507c:	e9dd 2310 	ldrd	r2, r3, [sp, #64]	@ 0x40
 8005080:	f7fb faa2 	bl	80005c8 <__aeabi_dmul>
 8005084:	9b00      	ldr	r3, [sp, #0]
 8005086:	9d00      	ldr	r5, [sp, #0]
 8005088:	e9cd 0110 	strd	r0, r1, [sp, #64]	@ 0x40
 800508c:	4433      	add	r3, r6
 800508e:	9315      	str	r3, [sp, #84]	@ 0x54
 8005090:	4659      	mov	r1, fp
 8005092:	4650      	mov	r0, sl
 8005094:	f7fb fd48 	bl	8000b28 <__aeabi_d2iz>
 8005098:	4604      	mov	r4, r0
 800509a:	f7fb fa2b 	bl	80004f4 <__aeabi_i2d>
 800509e:	3430      	adds	r4, #48	@ 0x30
 80050a0:	460b      	mov	r3, r1
 80050a2:	4602      	mov	r2, r0
 80050a4:	4659      	mov	r1, fp
 80050a6:	4650      	mov	r0, sl
 80050a8:	f7fb f8d6 	bl	8000258 <__aeabi_dsub>
 80050ac:	f805 4b01 	strb.w	r4, [r5], #1
 80050b0:	9b15      	ldr	r3, [sp, #84]	@ 0x54
 80050b2:	429d      	cmp	r5, r3
 80050b4:	4682      	mov	sl, r0
 80050b6:	468b      	mov	fp, r1
 80050b8:	d127      	bne.n	800510a <_dtoa_r+0x65a>
 80050ba:	9b00      	ldr	r3, [sp, #0]
 80050bc:	2200      	movs	r2, #0
 80050be:	e9dd 0110 	ldrd	r0, r1, [sp, #64]	@ 0x40
 80050c2:	441e      	add	r6, r3
 80050c4:	4bb3      	ldr	r3, [pc, #716]	@ (8005394 <_dtoa_r+0x8e4>)
 80050c6:	f7fb f8c9 	bl	800025c <__adddf3>
 80050ca:	4602      	mov	r2, r0
 80050cc:	460b      	mov	r3, r1
 80050ce:	4650      	mov	r0, sl
 80050d0:	4659      	mov	r1, fp
 80050d2:	f7fb fd09 	bl	8000ae8 <__aeabi_dcmpgt>
 80050d6:	2800      	cmp	r0, #0
 80050d8:	d164      	bne.n	80051a4 <_dtoa_r+0x6f4>
 80050da:	e9dd 2310 	ldrd	r2, r3, [sp, #64]	@ 0x40
 80050de:	49ad      	ldr	r1, [pc, #692]	@ (8005394 <_dtoa_r+0x8e4>)
 80050e0:	2000      	movs	r0, #0
 80050e2:	f7fb f8b9 	bl	8000258 <__aeabi_dsub>
 80050e6:	4602      	mov	r2, r0
 80050e8:	460b      	mov	r3, r1
 80050ea:	4650      	mov	r0, sl
 80050ec:	4659      	mov	r1, fp
 80050ee:	f7fb fcdd 	bl	8000aac <__aeabi_dcmplt>
 80050f2:	2800      	cmp	r0, #0
 80050f4:	f43f af11 	beq.w	8004f1a <_dtoa_r+0x46a>
 80050f8:	4633      	mov	r3, r6
 80050fa:	f816 2d01 	ldrb.w	r2, [r6, #-1]!
 80050fe:	2a30      	cmp	r2, #48	@ 0x30
 8005100:	d0fa      	beq.n	80050f8 <_dtoa_r+0x648>
 8005102:	461e      	mov	r6, r3
 8005104:	f8dd 8008 	ldr.w	r8, [sp, #8]
 8005108:	e03a      	b.n	8005180 <_dtoa_r+0x6d0>
 800510a:	4ba3      	ldr	r3, [pc, #652]	@ (8005398 <_dtoa_r+0x8e8>)
 800510c:	2200      	movs	r2, #0
 800510e:	f7fb fa5b 	bl	80005c8 <__aeabi_dmul>
 8005112:	4682      	mov	sl, r0
 8005114:	468b      	mov	fp, r1
 8005116:	e7bb      	b.n	8005090 <_dtoa_r+0x5e0>
 8005118:	9e00      	ldr	r6, [sp, #0]
 800511a:	4652      	mov	r2, sl
 800511c:	465b      	mov	r3, fp
 800511e:	e9dd 0106 	ldrd	r0, r1, [sp, #24]
 8005122:	f7fb fb7b 	bl	800081c <__aeabi_ddiv>
 8005126:	f7fb fcff 	bl	8000b28 <__aeabi_d2iz>
 800512a:	4607      	mov	r7, r0
 800512c:	f7fb f9e2 	bl	80004f4 <__aeabi_i2d>
 8005130:	4652      	mov	r2, sl
 8005132:	465b      	mov	r3, fp
 8005134:	f7fb fa48 	bl	80005c8 <__aeabi_dmul>
 8005138:	4602      	mov	r2, r0
 800513a:	460b      	mov	r3, r1
 800513c:	e9dd 0106 	ldrd	r0, r1, [sp, #24]
 8005140:	f7fb f88a 	bl	8000258 <__aeabi_dsub>
 8005144:	f107 0c30 	add.w	ip, r7, #48	@ 0x30
 8005148:	9c00      	ldr	r4, [sp, #0]
 800514a:	f806 cb01 	strb.w	ip, [r6], #1
 800514e:	eba6 0c04 	sub.w	ip, r6, r4
 8005152:	9c04      	ldr	r4, [sp, #16]
 8005154:	4564      	cmp	r4, ip
 8005156:	4602      	mov	r2, r0
 8005158:	460b      	mov	r3, r1
 800515a:	d133      	bne.n	80051c4 <_dtoa_r+0x714>
 800515c:	f7fb f87e 	bl	800025c <__adddf3>
 8005160:	4652      	mov	r2, sl
 8005162:	465b      	mov	r3, fp
 8005164:	4604      	mov	r4, r0
 8005166:	460d      	mov	r5, r1
 8005168:	f7fb fcbe 	bl	8000ae8 <__aeabi_dcmpgt>
 800516c:	b9c0      	cbnz	r0, 80051a0 <_dtoa_r+0x6f0>
 800516e:	4652      	mov	r2, sl
 8005170:	465b      	mov	r3, fp
 8005172:	4620      	mov	r0, r4
 8005174:	4629      	mov	r1, r5
 8005176:	f7fb fc8f 	bl	8000a98 <__aeabi_dcmpeq>
 800517a:	b108      	cbz	r0, 8005180 <_dtoa_r+0x6d0>
 800517c:	07fb      	lsls	r3, r7, #31
 800517e:	d40f      	bmi.n	80051a0 <_dtoa_r+0x6f0>
 8005180:	9901      	ldr	r1, [sp, #4]
 8005182:	4648      	mov	r0, r9
 8005184:	f000 fbba 	bl	80058fc <_Bfree>
 8005188:	2300      	movs	r3, #0
 800518a:	9a13      	ldr	r2, [sp, #76]	@ 0x4c
 800518c:	7033      	strb	r3, [r6, #0]
 800518e:	f108 0301 	add.w	r3, r8, #1
 8005192:	6013      	str	r3, [r2, #0]
 8005194:	9b23      	ldr	r3, [sp, #140]	@ 0x8c
 8005196:	2b00      	cmp	r3, #0
 8005198:	f43f acda 	beq.w	8004b50 <_dtoa_r+0xa0>
 800519c:	601e      	str	r6, [r3, #0]
 800519e:	e4d7      	b.n	8004b50 <_dtoa_r+0xa0>
 80051a0:	f8cd 8008 	str.w	r8, [sp, #8]
 80051a4:	4633      	mov	r3, r6
 80051a6:	461e      	mov	r6, r3
 80051a8:	f813 2d01 	ldrb.w	r2, [r3, #-1]!
 80051ac:	2a39      	cmp	r2, #57	@ 0x39
 80051ae:	d106      	bne.n	80051be <_dtoa_r+0x70e>
 80051b0:	9a00      	ldr	r2, [sp, #0]
 80051b2:	429a      	cmp	r2, r3
 80051b4:	d1f7      	bne.n	80051a6 <_dtoa_r+0x6f6>
 80051b6:	9a02      	ldr	r2, [sp, #8]
 80051b8:	3201      	adds	r2, #1
 80051ba:	9202      	str	r2, [sp, #8]
 80051bc:	2230      	movs	r2, #48	@ 0x30
 80051be:	3201      	adds	r2, #1
 80051c0:	701a      	strb	r2, [r3, #0]
 80051c2:	e79f      	b.n	8005104 <_dtoa_r+0x654>
 80051c4:	4b74      	ldr	r3, [pc, #464]	@ (8005398 <_dtoa_r+0x8e8>)
 80051c6:	2200      	movs	r2, #0
 80051c8:	f7fb f9fe 	bl	80005c8 <__aeabi_dmul>
 80051cc:	4602      	mov	r2, r0
 80051ce:	460b      	mov	r3, r1
 80051d0:	e9cd 2306 	strd	r2, r3, [sp, #24]
 80051d4:	2200      	movs	r2, #0
 80051d6:	2300      	movs	r3, #0
 80051d8:	f7fb fc5e 	bl	8000a98 <__aeabi_dcmpeq>
 80051dc:	2800      	cmp	r0, #0
 80051de:	d09c      	beq.n	800511a <_dtoa_r+0x66a>
 80051e0:	e7ce      	b.n	8005180 <_dtoa_r+0x6d0>
 80051e2:	9a0b      	ldr	r2, [sp, #44]	@ 0x2c
 80051e4:	2a00      	cmp	r2, #0
 80051e6:	f000 80e3 	beq.w	80053b0 <_dtoa_r+0x900>
 80051ea:	9a0a      	ldr	r2, [sp, #40]	@ 0x28
 80051ec:	2a01      	cmp	r2, #1
 80051ee:	f300 80c2 	bgt.w	8005376 <_dtoa_r+0x8c6>
 80051f2:	9a14      	ldr	r2, [sp, #80]	@ 0x50
 80051f4:	2a00      	cmp	r2, #0
 80051f6:	f000 80ba 	beq.w	800536e <_dtoa_r+0x8be>
 80051fa:	f203 4333 	addw	r3, r3, #1075	@ 0x433
 80051fe:	9d09      	ldr	r5, [sp, #36]	@ 0x24
 8005200:	463e      	mov	r6, r7
 8005202:	9a08      	ldr	r2, [sp, #32]
 8005204:	2101      	movs	r1, #1
 8005206:	441a      	add	r2, r3
 8005208:	4648      	mov	r0, r9
 800520a:	441f      	add	r7, r3
 800520c:	9208      	str	r2, [sp, #32]
 800520e:	f000 fc29 	bl	8005a64 <__i2b>
 8005212:	4604      	mov	r4, r0
 8005214:	b156      	cbz	r6, 800522c <_dtoa_r+0x77c>
 8005216:	9b08      	ldr	r3, [sp, #32]
 8005218:	2b00      	cmp	r3, #0
 800521a:	dd07      	ble.n	800522c <_dtoa_r+0x77c>
 800521c:	42b3      	cmp	r3, r6
 800521e:	9a08      	ldr	r2, [sp, #32]
 8005220:	bfa8      	it	ge
 8005222:	4633      	movge	r3, r6
 8005224:	1aff      	subs	r7, r7, r3
 8005226:	1af6      	subs	r6, r6, r3
 8005228:	1ad3      	subs	r3, r2, r3
 800522a:	9308      	str	r3, [sp, #32]
 800522c:	9b09      	ldr	r3, [sp, #36]	@ 0x24
 800522e:	b30b      	cbz	r3, 8005274 <_dtoa_r+0x7c4>
 8005230:	9b0b      	ldr	r3, [sp, #44]	@ 0x2c
 8005232:	2b00      	cmp	r3, #0
 8005234:	f000 80c3 	beq.w	80053be <_dtoa_r+0x90e>
 8005238:	2d00      	cmp	r5, #0
 800523a:	f000 80bd 	beq.w	80053b8 <_dtoa_r+0x908>
 800523e:	4621      	mov	r1, r4
 8005240:	462a      	mov	r2, r5
 8005242:	4648      	mov	r0, r9
 8005244:	f000 fcce 	bl	8005be4 <__pow5mult>
 8005248:	9a01      	ldr	r2, [sp, #4]
 800524a:	4601      	mov	r1, r0
 800524c:	4604      	mov	r4, r0
 800524e:	4648      	mov	r0, r9
 8005250:	f000 fc1e 	bl	8005a90 <__multiply>
 8005254:	9901      	ldr	r1, [sp, #4]
 8005256:	4682      	mov	sl, r0
 8005258:	4648      	mov	r0, r9
 800525a:	f000 fb4f 	bl	80058fc <_Bfree>
 800525e:	9b09      	ldr	r3, [sp, #36]	@ 0x24
 8005260:	1b5b      	subs	r3, r3, r5
 8005262:	9309      	str	r3, [sp, #36]	@ 0x24
 8005264:	f000 80ae 	beq.w	80053c4 <_dtoa_r+0x914>
 8005268:	9a09      	ldr	r2, [sp, #36]	@ 0x24
 800526a:	4651      	mov	r1, sl
 800526c:	4648      	mov	r0, r9
 800526e:	f000 fcb9 	bl	8005be4 <__pow5mult>
 8005272:	9001      	str	r0, [sp, #4]
 8005274:	2101      	movs	r1, #1
 8005276:	4648      	mov	r0, r9
 8005278:	f000 fbf4 	bl	8005a64 <__i2b>
 800527c:	9b0d      	ldr	r3, [sp, #52]	@ 0x34
 800527e:	4605      	mov	r5, r0
 8005280:	2b00      	cmp	r3, #0
 8005282:	f000 81d7 	beq.w	8005634 <_dtoa_r+0xb84>
 8005286:	461a      	mov	r2, r3
 8005288:	4601      	mov	r1, r0
 800528a:	4648      	mov	r0, r9
 800528c:	f000 fcaa 	bl	8005be4 <__pow5mult>
 8005290:	9b0a      	ldr	r3, [sp, #40]	@ 0x28
 8005292:	2b01      	cmp	r3, #1
 8005294:	4605      	mov	r5, r0
 8005296:	f300 809d 	bgt.w	80053d4 <_dtoa_r+0x924>
 800529a:	9b0e      	ldr	r3, [sp, #56]	@ 0x38
 800529c:	2b00      	cmp	r3, #0
 800529e:	f040 8094 	bne.w	80053ca <_dtoa_r+0x91a>
 80052a2:	9b0f      	ldr	r3, [sp, #60]	@ 0x3c
 80052a4:	f3c3 0313 	ubfx	r3, r3, #0, #20
 80052a8:	2b00      	cmp	r3, #0
 80052aa:	f040 808e 	bne.w	80053ca <_dtoa_r+0x91a>
 80052ae:	9b0f      	ldr	r3, [sp, #60]	@ 0x3c
 80052b0:	f023 4300 	bic.w	r3, r3, #2147483648	@ 0x80000000
 80052b4:	0d1b      	lsrs	r3, r3, #20
 80052b6:	051b      	lsls	r3, r3, #20
 80052b8:	2b00      	cmp	r3, #0
 80052ba:	f000 8089 	beq.w	80053d0 <_dtoa_r+0x920>
 80052be:	9b08      	ldr	r3, [sp, #32]
 80052c0:	3301      	adds	r3, #1
 80052c2:	3701      	adds	r7, #1
 80052c4:	9308      	str	r3, [sp, #32]
 80052c6:	f04f 0a01 	mov.w	sl, #1
 80052ca:	9b0d      	ldr	r3, [sp, #52]	@ 0x34
 80052cc:	2b00      	cmp	r3, #0
 80052ce:	f000 81b7 	beq.w	8005640 <_dtoa_r+0xb90>
 80052d2:	692b      	ldr	r3, [r5, #16]
 80052d4:	eb05 0383 	add.w	r3, r5, r3, lsl #2
 80052d8:	6918      	ldr	r0, [r3, #16]
 80052da:	f000 fb77 	bl	80059cc <__hi0bits>
 80052de:	f1c0 0020 	rsb	r0, r0, #32
 80052e2:	9b08      	ldr	r3, [sp, #32]
 80052e4:	4418      	add	r0, r3
 80052e6:	f010 001f 	ands.w	r0, r0, #31
 80052ea:	d07e      	beq.n	80053ea <_dtoa_r+0x93a>
 80052ec:	f1c0 0320 	rsb	r3, r0, #32
 80052f0:	2b04      	cmp	r3, #4
 80052f2:	dd72      	ble.n	80053da <_dtoa_r+0x92a>
 80052f4:	9b08      	ldr	r3, [sp, #32]
 80052f6:	f1c0 001c 	rsb	r0, r0, #28
 80052fa:	4403      	add	r3, r0
 80052fc:	4407      	add	r7, r0
 80052fe:	4406      	add	r6, r0
 8005300:	9308      	str	r3, [sp, #32]
 8005302:	2f00      	cmp	r7, #0
 8005304:	dd05      	ble.n	8005312 <_dtoa_r+0x862>
 8005306:	9901      	ldr	r1, [sp, #4]
 8005308:	463a      	mov	r2, r7
 800530a:	4648      	mov	r0, r9
 800530c:	f000 fcc6 	bl	8005c9c <__lshift>
 8005310:	9001      	str	r0, [sp, #4]
 8005312:	9b08      	ldr	r3, [sp, #32]
 8005314:	2b00      	cmp	r3, #0
 8005316:	dd05      	ble.n	8005324 <_dtoa_r+0x874>
 8005318:	4629      	mov	r1, r5
 800531a:	461a      	mov	r2, r3
 800531c:	4648      	mov	r0, r9
 800531e:	f000 fcbd 	bl	8005c9c <__lshift>
 8005322:	4605      	mov	r5, r0
 8005324:	9b12      	ldr	r3, [sp, #72]	@ 0x48
 8005326:	2b00      	cmp	r3, #0
 8005328:	d061      	beq.n	80053ee <_dtoa_r+0x93e>
 800532a:	9801      	ldr	r0, [sp, #4]
 800532c:	4629      	mov	r1, r5
 800532e:	f000 fd23 	bl	8005d78 <__mcmp>
 8005332:	2800      	cmp	r0, #0
 8005334:	da5b      	bge.n	80053ee <_dtoa_r+0x93e>
 8005336:	f108 33ff 	add.w	r3, r8, #4294967295	@ 0xffffffff
 800533a:	9302      	str	r3, [sp, #8]
 800533c:	9901      	ldr	r1, [sp, #4]
 800533e:	2300      	movs	r3, #0
 8005340:	220a      	movs	r2, #10
 8005342:	4648      	mov	r0, r9
 8005344:	f000 fafc 	bl	8005940 <__multadd>
 8005348:	9b0b      	ldr	r3, [sp, #44]	@ 0x2c
 800534a:	9001      	str	r0, [sp, #4]
 800534c:	2b00      	cmp	r3, #0
 800534e:	f000 8179 	beq.w	8005644 <_dtoa_r+0xb94>
 8005352:	2300      	movs	r3, #0
 8005354:	4621      	mov	r1, r4
 8005356:	220a      	movs	r2, #10
 8005358:	4648      	mov	r0, r9
 800535a:	f000 faf1 	bl	8005940 <__multadd>
 800535e:	9b05      	ldr	r3, [sp, #20]
 8005360:	2b00      	cmp	r3, #0
 8005362:	4604      	mov	r4, r0
 8005364:	dc72      	bgt.n	800544c <_dtoa_r+0x99c>
 8005366:	9b0a      	ldr	r3, [sp, #40]	@ 0x28
 8005368:	2b02      	cmp	r3, #2
 800536a:	dc49      	bgt.n	8005400 <_dtoa_r+0x950>
 800536c:	e06e      	b.n	800544c <_dtoa_r+0x99c>
 800536e:	9b16      	ldr	r3, [sp, #88]	@ 0x58
 8005370:	f1c3 0336 	rsb	r3, r3, #54	@ 0x36
 8005374:	e743      	b.n	80051fe <_dtoa_r+0x74e>
 8005376:	9b04      	ldr	r3, [sp, #16]
 8005378:	1e5d      	subs	r5, r3, #1
 800537a:	9b09      	ldr	r3, [sp, #36]	@ 0x24
 800537c:	42ab      	cmp	r3, r5
 800537e:	db0d      	blt.n	800539c <_dtoa_r+0x8ec>
 8005380:	1b5d      	subs	r5, r3, r5
 8005382:	9b04      	ldr	r3, [sp, #16]
 8005384:	2b00      	cmp	r3, #0
 8005386:	f6bf af3b 	bge.w	8005200 <_dtoa_r+0x750>
 800538a:	9b04      	ldr	r3, [sp, #16]
 800538c:	1afe      	subs	r6, r7, r3
 800538e:	2300      	movs	r3, #0
 8005390:	e737      	b.n	8005202 <_dtoa_r+0x752>
 8005392:	bf00      	nop
 8005394:	3fe00000 	.word	0x3fe00000
 8005398:	40240000 	.word	0x40240000
 800539c:	9b09      	ldr	r3, [sp, #36]	@ 0x24
 800539e:	9a0d      	ldr	r2, [sp, #52]	@ 0x34
 80053a0:	9509      	str	r5, [sp, #36]	@ 0x24
 80053a2:	1aeb      	subs	r3, r5, r3
 80053a4:	441a      	add	r2, r3
 80053a6:	920d      	str	r2, [sp, #52]	@ 0x34
 80053a8:	9b04      	ldr	r3, [sp, #16]
 80053aa:	463e      	mov	r6, r7
 80053ac:	2500      	movs	r5, #0
 80053ae:	e728      	b.n	8005202 <_dtoa_r+0x752>
 80053b0:	9d09      	ldr	r5, [sp, #36]	@ 0x24
 80053b2:	9c0b      	ldr	r4, [sp, #44]	@ 0x2c
 80053b4:	463e      	mov	r6, r7
 80053b6:	e72d      	b.n	8005214 <_dtoa_r+0x764>
 80053b8:	f8dd a004 	ldr.w	sl, [sp, #4]
 80053bc:	e754      	b.n	8005268 <_dtoa_r+0x7b8>
 80053be:	9a09      	ldr	r2, [sp, #36]	@ 0x24
 80053c0:	9901      	ldr	r1, [sp, #4]
 80053c2:	e753      	b.n	800526c <_dtoa_r+0x7bc>
 80053c4:	f8cd a004 	str.w	sl, [sp, #4]
 80053c8:	e754      	b.n	8005274 <_dtoa_r+0x7c4>
 80053ca:	f04f 0a00 	mov.w	sl, #0
 80053ce:	e77c      	b.n	80052ca <_dtoa_r+0x81a>
 80053d0:	469a      	mov	sl, r3
 80053d2:	e77a      	b.n	80052ca <_dtoa_r+0x81a>
 80053d4:	f04f 0a00 	mov.w	sl, #0
 80053d8:	e77b      	b.n	80052d2 <_dtoa_r+0x822>
 80053da:	d092      	beq.n	8005302 <_dtoa_r+0x852>
 80053dc:	9a08      	ldr	r2, [sp, #32]
 80053de:	331c      	adds	r3, #28
 80053e0:	441a      	add	r2, r3
 80053e2:	441f      	add	r7, r3
 80053e4:	441e      	add	r6, r3
 80053e6:	9208      	str	r2, [sp, #32]
 80053e8:	e78b      	b.n	8005302 <_dtoa_r+0x852>
 80053ea:	4603      	mov	r3, r0
 80053ec:	e7f6      	b.n	80053dc <_dtoa_r+0x92c>
 80053ee:	9b04      	ldr	r3, [sp, #16]
 80053f0:	f8cd 8008 	str.w	r8, [sp, #8]
 80053f4:	2b00      	cmp	r3, #0
 80053f6:	dc23      	bgt.n	8005440 <_dtoa_r+0x990>
 80053f8:	9305      	str	r3, [sp, #20]
 80053fa:	9b0a      	ldr	r3, [sp, #40]	@ 0x28
 80053fc:	2b02      	cmp	r3, #2
 80053fe:	dd21      	ble.n	8005444 <_dtoa_r+0x994>
 8005400:	9b05      	ldr	r3, [sp, #20]
 8005402:	2b00      	cmp	r3, #0
 8005404:	f47f adb0 	bne.w	8004f68 <_dtoa_r+0x4b8>
 8005408:	4629      	mov	r1, r5
 800540a:	2205      	movs	r2, #5
 800540c:	4648      	mov	r0, r9
 800540e:	f000 fa97 	bl	8005940 <__multadd>
 8005412:	4601      	mov	r1, r0
 8005414:	4605      	mov	r5, r0
 8005416:	9801      	ldr	r0, [sp, #4]
 8005418:	f000 fcae 	bl	8005d78 <__mcmp>
 800541c:	2800      	cmp	r0, #0
 800541e:	f77f ada3 	ble.w	8004f68 <_dtoa_r+0x4b8>
 8005422:	9e00      	ldr	r6, [sp, #0]
 8005424:	2331      	movs	r3, #49	@ 0x31
 8005426:	f806 3b01 	strb.w	r3, [r6], #1
 800542a:	9b02      	ldr	r3, [sp, #8]
 800542c:	3301      	adds	r3, #1
 800542e:	9302      	str	r3, [sp, #8]
 8005430:	e59e      	b.n	8004f70 <_dtoa_r+0x4c0>
 8005432:	4635      	mov	r5, r6
 8005434:	462c      	mov	r4, r5
 8005436:	e7f4      	b.n	8005422 <_dtoa_r+0x972>
 8005438:	9d04      	ldr	r5, [sp, #16]
 800543a:	f8cd 8008 	str.w	r8, [sp, #8]
 800543e:	e7f9      	b.n	8005434 <_dtoa_r+0x984>
 8005440:	9b04      	ldr	r3, [sp, #16]
 8005442:	9305      	str	r3, [sp, #20]
 8005444:	9b0b      	ldr	r3, [sp, #44]	@ 0x2c
 8005446:	2b00      	cmp	r3, #0
 8005448:	f000 8100 	beq.w	800564c <_dtoa_r+0xb9c>
 800544c:	2e00      	cmp	r6, #0
 800544e:	dd05      	ble.n	800545c <_dtoa_r+0x9ac>
 8005450:	4621      	mov	r1, r4
 8005452:	4632      	mov	r2, r6
 8005454:	4648      	mov	r0, r9
 8005456:	f000 fc21 	bl	8005c9c <__lshift>
 800545a:	4604      	mov	r4, r0
 800545c:	f1ba 0f00 	cmp.w	sl, #0
 8005460:	d05a      	beq.n	8005518 <_dtoa_r+0xa68>
 8005462:	6861      	ldr	r1, [r4, #4]
 8005464:	4648      	mov	r0, r9
 8005466:	f000 fa0b 	bl	8005880 <_Balloc>
 800546a:	4606      	mov	r6, r0
 800546c:	b928      	cbnz	r0, 800547a <_dtoa_r+0x9ca>
 800546e:	4b82      	ldr	r3, [pc, #520]	@ (8005678 <_dtoa_r+0xbc8>)
 8005470:	4602      	mov	r2, r0
 8005472:	f240 21ef 	movw	r1, #751	@ 0x2ef
 8005476:	f7ff bb32 	b.w	8004ade <_dtoa_r+0x2e>
 800547a:	6922      	ldr	r2, [r4, #16]
 800547c:	3202      	adds	r2, #2
 800547e:	0092      	lsls	r2, r2, #2
 8005480:	f104 010c 	add.w	r1, r4, #12
 8005484:	300c      	adds	r0, #12
 8005486:	f000 ffb3 	bl	80063f0 <memcpy>
 800548a:	2201      	movs	r2, #1
 800548c:	4631      	mov	r1, r6
 800548e:	4648      	mov	r0, r9
 8005490:	f000 fc04 	bl	8005c9c <__lshift>
 8005494:	4607      	mov	r7, r0
 8005496:	9b00      	ldr	r3, [sp, #0]
 8005498:	9a00      	ldr	r2, [sp, #0]
 800549a:	f103 0b01 	add.w	fp, r3, #1
 800549e:	9b05      	ldr	r3, [sp, #20]
 80054a0:	4413      	add	r3, r2
 80054a2:	9306      	str	r3, [sp, #24]
 80054a4:	9b0e      	ldr	r3, [sp, #56]	@ 0x38
 80054a6:	f003 0301 	and.w	r3, r3, #1
 80054aa:	9308      	str	r3, [sp, #32]
 80054ac:	f10b 33ff 	add.w	r3, fp, #4294967295	@ 0xffffffff
 80054b0:	4629      	mov	r1, r5
 80054b2:	9801      	ldr	r0, [sp, #4]
 80054b4:	9304      	str	r3, [sp, #16]
 80054b6:	f7ff fa70 	bl	800499a <quorem>
 80054ba:	4621      	mov	r1, r4
 80054bc:	9005      	str	r0, [sp, #20]
 80054be:	f100 0a30 	add.w	sl, r0, #48	@ 0x30
 80054c2:	9801      	ldr	r0, [sp, #4]
 80054c4:	f000 fc58 	bl	8005d78 <__mcmp>
 80054c8:	463a      	mov	r2, r7
 80054ca:	4680      	mov	r8, r0
 80054cc:	4629      	mov	r1, r5
 80054ce:	4648      	mov	r0, r9
 80054d0:	f000 fc6e 	bl	8005db0 <__mdiff>
 80054d4:	68c2      	ldr	r2, [r0, #12]
 80054d6:	4606      	mov	r6, r0
 80054d8:	bb02      	cbnz	r2, 800551c <_dtoa_r+0xa6c>
 80054da:	4601      	mov	r1, r0
 80054dc:	9801      	ldr	r0, [sp, #4]
 80054de:	f000 fc4b 	bl	8005d78 <__mcmp>
 80054e2:	4602      	mov	r2, r0
 80054e4:	4631      	mov	r1, r6
 80054e6:	4648      	mov	r0, r9
 80054e8:	9209      	str	r2, [sp, #36]	@ 0x24
 80054ea:	f000 fa07 	bl	80058fc <_Bfree>
 80054ee:	e9dd 2309 	ldrd	r2, r3, [sp, #36]	@ 0x24
 80054f2:	ea42 0103 	orr.w	r1, r2, r3
 80054f6:	9b08      	ldr	r3, [sp, #32]
 80054f8:	4319      	orrs	r1, r3
 80054fa:	465e      	mov	r6, fp
 80054fc:	d110      	bne.n	8005520 <_dtoa_r+0xa70>
 80054fe:	f1ba 0f39 	cmp.w	sl, #57	@ 0x39
 8005502:	d02b      	beq.n	800555c <_dtoa_r+0xaac>
 8005504:	f1b8 0f00 	cmp.w	r8, #0
 8005508:	dd02      	ble.n	8005510 <_dtoa_r+0xa60>
 800550a:	9b05      	ldr	r3, [sp, #20]
 800550c:	f103 0a31 	add.w	sl, r3, #49	@ 0x31
 8005510:	9b04      	ldr	r3, [sp, #16]
 8005512:	f883 a000 	strb.w	sl, [r3]
 8005516:	e52d      	b.n	8004f74 <_dtoa_r+0x4c4>
 8005518:	4627      	mov	r7, r4
 800551a:	e7bc      	b.n	8005496 <_dtoa_r+0x9e6>
 800551c:	2201      	movs	r2, #1
 800551e:	e7e1      	b.n	80054e4 <_dtoa_r+0xa34>
 8005520:	f1b8 0f00 	cmp.w	r8, #0
 8005524:	db06      	blt.n	8005534 <_dtoa_r+0xa84>
 8005526:	9b0a      	ldr	r3, [sp, #40]	@ 0x28
 8005528:	ea48 0803 	orr.w	r8, r8, r3
 800552c:	9b08      	ldr	r3, [sp, #32]
 800552e:	ea58 0803 	orrs.w	r8, r8, r3
 8005532:	d120      	bne.n	8005576 <_dtoa_r+0xac6>
 8005534:	2a00      	cmp	r2, #0
 8005536:	ddeb      	ble.n	8005510 <_dtoa_r+0xa60>
 8005538:	9901      	ldr	r1, [sp, #4]
 800553a:	2201      	movs	r2, #1
 800553c:	4648      	mov	r0, r9
 800553e:	f000 fbad 	bl	8005c9c <__lshift>
 8005542:	4629      	mov	r1, r5
 8005544:	9001      	str	r0, [sp, #4]
 8005546:	f000 fc17 	bl	8005d78 <__mcmp>
 800554a:	2800      	cmp	r0, #0
 800554c:	dc03      	bgt.n	8005556 <_dtoa_r+0xaa6>
 800554e:	d1df      	bne.n	8005510 <_dtoa_r+0xa60>
 8005550:	f01a 0f01 	tst.w	sl, #1
 8005554:	d0dc      	beq.n	8005510 <_dtoa_r+0xa60>
 8005556:	f1ba 0f39 	cmp.w	sl, #57	@ 0x39
 800555a:	d1d6      	bne.n	800550a <_dtoa_r+0xa5a>
 800555c:	9a04      	ldr	r2, [sp, #16]
 800555e:	2339      	movs	r3, #57	@ 0x39
 8005560:	7013      	strb	r3, [r2, #0]
 8005562:	4633      	mov	r3, r6
 8005564:	461e      	mov	r6, r3
 8005566:	3b01      	subs	r3, #1
 8005568:	f816 2c01 	ldrb.w	r2, [r6, #-1]
 800556c:	2a39      	cmp	r2, #57	@ 0x39
 800556e:	d052      	beq.n	8005616 <_dtoa_r+0xb66>
 8005570:	3201      	adds	r2, #1
 8005572:	701a      	strb	r2, [r3, #0]
 8005574:	e4fe      	b.n	8004f74 <_dtoa_r+0x4c4>
 8005576:	2a00      	cmp	r2, #0
 8005578:	dd07      	ble.n	800558a <_dtoa_r+0xada>
 800557a:	f1ba 0f39 	cmp.w	sl, #57	@ 0x39
 800557e:	d0ed      	beq.n	800555c <_dtoa_r+0xaac>
 8005580:	9a04      	ldr	r2, [sp, #16]
 8005582:	f10a 0301 	add.w	r3, sl, #1
 8005586:	7013      	strb	r3, [r2, #0]
 8005588:	e4f4      	b.n	8004f74 <_dtoa_r+0x4c4>
 800558a:	9b06      	ldr	r3, [sp, #24]
 800558c:	f80b ac01 	strb.w	sl, [fp, #-1]
 8005590:	455b      	cmp	r3, fp
 8005592:	d02a      	beq.n	80055ea <_dtoa_r+0xb3a>
 8005594:	9901      	ldr	r1, [sp, #4]
 8005596:	2300      	movs	r3, #0
 8005598:	220a      	movs	r2, #10
 800559a:	4648      	mov	r0, r9
 800559c:	f000 f9d0 	bl	8005940 <__multadd>
 80055a0:	42bc      	cmp	r4, r7
 80055a2:	9001      	str	r0, [sp, #4]
 80055a4:	f04f 0300 	mov.w	r3, #0
 80055a8:	f04f 020a 	mov.w	r2, #10
 80055ac:	4621      	mov	r1, r4
 80055ae:	4648      	mov	r0, r9
 80055b0:	d106      	bne.n	80055c0 <_dtoa_r+0xb10>
 80055b2:	f000 f9c5 	bl	8005940 <__multadd>
 80055b6:	4604      	mov	r4, r0
 80055b8:	4607      	mov	r7, r0
 80055ba:	f10b 0b01 	add.w	fp, fp, #1
 80055be:	e775      	b.n	80054ac <_dtoa_r+0x9fc>
 80055c0:	f000 f9be 	bl	8005940 <__multadd>
 80055c4:	4639      	mov	r1, r7
 80055c6:	4604      	mov	r4, r0
 80055c8:	2300      	movs	r3, #0
 80055ca:	220a      	movs	r2, #10
 80055cc:	4648      	mov	r0, r9
 80055ce:	f000 f9b7 	bl	8005940 <__multadd>
 80055d2:	4607      	mov	r7, r0
 80055d4:	e7f1      	b.n	80055ba <_dtoa_r+0xb0a>
 80055d6:	9b05      	ldr	r3, [sp, #20]
 80055d8:	1e5e      	subs	r6, r3, #1
 80055da:	2b00      	cmp	r3, #0
 80055dc:	9b00      	ldr	r3, [sp, #0]
 80055de:	bfd8      	it	le
 80055e0:	2600      	movle	r6, #0
 80055e2:	1c5a      	adds	r2, r3, #1
 80055e4:	4627      	mov	r7, r4
 80055e6:	4416      	add	r6, r2
 80055e8:	2400      	movs	r4, #0
 80055ea:	9901      	ldr	r1, [sp, #4]
 80055ec:	2201      	movs	r2, #1
 80055ee:	4648      	mov	r0, r9
 80055f0:	f000 fb54 	bl	8005c9c <__lshift>
 80055f4:	4629      	mov	r1, r5
 80055f6:	9001      	str	r0, [sp, #4]
 80055f8:	f000 fbbe 	bl	8005d78 <__mcmp>
 80055fc:	2800      	cmp	r0, #0
 80055fe:	dcb0      	bgt.n	8005562 <_dtoa_r+0xab2>
 8005600:	d102      	bne.n	8005608 <_dtoa_r+0xb58>
 8005602:	f01a 0f01 	tst.w	sl, #1
 8005606:	d1ac      	bne.n	8005562 <_dtoa_r+0xab2>
 8005608:	4633      	mov	r3, r6
 800560a:	461e      	mov	r6, r3
 800560c:	f813 2d01 	ldrb.w	r2, [r3, #-1]!
 8005610:	2a30      	cmp	r2, #48	@ 0x30
 8005612:	d0fa      	beq.n	800560a <_dtoa_r+0xb5a>
 8005614:	e4ae      	b.n	8004f74 <_dtoa_r+0x4c4>
 8005616:	9a00      	ldr	r2, [sp, #0]
 8005618:	429a      	cmp	r2, r3
 800561a:	d1a3      	bne.n	8005564 <_dtoa_r+0xab4>
 800561c:	9b02      	ldr	r3, [sp, #8]
 800561e:	3301      	adds	r3, #1
 8005620:	9302      	str	r3, [sp, #8]
 8005622:	2331      	movs	r3, #49	@ 0x31
 8005624:	e7af      	b.n	8005586 <_dtoa_r+0xad6>
 8005626:	9b23      	ldr	r3, [sp, #140]	@ 0x8c
 8005628:	2b00      	cmp	r3, #0
 800562a:	f47f aa8c 	bne.w	8004b46 <_dtoa_r+0x96>
 800562e:	4b13      	ldr	r3, [pc, #76]	@ (800567c <_dtoa_r+0xbcc>)
 8005630:	f7ff baab 	b.w	8004b8a <_dtoa_r+0xda>
 8005634:	9b0a      	ldr	r3, [sp, #40]	@ 0x28
 8005636:	2b01      	cmp	r3, #1
 8005638:	f77f ae2f 	ble.w	800529a <_dtoa_r+0x7ea>
 800563c:	f8dd a034 	ldr.w	sl, [sp, #52]	@ 0x34
 8005640:	2001      	movs	r0, #1
 8005642:	e64e      	b.n	80052e2 <_dtoa_r+0x832>
 8005644:	9b05      	ldr	r3, [sp, #20]
 8005646:	2b00      	cmp	r3, #0
 8005648:	f77f aed7 	ble.w	80053fa <_dtoa_r+0x94a>
 800564c:	9e00      	ldr	r6, [sp, #0]
 800564e:	9801      	ldr	r0, [sp, #4]
 8005650:	4629      	mov	r1, r5
 8005652:	f7ff f9a2 	bl	800499a <quorem>
 8005656:	f100 0a30 	add.w	sl, r0, #48	@ 0x30
 800565a:	9b00      	ldr	r3, [sp, #0]
 800565c:	f806 ab01 	strb.w	sl, [r6], #1
 8005660:	1af2      	subs	r2, r6, r3
 8005662:	9b05      	ldr	r3, [sp, #20]
 8005664:	4293      	cmp	r3, r2
 8005666:	ddb6      	ble.n	80055d6 <_dtoa_r+0xb26>
 8005668:	9901      	ldr	r1, [sp, #4]
 800566a:	2300      	movs	r3, #0
 800566c:	220a      	movs	r2, #10
 800566e:	4648      	mov	r0, r9
 8005670:	f000 f966 	bl	8005940 <__multadd>
 8005674:	9001      	str	r0, [sp, #4]
 8005676:	e7ea      	b.n	800564e <_dtoa_r+0xb9e>
 8005678:	0800711a 	.word	0x0800711a
 800567c:	080070b4 	.word	0x080070b4

08005680 <_free_r>:
 8005680:	b538      	push	{r3, r4, r5, lr}
 8005682:	4605      	mov	r5, r0
 8005684:	2900      	cmp	r1, #0
 8005686:	d041      	beq.n	800570c <_free_r+0x8c>
 8005688:	f851 3c04 	ldr.w	r3, [r1, #-4]
 800568c:	1f0c      	subs	r4, r1, #4
 800568e:	2b00      	cmp	r3, #0
 8005690:	bfb8      	it	lt
 8005692:	18e4      	addlt	r4, r4, r3
 8005694:	f000 f8e8 	bl	8005868 <__malloc_lock>
 8005698:	4a1d      	ldr	r2, [pc, #116]	@ (8005710 <_free_r+0x90>)
 800569a:	6813      	ldr	r3, [r2, #0]
 800569c:	b933      	cbnz	r3, 80056ac <_free_r+0x2c>
 800569e:	6063      	str	r3, [r4, #4]
 80056a0:	6014      	str	r4, [r2, #0]
 80056a2:	4628      	mov	r0, r5
 80056a4:	e8bd 4038 	ldmia.w	sp!, {r3, r4, r5, lr}
 80056a8:	f000 b8e4 	b.w	8005874 <__malloc_unlock>
 80056ac:	42a3      	cmp	r3, r4
 80056ae:	d908      	bls.n	80056c2 <_free_r+0x42>
 80056b0:	6820      	ldr	r0, [r4, #0]
 80056b2:	1821      	adds	r1, r4, r0
 80056b4:	428b      	cmp	r3, r1
 80056b6:	bf01      	itttt	eq
 80056b8:	6819      	ldreq	r1, [r3, #0]
 80056ba:	685b      	ldreq	r3, [r3, #4]
 80056bc:	1809      	addeq	r1, r1, r0
 80056be:	6021      	streq	r1, [r4, #0]
 80056c0:	e7ed      	b.n	800569e <_free_r+0x1e>
 80056c2:	461a      	mov	r2, r3
 80056c4:	685b      	ldr	r3, [r3, #4]
 80056c6:	b10b      	cbz	r3, 80056cc <_free_r+0x4c>
 80056c8:	42a3      	cmp	r3, r4
 80056ca:	d9fa      	bls.n	80056c2 <_free_r+0x42>
 80056cc:	6811      	ldr	r1, [r2, #0]
 80056ce:	1850      	adds	r0, r2, r1
 80056d0:	42a0      	cmp	r0, r4
 80056d2:	d10b      	bne.n	80056ec <_free_r+0x6c>
 80056d4:	6820      	ldr	r0, [r4, #0]
 80056d6:	4401      	add	r1, r0
 80056d8:	1850      	adds	r0, r2, r1
 80056da:	4283      	cmp	r3, r0
 80056dc:	6011      	str	r1, [r2, #0]
 80056de:	d1e0      	bne.n	80056a2 <_free_r+0x22>
 80056e0:	6818      	ldr	r0, [r3, #0]
 80056e2:	685b      	ldr	r3, [r3, #4]
 80056e4:	6053      	str	r3, [r2, #4]
 80056e6:	4408      	add	r0, r1
 80056e8:	6010      	str	r0, [r2, #0]
 80056ea:	e7da      	b.n	80056a2 <_free_r+0x22>
 80056ec:	d902      	bls.n	80056f4 <_free_r+0x74>
 80056ee:	230c      	movs	r3, #12
 80056f0:	602b      	str	r3, [r5, #0]
 80056f2:	e7d6      	b.n	80056a2 <_free_r+0x22>
 80056f4:	6820      	ldr	r0, [r4, #0]
 80056f6:	1821      	adds	r1, r4, r0
 80056f8:	428b      	cmp	r3, r1
 80056fa:	bf04      	itt	eq
 80056fc:	6819      	ldreq	r1, [r3, #0]
 80056fe:	685b      	ldreq	r3, [r3, #4]
 8005700:	6063      	str	r3, [r4, #4]
 8005702:	bf04      	itt	eq
 8005704:	1809      	addeq	r1, r1, r0
 8005706:	6021      	streq	r1, [r4, #0]
 8005708:	6054      	str	r4, [r2, #4]
 800570a:	e7ca      	b.n	80056a2 <_free_r+0x22>
 800570c:	bd38      	pop	{r3, r4, r5, pc}
 800570e:	bf00      	nop
 8005710:	20000440 	.word	0x20000440

08005714 <malloc>:
 8005714:	4b02      	ldr	r3, [pc, #8]	@ (8005720 <malloc+0xc>)
 8005716:	4601      	mov	r1, r0
 8005718:	6818      	ldr	r0, [r3, #0]
 800571a:	f000 b825 	b.w	8005768 <_malloc_r>
 800571e:	bf00      	nop
 8005720:	20000018 	.word	0x20000018

08005724 <sbrk_aligned>:
 8005724:	b570      	push	{r4, r5, r6, lr}
 8005726:	4e0f      	ldr	r6, [pc, #60]	@ (8005764 <sbrk_aligned+0x40>)
 8005728:	460c      	mov	r4, r1
 800572a:	6831      	ldr	r1, [r6, #0]
 800572c:	4605      	mov	r5, r0
 800572e:	b911      	cbnz	r1, 8005736 <sbrk_aligned+0x12>
 8005730:	f000 fe4e 	bl	80063d0 <_sbrk_r>
 8005734:	6030      	str	r0, [r6, #0]
 8005736:	4621      	mov	r1, r4
 8005738:	4628      	mov	r0, r5
 800573a:	f000 fe49 	bl	80063d0 <_sbrk_r>
 800573e:	1c43      	adds	r3, r0, #1
 8005740:	d103      	bne.n	800574a <sbrk_aligned+0x26>
 8005742:	f04f 34ff 	mov.w	r4, #4294967295	@ 0xffffffff
 8005746:	4620      	mov	r0, r4
 8005748:	bd70      	pop	{r4, r5, r6, pc}
 800574a:	1cc4      	adds	r4, r0, #3
 800574c:	f024 0403 	bic.w	r4, r4, #3
 8005750:	42a0      	cmp	r0, r4
 8005752:	d0f8      	beq.n	8005746 <sbrk_aligned+0x22>
 8005754:	1a21      	subs	r1, r4, r0
 8005756:	4628      	mov	r0, r5
 8005758:	f000 fe3a 	bl	80063d0 <_sbrk_r>
 800575c:	3001      	adds	r0, #1
 800575e:	d1f2      	bne.n	8005746 <sbrk_aligned+0x22>
 8005760:	e7ef      	b.n	8005742 <sbrk_aligned+0x1e>
 8005762:	bf00      	nop
 8005764:	2000043c 	.word	0x2000043c

08005768 <_malloc_r>:
 8005768:	e92d 43f8 	stmdb	sp!, {r3, r4, r5, r6, r7, r8, r9, lr}
 800576c:	1ccd      	adds	r5, r1, #3
 800576e:	f025 0503 	bic.w	r5, r5, #3
 8005772:	3508      	adds	r5, #8
 8005774:	2d0c      	cmp	r5, #12
 8005776:	bf38      	it	cc
 8005778:	250c      	movcc	r5, #12
 800577a:	2d00      	cmp	r5, #0
 800577c:	4606      	mov	r6, r0
 800577e:	db01      	blt.n	8005784 <_malloc_r+0x1c>
 8005780:	42a9      	cmp	r1, r5
 8005782:	d904      	bls.n	800578e <_malloc_r+0x26>
 8005784:	230c      	movs	r3, #12
 8005786:	6033      	str	r3, [r6, #0]
 8005788:	2000      	movs	r0, #0
 800578a:	e8bd 83f8 	ldmia.w	sp!, {r3, r4, r5, r6, r7, r8, r9, pc}
 800578e:	f8df 80d4 	ldr.w	r8, [pc, #212]	@ 8005864 <_malloc_r+0xfc>
 8005792:	f000 f869 	bl	8005868 <__malloc_lock>
 8005796:	f8d8 3000 	ldr.w	r3, [r8]
 800579a:	461c      	mov	r4, r3
 800579c:	bb44      	cbnz	r4, 80057f0 <_malloc_r+0x88>
 800579e:	4629      	mov	r1, r5
 80057a0:	4630      	mov	r0, r6
 80057a2:	f7ff ffbf 	bl	8005724 <sbrk_aligned>
 80057a6:	1c43      	adds	r3, r0, #1
 80057a8:	4604      	mov	r4, r0
 80057aa:	d158      	bne.n	800585e <_malloc_r+0xf6>
 80057ac:	f8d8 4000 	ldr.w	r4, [r8]
 80057b0:	4627      	mov	r7, r4
 80057b2:	2f00      	cmp	r7, #0
 80057b4:	d143      	bne.n	800583e <_malloc_r+0xd6>
 80057b6:	2c00      	cmp	r4, #0
 80057b8:	d04b      	beq.n	8005852 <_malloc_r+0xea>
 80057ba:	6823      	ldr	r3, [r4, #0]
 80057bc:	4639      	mov	r1, r7
 80057be:	4630      	mov	r0, r6
 80057c0:	eb04 0903 	add.w	r9, r4, r3
 80057c4:	f000 fe04 	bl	80063d0 <_sbrk_r>
 80057c8:	4581      	cmp	r9, r0
 80057ca:	d142      	bne.n	8005852 <_malloc_r+0xea>
 80057cc:	6821      	ldr	r1, [r4, #0]
 80057ce:	1a6d      	subs	r5, r5, r1
 80057d0:	4629      	mov	r1, r5
 80057d2:	4630      	mov	r0, r6
 80057d4:	f7ff ffa6 	bl	8005724 <sbrk_aligned>
 80057d8:	3001      	adds	r0, #1
 80057da:	d03a      	beq.n	8005852 <_malloc_r+0xea>
 80057dc:	6823      	ldr	r3, [r4, #0]
 80057de:	442b      	add	r3, r5
 80057e0:	6023      	str	r3, [r4, #0]
 80057e2:	f8d8 3000 	ldr.w	r3, [r8]
 80057e6:	685a      	ldr	r2, [r3, #4]
 80057e8:	bb62      	cbnz	r2, 8005844 <_malloc_r+0xdc>
 80057ea:	f8c8 7000 	str.w	r7, [r8]
 80057ee:	e00f      	b.n	8005810 <_malloc_r+0xa8>
 80057f0:	6822      	ldr	r2, [r4, #0]
 80057f2:	1b52      	subs	r2, r2, r5
 80057f4:	d420      	bmi.n	8005838 <_malloc_r+0xd0>
 80057f6:	2a0b      	cmp	r2, #11
 80057f8:	d917      	bls.n	800582a <_malloc_r+0xc2>
 80057fa:	1961      	adds	r1, r4, r5
 80057fc:	42a3      	cmp	r3, r4
 80057fe:	6025      	str	r5, [r4, #0]
 8005800:	bf18      	it	ne
 8005802:	6059      	strne	r1, [r3, #4]
 8005804:	6863      	ldr	r3, [r4, #4]
 8005806:	bf08      	it	eq
 8005808:	f8c8 1000 	streq.w	r1, [r8]
 800580c:	5162      	str	r2, [r4, r5]
 800580e:	604b      	str	r3, [r1, #4]
 8005810:	4630      	mov	r0, r6
 8005812:	f000 f82f 	bl	8005874 <__malloc_unlock>
 8005816:	f104 000b 	add.w	r0, r4, #11
 800581a:	1d23      	adds	r3, r4, #4
 800581c:	f020 0007 	bic.w	r0, r0, #7
 8005820:	1ac2      	subs	r2, r0, r3
 8005822:	bf1c      	itt	ne
 8005824:	1a1b      	subne	r3, r3, r0
 8005826:	50a3      	strne	r3, [r4, r2]
 8005828:	e7af      	b.n	800578a <_malloc_r+0x22>
 800582a:	6862      	ldr	r2, [r4, #4]
 800582c:	42a3      	cmp	r3, r4
 800582e:	bf0c      	ite	eq
 8005830:	f8c8 2000 	streq.w	r2, [r8]
 8005834:	605a      	strne	r2, [r3, #4]
 8005836:	e7eb      	b.n	8005810 <_malloc_r+0xa8>
 8005838:	4623      	mov	r3, r4
 800583a:	6864      	ldr	r4, [r4, #4]
 800583c:	e7ae      	b.n	800579c <_malloc_r+0x34>
 800583e:	463c      	mov	r4, r7
 8005840:	687f      	ldr	r7, [r7, #4]
 8005842:	e7b6      	b.n	80057b2 <_malloc_r+0x4a>
 8005844:	461a      	mov	r2, r3
 8005846:	685b      	ldr	r3, [r3, #4]
 8005848:	42a3      	cmp	r3, r4
 800584a:	d1fb      	bne.n	8005844 <_malloc_r+0xdc>
 800584c:	2300      	movs	r3, #0
 800584e:	6053      	str	r3, [r2, #4]
 8005850:	e7de      	b.n	8005810 <_malloc_r+0xa8>
 8005852:	230c      	movs	r3, #12
 8005854:	6033      	str	r3, [r6, #0]
 8005856:	4630      	mov	r0, r6
 8005858:	f000 f80c 	bl	8005874 <__malloc_unlock>
 800585c:	e794      	b.n	8005788 <_malloc_r+0x20>
 800585e:	6005      	str	r5, [r0, #0]
 8005860:	e7d6      	b.n	8005810 <_malloc_r+0xa8>
 8005862:	bf00      	nop
 8005864:	20000440 	.word	0x20000440

08005868 <__malloc_lock>:
 8005868:	4801      	ldr	r0, [pc, #4]	@ (8005870 <__malloc_lock+0x8>)
 800586a:	f7ff b894 	b.w	8004996 <__retarget_lock_acquire_recursive>
 800586e:	bf00      	nop
 8005870:	20000438 	.word	0x20000438

08005874 <__malloc_unlock>:
 8005874:	4801      	ldr	r0, [pc, #4]	@ (800587c <__malloc_unlock+0x8>)
 8005876:	f7ff b88f 	b.w	8004998 <__retarget_lock_release_recursive>
 800587a:	bf00      	nop
 800587c:	20000438 	.word	0x20000438

08005880 <_Balloc>:
 8005880:	b570      	push	{r4, r5, r6, lr}
 8005882:	69c4      	ldr	r4, [r0, #28]
 8005884:	4605      	mov	r5, r0
 8005886:	460e      	mov	r6, r1
 8005888:	b984      	cbnz	r4, 80058ac <_Balloc+0x2c>
 800588a:	2010      	movs	r0, #16
 800588c:	f7ff ff42 	bl	8005714 <malloc>
 8005890:	4604      	mov	r4, r0
 8005892:	61e8      	str	r0, [r5, #28]
 8005894:	b928      	cbnz	r0, 80058a2 <_Balloc+0x22>
 8005896:	4602      	mov	r2, r0
 8005898:	4b16      	ldr	r3, [pc, #88]	@ (80058f4 <_Balloc+0x74>)
 800589a:	4817      	ldr	r0, [pc, #92]	@ (80058f8 <_Balloc+0x78>)
 800589c:	216b      	movs	r1, #107	@ 0x6b
 800589e:	f000 fdb5 	bl	800640c <__assert_func>
 80058a2:	2300      	movs	r3, #0
 80058a4:	e9c0 3301 	strd	r3, r3, [r0, #4]
 80058a8:	6003      	str	r3, [r0, #0]
 80058aa:	60c3      	str	r3, [r0, #12]
 80058ac:	68e3      	ldr	r3, [r4, #12]
 80058ae:	b953      	cbnz	r3, 80058c6 <_Balloc+0x46>
 80058b0:	2221      	movs	r2, #33	@ 0x21
 80058b2:	2104      	movs	r1, #4
 80058b4:	4628      	mov	r0, r5
 80058b6:	f000 fdc7 	bl	8006448 <_calloc_r>
 80058ba:	69eb      	ldr	r3, [r5, #28]
 80058bc:	60e0      	str	r0, [r4, #12]
 80058be:	68db      	ldr	r3, [r3, #12]
 80058c0:	b90b      	cbnz	r3, 80058c6 <_Balloc+0x46>
 80058c2:	2000      	movs	r0, #0
 80058c4:	bd70      	pop	{r4, r5, r6, pc}
 80058c6:	f853 0026 	ldr.w	r0, [r3, r6, lsl #2]
 80058ca:	b130      	cbz	r0, 80058da <_Balloc+0x5a>
 80058cc:	6802      	ldr	r2, [r0, #0]
 80058ce:	f843 2026 	str.w	r2, [r3, r6, lsl #2]
 80058d2:	2300      	movs	r3, #0
 80058d4:	e9c0 3303 	strd	r3, r3, [r0, #12]
 80058d8:	e7f4      	b.n	80058c4 <_Balloc+0x44>
 80058da:	2101      	movs	r1, #1
 80058dc:	fa01 f406 	lsl.w	r4, r1, r6
 80058e0:	1d62      	adds	r2, r4, #5
 80058e2:	0092      	lsls	r2, r2, #2
 80058e4:	4628      	mov	r0, r5
 80058e6:	f000 fdaf 	bl	8006448 <_calloc_r>
 80058ea:	2800      	cmp	r0, #0
 80058ec:	d0e9      	beq.n	80058c2 <_Balloc+0x42>
 80058ee:	e9c0 6401 	strd	r6, r4, [r0, #4]
 80058f2:	e7ee      	b.n	80058d2 <_Balloc+0x52>
 80058f4:	080070c1 	.word	0x080070c1
 80058f8:	0800712b 	.word	0x0800712b

080058fc <_Bfree>:
 80058fc:	b570      	push	{r4, r5, r6, lr}
 80058fe:	69c6      	ldr	r6, [r0, #28]
 8005900:	4605      	mov	r5, r0
 8005902:	460c      	mov	r4, r1
 8005904:	b976      	cbnz	r6, 8005924 <_Bfree+0x28>
 8005906:	2010      	movs	r0, #16
 8005908:	f7ff ff04 	bl	8005714 <malloc>
 800590c:	4602      	mov	r2, r0
 800590e:	61e8      	str	r0, [r5, #28]
 8005910:	b920      	cbnz	r0, 800591c <_Bfree+0x20>
 8005912:	4b09      	ldr	r3, [pc, #36]	@ (8005938 <_Bfree+0x3c>)
 8005914:	4809      	ldr	r0, [pc, #36]	@ (800593c <_Bfree+0x40>)
 8005916:	218f      	movs	r1, #143	@ 0x8f
 8005918:	f000 fd78 	bl	800640c <__assert_func>
 800591c:	e9c0 6601 	strd	r6, r6, [r0, #4]
 8005920:	6006      	str	r6, [r0, #0]
 8005922:	60c6      	str	r6, [r0, #12]
 8005924:	b13c      	cbz	r4, 8005936 <_Bfree+0x3a>
 8005926:	69eb      	ldr	r3, [r5, #28]
 8005928:	6862      	ldr	r2, [r4, #4]
 800592a:	68db      	ldr	r3, [r3, #12]
 800592c:	f853 1022 	ldr.w	r1, [r3, r2, lsl #2]
 8005930:	6021      	str	r1, [r4, #0]
 8005932:	f843 4022 	str.w	r4, [r3, r2, lsl #2]
 8005936:	bd70      	pop	{r4, r5, r6, pc}
 8005938:	080070c1 	.word	0x080070c1
 800593c:	0800712b 	.word	0x0800712b

08005940 <__multadd>:
 8005940:	e92d 41f0 	stmdb	sp!, {r4, r5, r6, r7, r8, lr}
 8005944:	690d      	ldr	r5, [r1, #16]
 8005946:	4607      	mov	r7, r0
 8005948:	460c      	mov	r4, r1
 800594a:	461e      	mov	r6, r3
 800594c:	f101 0c14 	add.w	ip, r1, #20
 8005950:	2000      	movs	r0, #0
 8005952:	f8dc 3000 	ldr.w	r3, [ip]
 8005956:	b299      	uxth	r1, r3
 8005958:	fb02 6101 	mla	r1, r2, r1, r6
 800595c:	0c1e      	lsrs	r6, r3, #16
 800595e:	0c0b      	lsrs	r3, r1, #16
 8005960:	fb02 3306 	mla	r3, r2, r6, r3
 8005964:	b289      	uxth	r1, r1
 8005966:	3001      	adds	r0, #1
 8005968:	eb01 4103 	add.w	r1, r1, r3, lsl #16
 800596c:	4285      	cmp	r5, r0
 800596e:	f84c 1b04 	str.w	r1, [ip], #4
 8005972:	ea4f 4613 	mov.w	r6, r3, lsr #16
 8005976:	dcec      	bgt.n	8005952 <__multadd+0x12>
 8005978:	b30e      	cbz	r6, 80059be <__multadd+0x7e>
 800597a:	68a3      	ldr	r3, [r4, #8]
 800597c:	42ab      	cmp	r3, r5
 800597e:	dc19      	bgt.n	80059b4 <__multadd+0x74>
 8005980:	6861      	ldr	r1, [r4, #4]
 8005982:	4638      	mov	r0, r7
 8005984:	3101      	adds	r1, #1
 8005986:	f7ff ff7b 	bl	8005880 <_Balloc>
 800598a:	4680      	mov	r8, r0
 800598c:	b928      	cbnz	r0, 800599a <__multadd+0x5a>
 800598e:	4602      	mov	r2, r0
 8005990:	4b0c      	ldr	r3, [pc, #48]	@ (80059c4 <__multadd+0x84>)
 8005992:	480d      	ldr	r0, [pc, #52]	@ (80059c8 <__multadd+0x88>)
 8005994:	21ba      	movs	r1, #186	@ 0xba
 8005996:	f000 fd39 	bl	800640c <__assert_func>
 800599a:	6922      	ldr	r2, [r4, #16]
 800599c:	3202      	adds	r2, #2
 800599e:	f104 010c 	add.w	r1, r4, #12
 80059a2:	0092      	lsls	r2, r2, #2
 80059a4:	300c      	adds	r0, #12
 80059a6:	f000 fd23 	bl	80063f0 <memcpy>
 80059aa:	4621      	mov	r1, r4
 80059ac:	4638      	mov	r0, r7
 80059ae:	f7ff ffa5 	bl	80058fc <_Bfree>
 80059b2:	4644      	mov	r4, r8
 80059b4:	eb04 0385 	add.w	r3, r4, r5, lsl #2
 80059b8:	3501      	adds	r5, #1
 80059ba:	615e      	str	r6, [r3, #20]
 80059bc:	6125      	str	r5, [r4, #16]
 80059be:	4620      	mov	r0, r4
 80059c0:	e8bd 81f0 	ldmia.w	sp!, {r4, r5, r6, r7, r8, pc}
 80059c4:	0800711a 	.word	0x0800711a
 80059c8:	0800712b 	.word	0x0800712b

080059cc <__hi0bits>:
 80059cc:	f5b0 3f80 	cmp.w	r0, #65536	@ 0x10000
 80059d0:	4603      	mov	r3, r0
 80059d2:	bf36      	itet	cc
 80059d4:	0403      	lslcc	r3, r0, #16
 80059d6:	2000      	movcs	r0, #0
 80059d8:	2010      	movcc	r0, #16
 80059da:	f1b3 7f80 	cmp.w	r3, #16777216	@ 0x1000000
 80059de:	bf3c      	itt	cc
 80059e0:	021b      	lslcc	r3, r3, #8
 80059e2:	3008      	addcc	r0, #8
 80059e4:	f1b3 5f80 	cmp.w	r3, #268435456	@ 0x10000000
 80059e8:	bf3c      	itt	cc
 80059ea:	011b      	lslcc	r3, r3, #4
 80059ec:	3004      	addcc	r0, #4
 80059ee:	f1b3 4f80 	cmp.w	r3, #1073741824	@ 0x40000000
 80059f2:	bf3c      	itt	cc
 80059f4:	009b      	lslcc	r3, r3, #2
 80059f6:	3002      	addcc	r0, #2
 80059f8:	2b00      	cmp	r3, #0
 80059fa:	db05      	blt.n	8005a08 <__hi0bits+0x3c>
 80059fc:	f013 4f80 	tst.w	r3, #1073741824	@ 0x40000000
 8005a00:	f100 0001 	add.w	r0, r0, #1
 8005a04:	bf08      	it	eq
 8005a06:	2020      	moveq	r0, #32
 8005a08:	4770      	bx	lr

08005a0a <__lo0bits>:
 8005a0a:	6803      	ldr	r3, [r0, #0]
 8005a0c:	4602      	mov	r2, r0
 8005a0e:	f013 0007 	ands.w	r0, r3, #7
 8005a12:	d00b      	beq.n	8005a2c <__lo0bits+0x22>
 8005a14:	07d9      	lsls	r1, r3, #31
 8005a16:	d421      	bmi.n	8005a5c <__lo0bits+0x52>
 8005a18:	0798      	lsls	r0, r3, #30
 8005a1a:	bf49      	itett	mi
 8005a1c:	085b      	lsrmi	r3, r3, #1
 8005a1e:	089b      	lsrpl	r3, r3, #2
 8005a20:	2001      	movmi	r0, #1
 8005a22:	6013      	strmi	r3, [r2, #0]
 8005a24:	bf5c      	itt	pl
 8005a26:	6013      	strpl	r3, [r2, #0]
 8005a28:	2002      	movpl	r0, #2
 8005a2a:	4770      	bx	lr
 8005a2c:	b299      	uxth	r1, r3
 8005a2e:	b909      	cbnz	r1, 8005a34 <__lo0bits+0x2a>
 8005a30:	0c1b      	lsrs	r3, r3, #16
 8005a32:	2010      	movs	r0, #16
 8005a34:	b2d9      	uxtb	r1, r3
 8005a36:	b909      	cbnz	r1, 8005a3c <__lo0bits+0x32>
 8005a38:	3008      	adds	r0, #8
 8005a3a:	0a1b      	lsrs	r3, r3, #8
 8005a3c:	0719      	lsls	r1, r3, #28
 8005a3e:	bf04      	itt	eq
 8005a40:	091b      	lsreq	r3, r3, #4
 8005a42:	3004      	addeq	r0, #4
 8005a44:	0799      	lsls	r1, r3, #30
 8005a46:	bf04      	itt	eq
 8005a48:	089b      	lsreq	r3, r3, #2
 8005a4a:	3002      	addeq	r0, #2
 8005a4c:	07d9      	lsls	r1, r3, #31
 8005a4e:	d403      	bmi.n	8005a58 <__lo0bits+0x4e>
 8005a50:	085b      	lsrs	r3, r3, #1
 8005a52:	f100 0001 	add.w	r0, r0, #1
 8005a56:	d003      	beq.n	8005a60 <__lo0bits+0x56>
 8005a58:	6013      	str	r3, [r2, #0]
 8005a5a:	4770      	bx	lr
 8005a5c:	2000      	movs	r0, #0
 8005a5e:	4770      	bx	lr
 8005a60:	2020      	movs	r0, #32
 8005a62:	4770      	bx	lr

08005a64 <__i2b>:
 8005a64:	b510      	push	{r4, lr}
 8005a66:	460c      	mov	r4, r1
 8005a68:	2101      	movs	r1, #1
 8005a6a:	f7ff ff09 	bl	8005880 <_Balloc>
 8005a6e:	4602      	mov	r2, r0
 8005a70:	b928      	cbnz	r0, 8005a7e <__i2b+0x1a>
 8005a72:	4b05      	ldr	r3, [pc, #20]	@ (8005a88 <__i2b+0x24>)
 8005a74:	4805      	ldr	r0, [pc, #20]	@ (8005a8c <__i2b+0x28>)
 8005a76:	f240 1145 	movw	r1, #325	@ 0x145
 8005a7a:	f000 fcc7 	bl	800640c <__assert_func>
 8005a7e:	2301      	movs	r3, #1
 8005a80:	6144      	str	r4, [r0, #20]
 8005a82:	6103      	str	r3, [r0, #16]
 8005a84:	bd10      	pop	{r4, pc}
 8005a86:	bf00      	nop
 8005a88:	0800711a 	.word	0x0800711a
 8005a8c:	0800712b 	.word	0x0800712b

08005a90 <__multiply>:
 8005a90:	e92d 4ff0 	stmdb	sp!, {r4, r5, r6, r7, r8, r9, sl, fp, lr}
 8005a94:	f8d1 9010 	ldr.w	r9, [r1, #16]
 8005a98:	f8d2 a010 	ldr.w	sl, [r2, #16]
 8005a9c:	45d1      	cmp	r9, sl
 8005a9e:	b085      	sub	sp, #20
 8005aa0:	4688      	mov	r8, r1
 8005aa2:	4614      	mov	r4, r2
 8005aa4:	db04      	blt.n	8005ab0 <__multiply+0x20>
 8005aa6:	4653      	mov	r3, sl
 8005aa8:	460c      	mov	r4, r1
 8005aaa:	46ca      	mov	sl, r9
 8005aac:	4690      	mov	r8, r2
 8005aae:	4699      	mov	r9, r3
 8005ab0:	68a3      	ldr	r3, [r4, #8]
 8005ab2:	6861      	ldr	r1, [r4, #4]
 8005ab4:	eb0a 0609 	add.w	r6, sl, r9
 8005ab8:	42b3      	cmp	r3, r6
 8005aba:	bfb8      	it	lt
 8005abc:	3101      	addlt	r1, #1
 8005abe:	f7ff fedf 	bl	8005880 <_Balloc>
 8005ac2:	b930      	cbnz	r0, 8005ad2 <__multiply+0x42>
 8005ac4:	4602      	mov	r2, r0
 8005ac6:	4b45      	ldr	r3, [pc, #276]	@ (8005bdc <__multiply+0x14c>)
 8005ac8:	4845      	ldr	r0, [pc, #276]	@ (8005be0 <__multiply+0x150>)
 8005aca:	f44f 71b1 	mov.w	r1, #354	@ 0x162
 8005ace:	f000 fc9d 	bl	800640c <__assert_func>
 8005ad2:	f100 0514 	add.w	r5, r0, #20
 8005ad6:	eb05 0786 	add.w	r7, r5, r6, lsl #2
 8005ada:	462b      	mov	r3, r5
 8005adc:	2200      	movs	r2, #0
 8005ade:	42bb      	cmp	r3, r7
 8005ae0:	d31f      	bcc.n	8005b22 <__multiply+0x92>
 8005ae2:	f104 0c14 	add.w	ip, r4, #20
 8005ae6:	f108 0114 	add.w	r1, r8, #20
 8005aea:	eb0c 038a 	add.w	r3, ip, sl, lsl #2
 8005aee:	eb01 0289 	add.w	r2, r1, r9, lsl #2
 8005af2:	9202      	str	r2, [sp, #8]
 8005af4:	1b1a      	subs	r2, r3, r4
 8005af6:	3a15      	subs	r2, #21
 8005af8:	f022 0203 	bic.w	r2, r2, #3
 8005afc:	3415      	adds	r4, #21
 8005afe:	429c      	cmp	r4, r3
 8005b00:	bf88      	it	hi
 8005b02:	2200      	movhi	r2, #0
 8005b04:	9201      	str	r2, [sp, #4]
 8005b06:	9a02      	ldr	r2, [sp, #8]
 8005b08:	9103      	str	r1, [sp, #12]
 8005b0a:	428a      	cmp	r2, r1
 8005b0c:	d80c      	bhi.n	8005b28 <__multiply+0x98>
 8005b0e:	2e00      	cmp	r6, #0
 8005b10:	dd03      	ble.n	8005b1a <__multiply+0x8a>
 8005b12:	f857 3d04 	ldr.w	r3, [r7, #-4]!
 8005b16:	2b00      	cmp	r3, #0
 8005b18:	d05d      	beq.n	8005bd6 <__multiply+0x146>
 8005b1a:	6106      	str	r6, [r0, #16]
 8005b1c:	b005      	add	sp, #20
 8005b1e:	e8bd 8ff0 	ldmia.w	sp!, {r4, r5, r6, r7, r8, r9, sl, fp, pc}
 8005b22:	f843 2b04 	str.w	r2, [r3], #4
 8005b26:	e7da      	b.n	8005ade <__multiply+0x4e>
 8005b28:	f8b1 a000 	ldrh.w	sl, [r1]
 8005b2c:	f1ba 0f00 	cmp.w	sl, #0
 8005b30:	d024      	beq.n	8005b7c <__multiply+0xec>
 8005b32:	46e0      	mov	r8, ip
 8005b34:	46a9      	mov	r9, r5
 8005b36:	f04f 0e00 	mov.w	lr, #0
 8005b3a:	f858 2b04 	ldr.w	r2, [r8], #4
 8005b3e:	f8d9 4000 	ldr.w	r4, [r9]
 8005b42:	fa1f fb82 	uxth.w	fp, r2
 8005b46:	b2a4      	uxth	r4, r4
 8005b48:	fb0a 440b 	mla	r4, sl, fp, r4
 8005b4c:	ea4f 4b12 	mov.w	fp, r2, lsr #16
 8005b50:	f8d9 2000 	ldr.w	r2, [r9]
 8005b54:	4474      	add	r4, lr
 8005b56:	ea4f 4e12 	mov.w	lr, r2, lsr #16
 8005b5a:	fb0a e20b 	mla	r2, sl, fp, lr
 8005b5e:	eb02 4214 	add.w	r2, r2, r4, lsr #16
 8005b62:	b2a4      	uxth	r4, r4
 8005b64:	ea44 4402 	orr.w	r4, r4, r2, lsl #16
 8005b68:	4543      	cmp	r3, r8
 8005b6a:	f849 4b04 	str.w	r4, [r9], #4
 8005b6e:	ea4f 4e12 	mov.w	lr, r2, lsr #16
 8005b72:	d8e2      	bhi.n	8005b3a <__multiply+0xaa>
 8005b74:	9a01      	ldr	r2, [sp, #4]
 8005b76:	18aa      	adds	r2, r5, r2
 8005b78:	f8c2 e004 	str.w	lr, [r2, #4]
 8005b7c:	9a03      	ldr	r2, [sp, #12]
 8005b7e:	f8b2 8002 	ldrh.w	r8, [r2, #2]
 8005b82:	3104      	adds	r1, #4
 8005b84:	f1b8 0f00 	cmp.w	r8, #0
 8005b88:	d023      	beq.n	8005bd2 <__multiply+0x142>
 8005b8a:	682a      	ldr	r2, [r5, #0]
 8005b8c:	46e6      	mov	lr, ip
 8005b8e:	4691      	mov	r9, r2
 8005b90:	46aa      	mov	sl, r5
 8005b92:	f04f 0b00 	mov.w	fp, #0
 8005b96:	f8be 4000 	ldrh.w	r4, [lr]
 8005b9a:	fb08 b404 	mla	r4, r8, r4, fp
 8005b9e:	eb04 4419 	add.w	r4, r4, r9, lsr #16
 8005ba2:	b292      	uxth	r2, r2
 8005ba4:	ea42 4204 	orr.w	r2, r2, r4, lsl #16
 8005ba8:	f84a 2b04 	str.w	r2, [sl], #4
 8005bac:	f85e 2b04 	ldr.w	r2, [lr], #4
 8005bb0:	f8da 9000 	ldr.w	r9, [sl]
 8005bb4:	ea4f 4b12 	mov.w	fp, r2, lsr #16
 8005bb8:	fa1f f289 	uxth.w	r2, r9
 8005bbc:	fb08 220b 	mla	r2, r8, fp, r2
 8005bc0:	eb02 4214 	add.w	r2, r2, r4, lsr #16
 8005bc4:	4573      	cmp	r3, lr
 8005bc6:	ea4f 4b12 	mov.w	fp, r2, lsr #16
 8005bca:	d8e4      	bhi.n	8005b96 <__multiply+0x106>
 8005bcc:	9c01      	ldr	r4, [sp, #4]
 8005bce:	192c      	adds	r4, r5, r4
 8005bd0:	6062      	str	r2, [r4, #4]
 8005bd2:	3504      	adds	r5, #4
 8005bd4:	e797      	b.n	8005b06 <__multiply+0x76>
 8005bd6:	3e01      	subs	r6, #1
 8005bd8:	e799      	b.n	8005b0e <__multiply+0x7e>
 8005bda:	bf00      	nop
 8005bdc:	0800711a 	.word	0x0800711a
 8005be0:	0800712b 	.word	0x0800712b

08005be4 <__pow5mult>:
 8005be4:	e92d 43f8 	stmdb	sp!, {r3, r4, r5, r6, r7, r8, r9, lr}
 8005be8:	4617      	mov	r7, r2
 8005bea:	f012 0203 	ands.w	r2, r2, #3
 8005bee:	4680      	mov	r8, r0
 8005bf0:	460d      	mov	r5, r1
 8005bf2:	d007      	beq.n	8005c04 <__pow5mult+0x20>
 8005bf4:	4c26      	ldr	r4, [pc, #152]	@ (8005c90 <__pow5mult+0xac>)
 8005bf6:	3a01      	subs	r2, #1
 8005bf8:	2300      	movs	r3, #0
 8005bfa:	f854 2022 	ldr.w	r2, [r4, r2, lsl #2]
 8005bfe:	f7ff fe9f 	bl	8005940 <__multadd>
 8005c02:	4605      	mov	r5, r0
 8005c04:	10bf      	asrs	r7, r7, #2
 8005c06:	d03f      	beq.n	8005c88 <__pow5mult+0xa4>
 8005c08:	f8d8 401c 	ldr.w	r4, [r8, #28]
 8005c0c:	b994      	cbnz	r4, 8005c34 <__pow5mult+0x50>
 8005c0e:	2010      	movs	r0, #16
 8005c10:	f7ff fd80 	bl	8005714 <malloc>
 8005c14:	4604      	mov	r4, r0
 8005c16:	f8c8 001c 	str.w	r0, [r8, #28]
 8005c1a:	b930      	cbnz	r0, 8005c2a <__pow5mult+0x46>
 8005c1c:	4602      	mov	r2, r0
 8005c1e:	4b1d      	ldr	r3, [pc, #116]	@ (8005c94 <__pow5mult+0xb0>)
 8005c20:	481d      	ldr	r0, [pc, #116]	@ (8005c98 <__pow5mult+0xb4>)
 8005c22:	f240 11b3 	movw	r1, #435	@ 0x1b3
 8005c26:	f000 fbf1 	bl	800640c <__assert_func>
 8005c2a:	2300      	movs	r3, #0
 8005c2c:	e9c0 3301 	strd	r3, r3, [r0, #4]
 8005c30:	6003      	str	r3, [r0, #0]
 8005c32:	60c3      	str	r3, [r0, #12]
 8005c34:	68a6      	ldr	r6, [r4, #8]
 8005c36:	b946      	cbnz	r6, 8005c4a <__pow5mult+0x66>
 8005c38:	f240 2171 	movw	r1, #625	@ 0x271
 8005c3c:	4640      	mov	r0, r8
 8005c3e:	f7ff ff11 	bl	8005a64 <__i2b>
 8005c42:	2300      	movs	r3, #0
 8005c44:	60a0      	str	r0, [r4, #8]
 8005c46:	4606      	mov	r6, r0
 8005c48:	6003      	str	r3, [r0, #0]
 8005c4a:	462c      	mov	r4, r5
 8005c4c:	f04f 0900 	mov.w	r9, #0
 8005c50:	f007 0301 	and.w	r3, r7, #1
 8005c54:	107f      	asrs	r7, r7, #1
 8005c56:	b153      	cbz	r3, 8005c6e <__pow5mult+0x8a>
 8005c58:	4629      	mov	r1, r5
 8005c5a:	4632      	mov	r2, r6
 8005c5c:	4640      	mov	r0, r8
 8005c5e:	f7ff ff17 	bl	8005a90 <__multiply>
 8005c62:	4621      	mov	r1, r4
 8005c64:	4605      	mov	r5, r0
 8005c66:	4640      	mov	r0, r8
 8005c68:	f7ff fe48 	bl	80058fc <_Bfree>
 8005c6c:	b167      	cbz	r7, 8005c88 <__pow5mult+0xa4>
 8005c6e:	6830      	ldr	r0, [r6, #0]
 8005c70:	b938      	cbnz	r0, 8005c82 <__pow5mult+0x9e>
 8005c72:	4632      	mov	r2, r6
 8005c74:	4631      	mov	r1, r6
 8005c76:	4640      	mov	r0, r8
 8005c78:	f7ff ff0a 	bl	8005a90 <__multiply>
 8005c7c:	6030      	str	r0, [r6, #0]
 8005c7e:	f8c0 9000 	str.w	r9, [r0]
 8005c82:	4606      	mov	r6, r0
 8005c84:	462c      	mov	r4, r5
 8005c86:	e7e3      	b.n	8005c50 <__pow5mult+0x6c>
 8005c88:	4628      	mov	r0, r5
 8005c8a:	e8bd 83f8 	ldmia.w	sp!, {r3, r4, r5, r6, r7, r8, r9, pc}
 8005c8e:	bf00      	nop
 8005c90:	080071c8 	.word	0x080071c8
 8005c94:	080070c1 	.word	0x080070c1
 8005c98:	0800712b 	.word	0x0800712b

08005c9c <__lshift>:
 8005c9c:	e92d 4ff8 	stmdb	sp!, {r3, r4, r5, r6, r7, r8, r9, sl, fp, lr}
 8005ca0:	460c      	mov	r4, r1
 8005ca2:	6849      	ldr	r1, [r1, #4]
 8005ca4:	6923      	ldr	r3, [r4, #16]
 8005ca6:	eb03 1862 	add.w	r8, r3, r2, asr #5
 8005caa:	68a3      	ldr	r3, [r4, #8]
 8005cac:	4607      	mov	r7, r0
 8005cae:	4615      	mov	r5, r2
 8005cb0:	ea4f 1a62 	mov.w	sl, r2, asr #5
 8005cb4:	f108 0901 	add.w	r9, r8, #1
 8005cb8:	454b      	cmp	r3, r9
 8005cba:	db0b      	blt.n	8005cd4 <__lshift+0x38>
 8005cbc:	4638      	mov	r0, r7
 8005cbe:	f7ff fddf 	bl	8005880 <_Balloc>
 8005cc2:	4606      	mov	r6, r0
 8005cc4:	b948      	cbnz	r0, 8005cda <__lshift+0x3e>
 8005cc6:	4602      	mov	r2, r0
 8005cc8:	4b29      	ldr	r3, [pc, #164]	@ (8005d70 <__lshift+0xd4>)
 8005cca:	482a      	ldr	r0, [pc, #168]	@ (8005d74 <__lshift+0xd8>)
 8005ccc:	f44f 71ef 	mov.w	r1, #478	@ 0x1de
 8005cd0:	f000 fb9c 	bl	800640c <__assert_func>
 8005cd4:	3101      	adds	r1, #1
 8005cd6:	005b      	lsls	r3, r3, #1
 8005cd8:	e7ee      	b.n	8005cb8 <__lshift+0x1c>
 8005cda:	2300      	movs	r3, #0
 8005cdc:	f100 0c14 	add.w	ip, r0, #20
 8005ce0:	f100 0210 	add.w	r2, r0, #16
 8005ce4:	4619      	mov	r1, r3
 8005ce6:	4553      	cmp	r3, sl
 8005ce8:	db35      	blt.n	8005d56 <__lshift+0xba>
 8005cea:	6922      	ldr	r2, [r4, #16]
 8005cec:	ea2a 7aea 	bic.w	sl, sl, sl, asr #31
 8005cf0:	eb0c 0c8a 	add.w	ip, ip, sl, lsl #2
 8005cf4:	f104 0314 	add.w	r3, r4, #20
 8005cf8:	f015 0e1f 	ands.w	lr, r5, #31
 8005cfc:	4661      	mov	r1, ip
 8005cfe:	eb03 0282 	add.w	r2, r3, r2, lsl #2
 8005d02:	d02c      	beq.n	8005d5e <__lshift+0xc2>
 8005d04:	f1ce 0a20 	rsb	sl, lr, #32
 8005d08:	2500      	movs	r5, #0
 8005d0a:	6818      	ldr	r0, [r3, #0]
 8005d0c:	468b      	mov	fp, r1
 8005d0e:	fa00 f00e 	lsl.w	r0, r0, lr
 8005d12:	4328      	orrs	r0, r5
 8005d14:	f8cb 0000 	str.w	r0, [fp]
 8005d18:	f853 5b04 	ldr.w	r5, [r3], #4
 8005d1c:	429a      	cmp	r2, r3
 8005d1e:	f101 0104 	add.w	r1, r1, #4
 8005d22:	fa25 f50a 	lsr.w	r5, r5, sl
 8005d26:	d8f0      	bhi.n	8005d0a <__lshift+0x6e>
 8005d28:	1b13      	subs	r3, r2, r4
 8005d2a:	3b15      	subs	r3, #21
 8005d2c:	f023 0303 	bic.w	r3, r3, #3
 8005d30:	f104 0115 	add.w	r1, r4, #21
 8005d34:	428a      	cmp	r2, r1
 8005d36:	bf38      	it	cc
 8005d38:	2300      	movcc	r3, #0
 8005d3a:	449c      	add	ip, r3
 8005d3c:	f8cc 5004 	str.w	r5, [ip, #4]
 8005d40:	b905      	cbnz	r5, 8005d44 <__lshift+0xa8>
 8005d42:	46c1      	mov	r9, r8
 8005d44:	4638      	mov	r0, r7
 8005d46:	f8c6 9010 	str.w	r9, [r6, #16]
 8005d4a:	4621      	mov	r1, r4
 8005d4c:	f7ff fdd6 	bl	80058fc <_Bfree>
 8005d50:	4630      	mov	r0, r6
 8005d52:	e8bd 8ff8 	ldmia.w	sp!, {r3, r4, r5, r6, r7, r8, r9, sl, fp, pc}
 8005d56:	f842 1f04 	str.w	r1, [r2, #4]!
 8005d5a:	3301      	adds	r3, #1
 8005d5c:	e7c3      	b.n	8005ce6 <__lshift+0x4a>
 8005d5e:	f853 5b04 	ldr.w	r5, [r3], #4
 8005d62:	600d      	str	r5, [r1, #0]
 8005d64:	429a      	cmp	r2, r3
 8005d66:	f101 0104 	add.w	r1, r1, #4
 8005d6a:	d8f8      	bhi.n	8005d5e <__lshift+0xc2>
 8005d6c:	e7e9      	b.n	8005d42 <__lshift+0xa6>
 8005d6e:	bf00      	nop
 8005d70:	0800711a 	.word	0x0800711a
 8005d74:	0800712b 	.word	0x0800712b

08005d78 <__mcmp>:
 8005d78:	690a      	ldr	r2, [r1, #16]
 8005d7a:	4603      	mov	r3, r0
 8005d7c:	6900      	ldr	r0, [r0, #16]
 8005d7e:	1a80      	subs	r0, r0, r2
 8005d80:	b530      	push	{r4, r5, lr}
 8005d82:	d10e      	bne.n	8005da2 <__mcmp+0x2a>
 8005d84:	3314      	adds	r3, #20
 8005d86:	3114      	adds	r1, #20
 8005d88:	eb03 0482 	add.w	r4, r3, r2, lsl #2
 8005d8c:	eb01 0182 	add.w	r1, r1, r2, lsl #2
 8005d90:	f854 5d04 	ldr.w	r5, [r4, #-4]!
 8005d94:	f851 2d04 	ldr.w	r2, [r1, #-4]!
 8005d98:	4295      	cmp	r5, r2
 8005d9a:	d003      	beq.n	8005da4 <__mcmp+0x2c>
 8005d9c:	d205      	bcs.n	8005daa <__mcmp+0x32>
 8005d9e:	f04f 30ff 	mov.w	r0, #4294967295	@ 0xffffffff
 8005da2:	bd30      	pop	{r4, r5, pc}
 8005da4:	42a3      	cmp	r3, r4
 8005da6:	d3f3      	bcc.n	8005d90 <__mcmp+0x18>
 8005da8:	e7fb      	b.n	8005da2 <__mcmp+0x2a>
 8005daa:	2001      	movs	r0, #1
 8005dac:	e7f9      	b.n	8005da2 <__mcmp+0x2a>
	...

08005db0 <__mdiff>:
 8005db0:	e92d 4ff7 	stmdb	sp!, {r0, r1, r2, r4, r5, r6, r7, r8, r9, sl, fp, lr}
 8005db4:	468a      	mov	sl, r1
 8005db6:	4606      	mov	r6, r0
 8005db8:	4611      	mov	r1, r2
 8005dba:	4650      	mov	r0, sl
 8005dbc:	4614      	mov	r4, r2
 8005dbe:	f7ff ffdb 	bl	8005d78 <__mcmp>
 8005dc2:	1e05      	subs	r5, r0, #0
 8005dc4:	d112      	bne.n	8005dec <__mdiff+0x3c>
 8005dc6:	4629      	mov	r1, r5
 8005dc8:	4630      	mov	r0, r6
 8005dca:	f7ff fd59 	bl	8005880 <_Balloc>
 8005dce:	4602      	mov	r2, r0
 8005dd0:	b928      	cbnz	r0, 8005dde <__mdiff+0x2e>
 8005dd2:	4b41      	ldr	r3, [pc, #260]	@ (8005ed8 <__mdiff+0x128>)
 8005dd4:	f240 2137 	movw	r1, #567	@ 0x237
 8005dd8:	4840      	ldr	r0, [pc, #256]	@ (8005edc <__mdiff+0x12c>)
 8005dda:	f000 fb17 	bl	800640c <__assert_func>
 8005dde:	2301      	movs	r3, #1
 8005de0:	e9c0 3504 	strd	r3, r5, [r0, #16]
 8005de4:	4610      	mov	r0, r2
 8005de6:	b003      	add	sp, #12
 8005de8:	e8bd 8ff0 	ldmia.w	sp!, {r4, r5, r6, r7, r8, r9, sl, fp, pc}
 8005dec:	bfbc      	itt	lt
 8005dee:	4653      	movlt	r3, sl
 8005df0:	46a2      	movlt	sl, r4
 8005df2:	4630      	mov	r0, r6
 8005df4:	f8da 1004 	ldr.w	r1, [sl, #4]
 8005df8:	bfba      	itte	lt
 8005dfa:	461c      	movlt	r4, r3
 8005dfc:	2501      	movlt	r5, #1
 8005dfe:	2500      	movge	r5, #0
 8005e00:	f7ff fd3e 	bl	8005880 <_Balloc>
 8005e04:	4602      	mov	r2, r0
 8005e06:	b918      	cbnz	r0, 8005e10 <__mdiff+0x60>
 8005e08:	4b33      	ldr	r3, [pc, #204]	@ (8005ed8 <__mdiff+0x128>)
 8005e0a:	f240 2145 	movw	r1, #581	@ 0x245
 8005e0e:	e7e3      	b.n	8005dd8 <__mdiff+0x28>
 8005e10:	f8da 7010 	ldr.w	r7, [sl, #16]
 8005e14:	6926      	ldr	r6, [r4, #16]
 8005e16:	60c5      	str	r5, [r0, #12]
 8005e18:	f10a 0914 	add.w	r9, sl, #20
 8005e1c:	f104 0e14 	add.w	lr, r4, #20
 8005e20:	f100 0514 	add.w	r5, r0, #20
 8005e24:	f10a 0310 	add.w	r3, sl, #16
 8005e28:	eb09 0887 	add.w	r8, r9, r7, lsl #2
 8005e2c:	eb0e 0686 	add.w	r6, lr, r6, lsl #2
 8005e30:	9301      	str	r3, [sp, #4]
 8005e32:	46ab      	mov	fp, r5
 8005e34:	f04f 0c00 	mov.w	ip, #0
 8005e38:	9b01      	ldr	r3, [sp, #4]
 8005e3a:	f85e 0b04 	ldr.w	r0, [lr], #4
 8005e3e:	f853 af04 	ldr.w	sl, [r3, #4]!
 8005e42:	9301      	str	r3, [sp, #4]
 8005e44:	fa1f f38a 	uxth.w	r3, sl
 8005e48:	4619      	mov	r1, r3
 8005e4a:	b283      	uxth	r3, r0
 8005e4c:	1acb      	subs	r3, r1, r3
 8005e4e:	0c00      	lsrs	r0, r0, #16
 8005e50:	4463      	add	r3, ip
 8005e52:	ebc0 401a 	rsb	r0, r0, sl, lsr #16
 8005e56:	eb00 4023 	add.w	r0, r0, r3, asr #16
 8005e5a:	b29b      	uxth	r3, r3
 8005e5c:	ea43 4300 	orr.w	r3, r3, r0, lsl #16
 8005e60:	4576      	cmp	r6, lr
 8005e62:	f84b 3b04 	str.w	r3, [fp], #4
 8005e66:	ea4f 4c20 	mov.w	ip, r0, asr #16
 8005e6a:	d8e5      	bhi.n	8005e38 <__mdiff+0x88>
 8005e6c:	1b33      	subs	r3, r6, r4
 8005e6e:	3b15      	subs	r3, #21
 8005e70:	3415      	adds	r4, #21
 8005e72:	f023 0303 	bic.w	r3, r3, #3
 8005e76:	42a6      	cmp	r6, r4
 8005e78:	bf38      	it	cc
 8005e7a:	2300      	movcc	r3, #0
 8005e7c:	18e8      	adds	r0, r5, r3
 8005e7e:	444b      	add	r3, r9
 8005e80:	1d1c      	adds	r4, r3, #4
 8005e82:	3004      	adds	r0, #4
 8005e84:	4626      	mov	r6, r4
 8005e86:	eba5 0509 	sub.w	r5, r5, r9
 8005e8a:	4546      	cmp	r6, r8
 8005e8c:	eb06 0e05 	add.w	lr, r6, r5
 8005e90:	d30e      	bcc.n	8005eb0 <__mdiff+0x100>
 8005e92:	f108 0103 	add.w	r1, r8, #3
 8005e96:	1b09      	subs	r1, r1, r4
 8005e98:	f021 0103 	bic.w	r1, r1, #3
 8005e9c:	3301      	adds	r3, #1
 8005e9e:	4598      	cmp	r8, r3
 8005ea0:	bf38      	it	cc
 8005ea2:	2100      	movcc	r1, #0
 8005ea4:	4401      	add	r1, r0
 8005ea6:	f851 3d04 	ldr.w	r3, [r1, #-4]!
 8005eaa:	b19b      	cbz	r3, 8005ed4 <__mdiff+0x124>
 8005eac:	6117      	str	r7, [r2, #16]
 8005eae:	e799      	b.n	8005de4 <__mdiff+0x34>
 8005eb0:	f856 1b04 	ldr.w	r1, [r6], #4
 8005eb4:	46e2      	mov	sl, ip
 8005eb6:	ea4f 4911 	mov.w	r9, r1, lsr #16
 8005eba:	fa1c fc81 	uxtah	ip, ip, r1
 8005ebe:	4451      	add	r1, sl
 8005ec0:	eb09 492c 	add.w	r9, r9, ip, asr #16
 8005ec4:	b289      	uxth	r1, r1
 8005ec6:	ea41 4109 	orr.w	r1, r1, r9, lsl #16
 8005eca:	ea4f 4c29 	mov.w	ip, r9, asr #16
 8005ece:	f8ce 1000 	str.w	r1, [lr]
 8005ed2:	e7da      	b.n	8005e8a <__mdiff+0xda>
 8005ed4:	3f01      	subs	r7, #1
 8005ed6:	e7e6      	b.n	8005ea6 <__mdiff+0xf6>
 8005ed8:	0800711a 	.word	0x0800711a
 8005edc:	0800712b 	.word	0x0800712b

08005ee0 <__d2b>:
 8005ee0:	e92d 43f7 	stmdb	sp!, {r0, r1, r2, r4, r5, r6, r7, r8, r9, lr}
 8005ee4:	460f      	mov	r7, r1
 8005ee6:	2101      	movs	r1, #1
 8005ee8:	ec59 8b10 	vmov	r8, r9, d0
 8005eec:	4616      	mov	r6, r2
 8005eee:	f7ff fcc7 	bl	8005880 <_Balloc>
 8005ef2:	4604      	mov	r4, r0
 8005ef4:	b930      	cbnz	r0, 8005f04 <__d2b+0x24>
 8005ef6:	4602      	mov	r2, r0
 8005ef8:	4b23      	ldr	r3, [pc, #140]	@ (8005f88 <__d2b+0xa8>)
 8005efa:	4824      	ldr	r0, [pc, #144]	@ (8005f8c <__d2b+0xac>)
 8005efc:	f240 310f 	movw	r1, #783	@ 0x30f
 8005f00:	f000 fa84 	bl	800640c <__assert_func>
 8005f04:	f3c9 550a 	ubfx	r5, r9, #20, #11
 8005f08:	f3c9 0313 	ubfx	r3, r9, #0, #20
 8005f0c:	b10d      	cbz	r5, 8005f12 <__d2b+0x32>
 8005f0e:	f443 1380 	orr.w	r3, r3, #1048576	@ 0x100000
 8005f12:	9301      	str	r3, [sp, #4]
 8005f14:	f1b8 0300 	subs.w	r3, r8, #0
 8005f18:	d023      	beq.n	8005f62 <__d2b+0x82>
 8005f1a:	4668      	mov	r0, sp
 8005f1c:	9300      	str	r3, [sp, #0]
 8005f1e:	f7ff fd74 	bl	8005a0a <__lo0bits>
 8005f22:	9900      	ldr	r1, [sp, #0]
 8005f24:	b1d8      	cbz	r0, 8005f5e <__d2b+0x7e>
 8005f26:	9a01      	ldr	r2, [sp, #4]
 8005f28:	f1c0 0320 	rsb	r3, r0, #32
 8005f2c:	fa02 f303 	lsl.w	r3, r2, r3
 8005f30:	430b      	orrs	r3, r1
 8005f32:	40c2      	lsrs	r2, r0
 8005f34:	6163      	str	r3, [r4, #20]
 8005f36:	9201      	str	r2, [sp, #4]
 8005f38:	9b01      	ldr	r3, [sp, #4]
 8005f3a:	61a3      	str	r3, [r4, #24]
 8005f3c:	2b00      	cmp	r3, #0
 8005f3e:	bf0c      	ite	eq
 8005f40:	2201      	moveq	r2, #1
 8005f42:	2202      	movne	r2, #2
 8005f44:	6122      	str	r2, [r4, #16]
 8005f46:	b1a5      	cbz	r5, 8005f72 <__d2b+0x92>
 8005f48:	f2a5 4533 	subw	r5, r5, #1075	@ 0x433
 8005f4c:	4405      	add	r5, r0
 8005f4e:	603d      	str	r5, [r7, #0]
 8005f50:	f1c0 0035 	rsb	r0, r0, #53	@ 0x35
 8005f54:	6030      	str	r0, [r6, #0]
 8005f56:	4620      	mov	r0, r4
 8005f58:	b003      	add	sp, #12
 8005f5a:	e8bd 83f0 	ldmia.w	sp!, {r4, r5, r6, r7, r8, r9, pc}
 8005f5e:	6161      	str	r1, [r4, #20]
 8005f60:	e7ea      	b.n	8005f38 <__d2b+0x58>
 8005f62:	a801      	add	r0, sp, #4
 8005f64:	f7ff fd51 	bl	8005a0a <__lo0bits>
 8005f68:	9b01      	ldr	r3, [sp, #4]
 8005f6a:	6163      	str	r3, [r4, #20]
 8005f6c:	3020      	adds	r0, #32
 8005f6e:	2201      	movs	r2, #1
 8005f70:	e7e8      	b.n	8005f44 <__d2b+0x64>
 8005f72:	eb04 0382 	add.w	r3, r4, r2, lsl #2
 8005f76:	f2a0 4032 	subw	r0, r0, #1074	@ 0x432
 8005f7a:	6038      	str	r0, [r7, #0]
 8005f7c:	6918      	ldr	r0, [r3, #16]
 8005f7e:	f7ff fd25 	bl	80059cc <__hi0bits>
 8005f82:	ebc0 1042 	rsb	r0, r0, r2, lsl #5
 8005f86:	e7e5      	b.n	8005f54 <__d2b+0x74>
 8005f88:	0800711a 	.word	0x0800711a
 8005f8c:	0800712b 	.word	0x0800712b

08005f90 <__ssputs_r>:
 8005f90:	e92d 47f0 	stmdb	sp!, {r4, r5, r6, r7, r8, r9, sl, lr}
 8005f94:	688e      	ldr	r6, [r1, #8]
 8005f96:	461f      	mov	r7, r3
 8005f98:	42be      	cmp	r6, r7
 8005f9a:	4682      	mov	sl, r0
 8005f9c:	460c      	mov	r4, r1
 8005f9e:	4690      	mov	r8, r2
 8005fa0:	4633      	mov	r3, r6
 8005fa2:	d853      	bhi.n	800604c <__ssputs_r+0xbc>
 8005fa4:	f9b1 000c 	ldrsh.w	r0, [r1, #12]
 8005fa8:	f410 6f90 	tst.w	r0, #1152	@ 0x480
 8005fac:	d02b      	beq.n	8006006 <__ssputs_r+0x76>
 8005fae:	6965      	ldr	r5, [r4, #20]
 8005fb0:	6823      	ldr	r3, [r4, #0]
 8005fb2:	6909      	ldr	r1, [r1, #16]
 8005fb4:	eb05 0545 	add.w	r5, r5, r5, lsl #1
 8005fb8:	eba3 0901 	sub.w	r9, r3, r1
 8005fbc:	eb05 75d5 	add.w	r5, r5, r5, lsr #31
 8005fc0:	1c7b      	adds	r3, r7, #1
 8005fc2:	106d      	asrs	r5, r5, #1
 8005fc4:	444b      	add	r3, r9
 8005fc6:	42ab      	cmp	r3, r5
 8005fc8:	462a      	mov	r2, r5
 8005fca:	bf84      	itt	hi
 8005fcc:	461d      	movhi	r5, r3
 8005fce:	462a      	movhi	r2, r5
 8005fd0:	0543      	lsls	r3, r0, #21
 8005fd2:	d527      	bpl.n	8006024 <__ssputs_r+0x94>
 8005fd4:	4611      	mov	r1, r2
 8005fd6:	4650      	mov	r0, sl
 8005fd8:	f7ff fbc6 	bl	8005768 <_malloc_r>
 8005fdc:	4606      	mov	r6, r0
 8005fde:	b358      	cbz	r0, 8006038 <__ssputs_r+0xa8>
 8005fe0:	6921      	ldr	r1, [r4, #16]
 8005fe2:	464a      	mov	r2, r9
 8005fe4:	f000 fa04 	bl	80063f0 <memcpy>
 8005fe8:	89a3      	ldrh	r3, [r4, #12]
 8005fea:	f423 6390 	bic.w	r3, r3, #1152	@ 0x480
 8005fee:	f043 0380 	orr.w	r3, r3, #128	@ 0x80
 8005ff2:	81a3      	strh	r3, [r4, #12]
 8005ff4:	6126      	str	r6, [r4, #16]
 8005ff6:	6165      	str	r5, [r4, #20]
 8005ff8:	444e      	add	r6, r9
 8005ffa:	eba5 0509 	sub.w	r5, r5, r9
 8005ffe:	6026      	str	r6, [r4, #0]
 8006000:	60a5      	str	r5, [r4, #8]
 8006002:	463e      	mov	r6, r7
 8006004:	463b      	mov	r3, r7
 8006006:	461f      	mov	r7, r3
 8006008:	6820      	ldr	r0, [r4, #0]
 800600a:	463a      	mov	r2, r7
 800600c:	4641      	mov	r1, r8
 800600e:	f000 f9c5 	bl	800639c <memmove>
 8006012:	68a3      	ldr	r3, [r4, #8]
 8006014:	1b9b      	subs	r3, r3, r6
 8006016:	60a3      	str	r3, [r4, #8]
 8006018:	6823      	ldr	r3, [r4, #0]
 800601a:	443b      	add	r3, r7
 800601c:	6023      	str	r3, [r4, #0]
 800601e:	2000      	movs	r0, #0
 8006020:	e8bd 87f0 	ldmia.w	sp!, {r4, r5, r6, r7, r8, r9, sl, pc}
 8006024:	4650      	mov	r0, sl
 8006026:	f000 fa35 	bl	8006494 <_realloc_r>
 800602a:	4606      	mov	r6, r0
 800602c:	2800      	cmp	r0, #0
 800602e:	d1e1      	bne.n	8005ff4 <__ssputs_r+0x64>
 8006030:	6921      	ldr	r1, [r4, #16]
 8006032:	4650      	mov	r0, sl
 8006034:	f7ff fb24 	bl	8005680 <_free_r>
 8006038:	230c      	movs	r3, #12
 800603a:	f8ca 3000 	str.w	r3, [sl]
 800603e:	89a3      	ldrh	r3, [r4, #12]
 8006040:	f043 0340 	orr.w	r3, r3, #64	@ 0x40
 8006044:	81a3      	strh	r3, [r4, #12]
 8006046:	f04f 30ff 	mov.w	r0, #4294967295	@ 0xffffffff
 800604a:	e7e9      	b.n	8006020 <__ssputs_r+0x90>
 800604c:	463e      	mov	r6, r7
 800604e:	e7db      	b.n	8006008 <__ssputs_r+0x78>

08006050 <_svfiprintf_r>:
 8006050:	e92d 4ff0 	stmdb	sp!, {r4, r5, r6, r7, r8, r9, sl, fp, lr}
 8006054:	4698      	mov	r8, r3
 8006056:	898b      	ldrh	r3, [r1, #12]
 8006058:	061b      	lsls	r3, r3, #24
 800605a:	b09d      	sub	sp, #116	@ 0x74
 800605c:	4607      	mov	r7, r0
 800605e:	460d      	mov	r5, r1
 8006060:	4614      	mov	r4, r2
 8006062:	d510      	bpl.n	8006086 <_svfiprintf_r+0x36>
 8006064:	690b      	ldr	r3, [r1, #16]
 8006066:	b973      	cbnz	r3, 8006086 <_svfiprintf_r+0x36>
 8006068:	2140      	movs	r1, #64	@ 0x40
 800606a:	f7ff fb7d 	bl	8005768 <_malloc_r>
 800606e:	6028      	str	r0, [r5, #0]
 8006070:	6128      	str	r0, [r5, #16]
 8006072:	b930      	cbnz	r0, 8006082 <_svfiprintf_r+0x32>
 8006074:	230c      	movs	r3, #12
 8006076:	603b      	str	r3, [r7, #0]
 8006078:	f04f 30ff 	mov.w	r0, #4294967295	@ 0xffffffff
 800607c:	b01d      	add	sp, #116	@ 0x74
 800607e:	e8bd 8ff0 	ldmia.w	sp!, {r4, r5, r6, r7, r8, r9, sl, fp, pc}
 8006082:	2340      	movs	r3, #64	@ 0x40
 8006084:	616b      	str	r3, [r5, #20]
 8006086:	2300      	movs	r3, #0
 8006088:	9309      	str	r3, [sp, #36]	@ 0x24
 800608a:	2320      	movs	r3, #32
 800608c:	f88d 3029 	strb.w	r3, [sp, #41]	@ 0x29
 8006090:	f8cd 800c 	str.w	r8, [sp, #12]
 8006094:	2330      	movs	r3, #48	@ 0x30
 8006096:	f8df 819c 	ldr.w	r8, [pc, #412]	@ 8006234 <_svfiprintf_r+0x1e4>
 800609a:	f88d 302a 	strb.w	r3, [sp, #42]	@ 0x2a
 800609e:	f04f 0901 	mov.w	r9, #1
 80060a2:	4623      	mov	r3, r4
 80060a4:	469a      	mov	sl, r3
 80060a6:	f813 2b01 	ldrb.w	r2, [r3], #1
 80060aa:	b10a      	cbz	r2, 80060b0 <_svfiprintf_r+0x60>
 80060ac:	2a25      	cmp	r2, #37	@ 0x25
 80060ae:	d1f9      	bne.n	80060a4 <_svfiprintf_r+0x54>
 80060b0:	ebba 0b04 	subs.w	fp, sl, r4
 80060b4:	d00b      	beq.n	80060ce <_svfiprintf_r+0x7e>
 80060b6:	465b      	mov	r3, fp
 80060b8:	4622      	mov	r2, r4
 80060ba:	4629      	mov	r1, r5
 80060bc:	4638      	mov	r0, r7
 80060be:	f7ff ff67 	bl	8005f90 <__ssputs_r>
 80060c2:	3001      	adds	r0, #1
 80060c4:	f000 80a7 	beq.w	8006216 <_svfiprintf_r+0x1c6>
 80060c8:	9a09      	ldr	r2, [sp, #36]	@ 0x24
 80060ca:	445a      	add	r2, fp
 80060cc:	9209      	str	r2, [sp, #36]	@ 0x24
 80060ce:	f89a 3000 	ldrb.w	r3, [sl]
 80060d2:	2b00      	cmp	r3, #0
 80060d4:	f000 809f 	beq.w	8006216 <_svfiprintf_r+0x1c6>
 80060d8:	2300      	movs	r3, #0
 80060da:	f04f 32ff 	mov.w	r2, #4294967295	@ 0xffffffff
 80060de:	e9cd 2305 	strd	r2, r3, [sp, #20]
 80060e2:	f10a 0a01 	add.w	sl, sl, #1
 80060e6:	9304      	str	r3, [sp, #16]
 80060e8:	9307      	str	r3, [sp, #28]
 80060ea:	f88d 3053 	strb.w	r3, [sp, #83]	@ 0x53
 80060ee:	931a      	str	r3, [sp, #104]	@ 0x68
 80060f0:	4654      	mov	r4, sl
 80060f2:	2205      	movs	r2, #5
 80060f4:	f814 1b01 	ldrb.w	r1, [r4], #1
 80060f8:	484e      	ldr	r0, [pc, #312]	@ (8006234 <_svfiprintf_r+0x1e4>)
 80060fa:	f7fa f851 	bl	80001a0 <memchr>
 80060fe:	9a04      	ldr	r2, [sp, #16]
 8006100:	b9d8      	cbnz	r0, 800613a <_svfiprintf_r+0xea>
 8006102:	06d0      	lsls	r0, r2, #27
 8006104:	bf44      	itt	mi
 8006106:	2320      	movmi	r3, #32
 8006108:	f88d 3053 	strbmi.w	r3, [sp, #83]	@ 0x53
 800610c:	0711      	lsls	r1, r2, #28
 800610e:	bf44      	itt	mi
 8006110:	232b      	movmi	r3, #43	@ 0x2b
 8006112:	f88d 3053 	strbmi.w	r3, [sp, #83]	@ 0x53
 8006116:	f89a 3000 	ldrb.w	r3, [sl]
 800611a:	2b2a      	cmp	r3, #42	@ 0x2a
 800611c:	d015      	beq.n	800614a <_svfiprintf_r+0xfa>
 800611e:	9a07      	ldr	r2, [sp, #28]
 8006120:	4654      	mov	r4, sl
 8006122:	2000      	movs	r0, #0
 8006124:	f04f 0c0a 	mov.w	ip, #10
 8006128:	4621      	mov	r1, r4
 800612a:	f811 3b01 	ldrb.w	r3, [r1], #1
 800612e:	3b30      	subs	r3, #48	@ 0x30
 8006130:	2b09      	cmp	r3, #9
 8006132:	d94b      	bls.n	80061cc <_svfiprintf_r+0x17c>
 8006134:	b1b0      	cbz	r0, 8006164 <_svfiprintf_r+0x114>
 8006136:	9207      	str	r2, [sp, #28]
 8006138:	e014      	b.n	8006164 <_svfiprintf_r+0x114>
 800613a:	eba0 0308 	sub.w	r3, r0, r8
 800613e:	fa09 f303 	lsl.w	r3, r9, r3
 8006142:	4313      	orrs	r3, r2
 8006144:	9304      	str	r3, [sp, #16]
 8006146:	46a2      	mov	sl, r4
 8006148:	e7d2      	b.n	80060f0 <_svfiprintf_r+0xa0>
 800614a:	9b03      	ldr	r3, [sp, #12]
 800614c:	1d19      	adds	r1, r3, #4
 800614e:	681b      	ldr	r3, [r3, #0]
 8006150:	9103      	str	r1, [sp, #12]
 8006152:	2b00      	cmp	r3, #0
 8006154:	bfbb      	ittet	lt
 8006156:	425b      	neglt	r3, r3
 8006158:	f042 0202 	orrlt.w	r2, r2, #2
 800615c:	9307      	strge	r3, [sp, #28]
 800615e:	9307      	strlt	r3, [sp, #28]
 8006160:	bfb8      	it	lt
 8006162:	9204      	strlt	r2, [sp, #16]
 8006164:	7823      	ldrb	r3, [r4, #0]
 8006166:	2b2e      	cmp	r3, #46	@ 0x2e
 8006168:	d10a      	bne.n	8006180 <_svfiprintf_r+0x130>
 800616a:	7863      	ldrb	r3, [r4, #1]
 800616c:	2b2a      	cmp	r3, #42	@ 0x2a
 800616e:	d132      	bne.n	80061d6 <_svfiprintf_r+0x186>
 8006170:	9b03      	ldr	r3, [sp, #12]
 8006172:	1d1a      	adds	r2, r3, #4
 8006174:	681b      	ldr	r3, [r3, #0]
 8006176:	9203      	str	r2, [sp, #12]
 8006178:	ea43 73e3 	orr.w	r3, r3, r3, asr #31
 800617c:	3402      	adds	r4, #2
 800617e:	9305      	str	r3, [sp, #20]
 8006180:	f8df a0c0 	ldr.w	sl, [pc, #192]	@ 8006244 <_svfiprintf_r+0x1f4>
 8006184:	7821      	ldrb	r1, [r4, #0]
 8006186:	2203      	movs	r2, #3
 8006188:	4650      	mov	r0, sl
 800618a:	f7fa f809 	bl	80001a0 <memchr>
 800618e:	b138      	cbz	r0, 80061a0 <_svfiprintf_r+0x150>
 8006190:	9b04      	ldr	r3, [sp, #16]
 8006192:	eba0 000a 	sub.w	r0, r0, sl
 8006196:	2240      	movs	r2, #64	@ 0x40
 8006198:	4082      	lsls	r2, r0
 800619a:	4313      	orrs	r3, r2
 800619c:	3401      	adds	r4, #1
 800619e:	9304      	str	r3, [sp, #16]
 80061a0:	f814 1b01 	ldrb.w	r1, [r4], #1
 80061a4:	4824      	ldr	r0, [pc, #144]	@ (8006238 <_svfiprintf_r+0x1e8>)
 80061a6:	f88d 1028 	strb.w	r1, [sp, #40]	@ 0x28
 80061aa:	2206      	movs	r2, #6
 80061ac:	f7f9 fff8 	bl	80001a0 <memchr>
 80061b0:	2800      	cmp	r0, #0
 80061b2:	d036      	beq.n	8006222 <_svfiprintf_r+0x1d2>
 80061b4:	4b21      	ldr	r3, [pc, #132]	@ (800623c <_svfiprintf_r+0x1ec>)
 80061b6:	bb1b      	cbnz	r3, 8006200 <_svfiprintf_r+0x1b0>
 80061b8:	9b03      	ldr	r3, [sp, #12]
 80061ba:	3307      	adds	r3, #7
 80061bc:	f023 0307 	bic.w	r3, r3, #7
 80061c0:	3308      	adds	r3, #8
 80061c2:	9303      	str	r3, [sp, #12]
 80061c4:	9b09      	ldr	r3, [sp, #36]	@ 0x24
 80061c6:	4433      	add	r3, r6
 80061c8:	9309      	str	r3, [sp, #36]	@ 0x24
 80061ca:	e76a      	b.n	80060a2 <_svfiprintf_r+0x52>
 80061cc:	fb0c 3202 	mla	r2, ip, r2, r3
 80061d0:	460c      	mov	r4, r1
 80061d2:	2001      	movs	r0, #1
 80061d4:	e7a8      	b.n	8006128 <_svfiprintf_r+0xd8>
 80061d6:	2300      	movs	r3, #0
 80061d8:	3401      	adds	r4, #1
 80061da:	9305      	str	r3, [sp, #20]
 80061dc:	4619      	mov	r1, r3
 80061de:	f04f 0c0a 	mov.w	ip, #10
 80061e2:	4620      	mov	r0, r4
 80061e4:	f810 2b01 	ldrb.w	r2, [r0], #1
 80061e8:	3a30      	subs	r2, #48	@ 0x30
 80061ea:	2a09      	cmp	r2, #9
 80061ec:	d903      	bls.n	80061f6 <_svfiprintf_r+0x1a6>
 80061ee:	2b00      	cmp	r3, #0
 80061f0:	d0c6      	beq.n	8006180 <_svfiprintf_r+0x130>
 80061f2:	9105      	str	r1, [sp, #20]
 80061f4:	e7c4      	b.n	8006180 <_svfiprintf_r+0x130>
 80061f6:	fb0c 2101 	mla	r1, ip, r1, r2
 80061fa:	4604      	mov	r4, r0
 80061fc:	2301      	movs	r3, #1
 80061fe:	e7f0      	b.n	80061e2 <_svfiprintf_r+0x192>
 8006200:	ab03      	add	r3, sp, #12
 8006202:	9300      	str	r3, [sp, #0]
 8006204:	462a      	mov	r2, r5
 8006206:	4b0e      	ldr	r3, [pc, #56]	@ (8006240 <_svfiprintf_r+0x1f0>)
 8006208:	a904      	add	r1, sp, #16
 800620a:	4638      	mov	r0, r7
 800620c:	f7fd fe56 	bl	8003ebc <_printf_float>
 8006210:	1c42      	adds	r2, r0, #1
 8006212:	4606      	mov	r6, r0
 8006214:	d1d6      	bne.n	80061c4 <_svfiprintf_r+0x174>
 8006216:	89ab      	ldrh	r3, [r5, #12]
 8006218:	065b      	lsls	r3, r3, #25
 800621a:	f53f af2d 	bmi.w	8006078 <_svfiprintf_r+0x28>
 800621e:	9809      	ldr	r0, [sp, #36]	@ 0x24
 8006220:	e72c      	b.n	800607c <_svfiprintf_r+0x2c>
 8006222:	ab03      	add	r3, sp, #12
 8006224:	9300      	str	r3, [sp, #0]
 8006226:	462a      	mov	r2, r5
 8006228:	4b05      	ldr	r3, [pc, #20]	@ (8006240 <_svfiprintf_r+0x1f0>)
 800622a:	a904      	add	r1, sp, #16
 800622c:	4638      	mov	r0, r7
 800622e:	f7fe f8db 	bl	80043e8 <_printf_i>
 8006232:	e7ed      	b.n	8006210 <_svfiprintf_r+0x1c0>
 8006234:	0800716e 	.word	0x0800716e
 8006238:	08007178 	.word	0x08007178
 800623c:	08003ebd 	.word	0x08003ebd
 8006240:	08005f91 	.word	0x08005f91
 8006244:	08007174 	.word	0x08007174

08006248 <__sflush_r>:
 8006248:	f9b1 200c 	ldrsh.w	r2, [r1, #12]
 800624c:	e92d 41f0 	stmdb	sp!, {r4, r5, r6, r7, r8, lr}
 8006250:	0716      	lsls	r6, r2, #28
 8006252:	4605      	mov	r5, r0
 8006254:	460c      	mov	r4, r1
 8006256:	d451      	bmi.n	80062fc <__sflush_r+0xb4>
 8006258:	684b      	ldr	r3, [r1, #4]
 800625a:	2b00      	cmp	r3, #0
 800625c:	dc02      	bgt.n	8006264 <__sflush_r+0x1c>
 800625e:	6c0b      	ldr	r3, [r1, #64]	@ 0x40
 8006260:	2b00      	cmp	r3, #0
 8006262:	dd49      	ble.n	80062f8 <__sflush_r+0xb0>
 8006264:	6ae6      	ldr	r6, [r4, #44]	@ 0x2c
 8006266:	2e00      	cmp	r6, #0
 8006268:	d046      	beq.n	80062f8 <__sflush_r+0xb0>
 800626a:	2300      	movs	r3, #0
 800626c:	f412 5280 	ands.w	r2, r2, #4096	@ 0x1000
 8006270:	682f      	ldr	r7, [r5, #0]
 8006272:	602b      	str	r3, [r5, #0]
 8006274:	d031      	beq.n	80062da <__sflush_r+0x92>
 8006276:	6d62      	ldr	r2, [r4, #84]	@ 0x54
 8006278:	89a3      	ldrh	r3, [r4, #12]
 800627a:	0759      	lsls	r1, r3, #29
 800627c:	d505      	bpl.n	800628a <__sflush_r+0x42>
 800627e:	6863      	ldr	r3, [r4, #4]
 8006280:	1ad2      	subs	r2, r2, r3
 8006282:	6b63      	ldr	r3, [r4, #52]	@ 0x34
 8006284:	b10b      	cbz	r3, 800628a <__sflush_r+0x42>
 8006286:	6c23      	ldr	r3, [r4, #64]	@ 0x40
 8006288:	1ad2      	subs	r2, r2, r3
 800628a:	2300      	movs	r3, #0
 800628c:	6ae6      	ldr	r6, [r4, #44]	@ 0x2c
 800628e:	6a21      	ldr	r1, [r4, #32]
 8006290:	4628      	mov	r0, r5
 8006292:	47b0      	blx	r6
 8006294:	1c42      	adds	r2, r0, #1
 8006296:	f9b4 300c 	ldrsh.w	r3, [r4, #12]
 800629a:	d106      	bne.n	80062aa <__sflush_r+0x62>
 800629c:	6829      	ldr	r1, [r5, #0]
 800629e:	291d      	cmp	r1, #29
 80062a0:	d846      	bhi.n	8006330 <__sflush_r+0xe8>
 80062a2:	4a29      	ldr	r2, [pc, #164]	@ (8006348 <__sflush_r+0x100>)
 80062a4:	40ca      	lsrs	r2, r1
 80062a6:	07d6      	lsls	r6, r2, #31
 80062a8:	d542      	bpl.n	8006330 <__sflush_r+0xe8>
 80062aa:	2200      	movs	r2, #0
 80062ac:	6062      	str	r2, [r4, #4]
 80062ae:	04d9      	lsls	r1, r3, #19
 80062b0:	6922      	ldr	r2, [r4, #16]
 80062b2:	6022      	str	r2, [r4, #0]
 80062b4:	d504      	bpl.n	80062c0 <__sflush_r+0x78>
 80062b6:	1c42      	adds	r2, r0, #1
 80062b8:	d101      	bne.n	80062be <__sflush_r+0x76>
 80062ba:	682b      	ldr	r3, [r5, #0]
 80062bc:	b903      	cbnz	r3, 80062c0 <__sflush_r+0x78>
 80062be:	6560      	str	r0, [r4, #84]	@ 0x54
 80062c0:	6b61      	ldr	r1, [r4, #52]	@ 0x34
 80062c2:	602f      	str	r7, [r5, #0]
 80062c4:	b1c1      	cbz	r1, 80062f8 <__sflush_r+0xb0>
 80062c6:	f104 0344 	add.w	r3, r4, #68	@ 0x44
 80062ca:	4299      	cmp	r1, r3
 80062cc:	d002      	beq.n	80062d4 <__sflush_r+0x8c>
 80062ce:	4628      	mov	r0, r5
 80062d0:	f7ff f9d6 	bl	8005680 <_free_r>
 80062d4:	2300      	movs	r3, #0
 80062d6:	6363      	str	r3, [r4, #52]	@ 0x34
 80062d8:	e00e      	b.n	80062f8 <__sflush_r+0xb0>
 80062da:	6a21      	ldr	r1, [r4, #32]
 80062dc:	2301      	movs	r3, #1
 80062de:	4628      	mov	r0, r5
 80062e0:	47b0      	blx	r6
 80062e2:	4602      	mov	r2, r0
 80062e4:	1c50      	adds	r0, r2, #1
 80062e6:	d1c7      	bne.n	8006278 <__sflush_r+0x30>
 80062e8:	682b      	ldr	r3, [r5, #0]
 80062ea:	2b00      	cmp	r3, #0
 80062ec:	d0c4      	beq.n	8006278 <__sflush_r+0x30>
 80062ee:	2b1d      	cmp	r3, #29
 80062f0:	d001      	beq.n	80062f6 <__sflush_r+0xae>
 80062f2:	2b16      	cmp	r3, #22
 80062f4:	d11a      	bne.n	800632c <__sflush_r+0xe4>
 80062f6:	602f      	str	r7, [r5, #0]
 80062f8:	2000      	movs	r0, #0
 80062fa:	e01e      	b.n	800633a <__sflush_r+0xf2>
 80062fc:	690f      	ldr	r7, [r1, #16]
 80062fe:	2f00      	cmp	r7, #0
 8006300:	d0fa      	beq.n	80062f8 <__sflush_r+0xb0>
 8006302:	0793      	lsls	r3, r2, #30
 8006304:	680e      	ldr	r6, [r1, #0]
 8006306:	bf08      	it	eq
 8006308:	694b      	ldreq	r3, [r1, #20]
 800630a:	600f      	str	r7, [r1, #0]
 800630c:	bf18      	it	ne
 800630e:	2300      	movne	r3, #0
 8006310:	eba6 0807 	sub.w	r8, r6, r7
 8006314:	608b      	str	r3, [r1, #8]
 8006316:	f1b8 0f00 	cmp.w	r8, #0
 800631a:	dded      	ble.n	80062f8 <__sflush_r+0xb0>
 800631c:	6a21      	ldr	r1, [r4, #32]
 800631e:	6aa6      	ldr	r6, [r4, #40]	@ 0x28
 8006320:	4643      	mov	r3, r8
 8006322:	463a      	mov	r2, r7
 8006324:	4628      	mov	r0, r5
 8006326:	47b0      	blx	r6
 8006328:	2800      	cmp	r0, #0
 800632a:	dc08      	bgt.n	800633e <__sflush_r+0xf6>
 800632c:	f9b4 300c 	ldrsh.w	r3, [r4, #12]
 8006330:	f043 0340 	orr.w	r3, r3, #64	@ 0x40
 8006334:	81a3      	strh	r3, [r4, #12]
 8006336:	f04f 30ff 	mov.w	r0, #4294967295	@ 0xffffffff
 800633a:	e8bd 81f0 	ldmia.w	sp!, {r4, r5, r6, r7, r8, pc}
 800633e:	4407      	add	r7, r0
 8006340:	eba8 0800 	sub.w	r8, r8, r0
 8006344:	e7e7      	b.n	8006316 <__sflush_r+0xce>
 8006346:	bf00      	nop
 8006348:	20400001 	.word	0x20400001

0800634c <_fflush_r>:
 800634c:	b538      	push	{r3, r4, r5, lr}
 800634e:	690b      	ldr	r3, [r1, #16]
 8006350:	4605      	mov	r5, r0
 8006352:	460c      	mov	r4, r1
 8006354:	b913      	cbnz	r3, 800635c <_fflush_r+0x10>
 8006356:	2500      	movs	r5, #0
 8006358:	4628      	mov	r0, r5
 800635a:	bd38      	pop	{r3, r4, r5, pc}
 800635c:	b118      	cbz	r0, 8006366 <_fflush_r+0x1a>
 800635e:	6a03      	ldr	r3, [r0, #32]
 8006360:	b90b      	cbnz	r3, 8006366 <_fflush_r+0x1a>
 8006362:	f7fe f9ef 	bl	8004744 <__sinit>
 8006366:	f9b4 300c 	ldrsh.w	r3, [r4, #12]
 800636a:	2b00      	cmp	r3, #0
 800636c:	d0f3      	beq.n	8006356 <_fflush_r+0xa>
 800636e:	6e62      	ldr	r2, [r4, #100]	@ 0x64
 8006370:	07d0      	lsls	r0, r2, #31
 8006372:	d404      	bmi.n	800637e <_fflush_r+0x32>
 8006374:	0599      	lsls	r1, r3, #22
 8006376:	d402      	bmi.n	800637e <_fflush_r+0x32>
 8006378:	6da0      	ldr	r0, [r4, #88]	@ 0x58
 800637a:	f7fe fb0c 	bl	8004996 <__retarget_lock_acquire_recursive>
 800637e:	4628      	mov	r0, r5
 8006380:	4621      	mov	r1, r4
 8006382:	f7ff ff61 	bl	8006248 <__sflush_r>
 8006386:	6e63      	ldr	r3, [r4, #100]	@ 0x64
 8006388:	07da      	lsls	r2, r3, #31
 800638a:	4605      	mov	r5, r0
 800638c:	d4e4      	bmi.n	8006358 <_fflush_r+0xc>
 800638e:	89a3      	ldrh	r3, [r4, #12]
 8006390:	059b      	lsls	r3, r3, #22
 8006392:	d4e1      	bmi.n	8006358 <_fflush_r+0xc>
 8006394:	6da0      	ldr	r0, [r4, #88]	@ 0x58
 8006396:	f7fe faff 	bl	8004998 <__retarget_lock_release_recursive>
 800639a:	e7dd      	b.n	8006358 <_fflush_r+0xc>

0800639c <memmove>:
 800639c:	4288      	cmp	r0, r1
 800639e:	b510      	push	{r4, lr}
 80063a0:	eb01 0402 	add.w	r4, r1, r2
 80063a4:	d902      	bls.n	80063ac <memmove+0x10>
 80063a6:	4284      	cmp	r4, r0
 80063a8:	4623      	mov	r3, r4
 80063aa:	d807      	bhi.n	80063bc <memmove+0x20>
 80063ac:	1e43      	subs	r3, r0, #1
 80063ae:	42a1      	cmp	r1, r4
 80063b0:	d007      	beq.n	80063c2 <memmove+0x26>
 80063b2:	f811 2b01 	ldrb.w	r2, [r1], #1
 80063b6:	f803 2f01 	strb.w	r2, [r3, #1]!
 80063ba:	e7f8      	b.n	80063ae <memmove+0x12>
 80063bc:	4402      	add	r2, r0
 80063be:	4282      	cmp	r2, r0
 80063c0:	d100      	bne.n	80063c4 <memmove+0x28>
 80063c2:	bd10      	pop	{r4, pc}
 80063c4:	f813 1d01 	ldrb.w	r1, [r3, #-1]!
 80063c8:	f802 1d01 	strb.w	r1, [r2, #-1]!
 80063cc:	e7f7      	b.n	80063be <memmove+0x22>
	...

080063d0 <_sbrk_r>:
 80063d0:	b538      	push	{r3, r4, r5, lr}
 80063d2:	4d06      	ldr	r5, [pc, #24]	@ (80063ec <_sbrk_r+0x1c>)
 80063d4:	2300      	movs	r3, #0
 80063d6:	4604      	mov	r4, r0
 80063d8:	4608      	mov	r0, r1
 80063da:	602b      	str	r3, [r5, #0]
 80063dc:	f7fd fb48 	bl	8003a70 <_sbrk>
 80063e0:	1c43      	adds	r3, r0, #1
 80063e2:	d102      	bne.n	80063ea <_sbrk_r+0x1a>
 80063e4:	682b      	ldr	r3, [r5, #0]
 80063e6:	b103      	cbz	r3, 80063ea <_sbrk_r+0x1a>
 80063e8:	6023      	str	r3, [r4, #0]
 80063ea:	bd38      	pop	{r3, r4, r5, pc}
 80063ec:	20000434 	.word	0x20000434

080063f0 <memcpy>:
 80063f0:	440a      	add	r2, r1
 80063f2:	4291      	cmp	r1, r2
 80063f4:	f100 33ff 	add.w	r3, r0, #4294967295	@ 0xffffffff
 80063f8:	d100      	bne.n	80063fc <memcpy+0xc>
 80063fa:	4770      	bx	lr
 80063fc:	b510      	push	{r4, lr}
 80063fe:	f811 4b01 	ldrb.w	r4, [r1], #1
 8006402:	f803 4f01 	strb.w	r4, [r3, #1]!
 8006406:	4291      	cmp	r1, r2
 8006408:	d1f9      	bne.n	80063fe <memcpy+0xe>
 800640a:	bd10      	pop	{r4, pc}

0800640c <__assert_func>:
 800640c:	b51f      	push	{r0, r1, r2, r3, r4, lr}
 800640e:	4614      	mov	r4, r2
 8006410:	461a      	mov	r2, r3
 8006412:	4b09      	ldr	r3, [pc, #36]	@ (8006438 <__assert_func+0x2c>)
 8006414:	681b      	ldr	r3, [r3, #0]
 8006416:	4605      	mov	r5, r0
 8006418:	68d8      	ldr	r0, [r3, #12]
 800641a:	b14c      	cbz	r4, 8006430 <__assert_func+0x24>
 800641c:	4b07      	ldr	r3, [pc, #28]	@ (800643c <__assert_func+0x30>)
 800641e:	9100      	str	r1, [sp, #0]
 8006420:	e9cd 3401 	strd	r3, r4, [sp, #4]
 8006424:	4906      	ldr	r1, [pc, #24]	@ (8006440 <__assert_func+0x34>)
 8006426:	462b      	mov	r3, r5
 8006428:	f000 f870 	bl	800650c <fiprintf>
 800642c:	f000 f880 	bl	8006530 <abort>
 8006430:	4b04      	ldr	r3, [pc, #16]	@ (8006444 <__assert_func+0x38>)
 8006432:	461c      	mov	r4, r3
 8006434:	e7f3      	b.n	800641e <__assert_func+0x12>
 8006436:	bf00      	nop
 8006438:	20000018 	.word	0x20000018
 800643c:	08007189 	.word	0x08007189
 8006440:	08007196 	.word	0x08007196
 8006444:	080071c4 	.word	0x080071c4

08006448 <_calloc_r>:
 8006448:	b570      	push	{r4, r5, r6, lr}
 800644a:	fba1 5402 	umull	r5, r4, r1, r2
 800644e:	b934      	cbnz	r4, 800645e <_calloc_r+0x16>
 8006450:	4629      	mov	r1, r5
 8006452:	f7ff f989 	bl	8005768 <_malloc_r>
 8006456:	4606      	mov	r6, r0
 8006458:	b928      	cbnz	r0, 8006466 <_calloc_r+0x1e>
 800645a:	4630      	mov	r0, r6
 800645c:	bd70      	pop	{r4, r5, r6, pc}
 800645e:	220c      	movs	r2, #12
 8006460:	6002      	str	r2, [r0, #0]
 8006462:	2600      	movs	r6, #0
 8006464:	e7f9      	b.n	800645a <_calloc_r+0x12>
 8006466:	462a      	mov	r2, r5
 8006468:	4621      	mov	r1, r4
 800646a:	f7fe fa07 	bl	800487c <memset>
 800646e:	e7f4      	b.n	800645a <_calloc_r+0x12>

08006470 <__ascii_mbtowc>:
 8006470:	b082      	sub	sp, #8
 8006472:	b901      	cbnz	r1, 8006476 <__ascii_mbtowc+0x6>
 8006474:	a901      	add	r1, sp, #4
 8006476:	b142      	cbz	r2, 800648a <__ascii_mbtowc+0x1a>
 8006478:	b14b      	cbz	r3, 800648e <__ascii_mbtowc+0x1e>
 800647a:	7813      	ldrb	r3, [r2, #0]
 800647c:	600b      	str	r3, [r1, #0]
 800647e:	7812      	ldrb	r2, [r2, #0]
 8006480:	1e10      	subs	r0, r2, #0
 8006482:	bf18      	it	ne
 8006484:	2001      	movne	r0, #1
 8006486:	b002      	add	sp, #8
 8006488:	4770      	bx	lr
 800648a:	4610      	mov	r0, r2
 800648c:	e7fb      	b.n	8006486 <__ascii_mbtowc+0x16>
 800648e:	f06f 0001 	mvn.w	r0, #1
 8006492:	e7f8      	b.n	8006486 <__ascii_mbtowc+0x16>

08006494 <_realloc_r>:
 8006494:	e92d 41f0 	stmdb	sp!, {r4, r5, r6, r7, r8, lr}
 8006498:	4607      	mov	r7, r0
 800649a:	4614      	mov	r4, r2
 800649c:	460d      	mov	r5, r1
 800649e:	b921      	cbnz	r1, 80064aa <_realloc_r+0x16>
 80064a0:	e8bd 41f0 	ldmia.w	sp!, {r4, r5, r6, r7, r8, lr}
 80064a4:	4611      	mov	r1, r2
 80064a6:	f7ff b95f 	b.w	8005768 <_malloc_r>
 80064aa:	b92a      	cbnz	r2, 80064b8 <_realloc_r+0x24>
 80064ac:	f7ff f8e8 	bl	8005680 <_free_r>
 80064b0:	4625      	mov	r5, r4
 80064b2:	4628      	mov	r0, r5
 80064b4:	e8bd 81f0 	ldmia.w	sp!, {r4, r5, r6, r7, r8, pc}
 80064b8:	f000 f841 	bl	800653e <_malloc_usable_size_r>
 80064bc:	4284      	cmp	r4, r0
 80064be:	4606      	mov	r6, r0
 80064c0:	d802      	bhi.n	80064c8 <_realloc_r+0x34>
 80064c2:	ebb4 0f50 	cmp.w	r4, r0, lsr #1
 80064c6:	d8f4      	bhi.n	80064b2 <_realloc_r+0x1e>
 80064c8:	4621      	mov	r1, r4
 80064ca:	4638      	mov	r0, r7
 80064cc:	f7ff f94c 	bl	8005768 <_malloc_r>
 80064d0:	4680      	mov	r8, r0
 80064d2:	b908      	cbnz	r0, 80064d8 <_realloc_r+0x44>
 80064d4:	4645      	mov	r5, r8
 80064d6:	e7ec      	b.n	80064b2 <_realloc_r+0x1e>
 80064d8:	42b4      	cmp	r4, r6
 80064da:	4622      	mov	r2, r4
 80064dc:	4629      	mov	r1, r5
 80064de:	bf28      	it	cs
 80064e0:	4632      	movcs	r2, r6
 80064e2:	f7ff ff85 	bl	80063f0 <memcpy>
 80064e6:	4629      	mov	r1, r5
 80064e8:	4638      	mov	r0, r7
 80064ea:	f7ff f8c9 	bl	8005680 <_free_r>
 80064ee:	e7f1      	b.n	80064d4 <_realloc_r+0x40>

080064f0 <__ascii_wctomb>:
 80064f0:	4603      	mov	r3, r0
 80064f2:	4608      	mov	r0, r1
 80064f4:	b141      	cbz	r1, 8006508 <__ascii_wctomb+0x18>
 80064f6:	2aff      	cmp	r2, #255	@ 0xff
 80064f8:	d904      	bls.n	8006504 <__ascii_wctomb+0x14>
 80064fa:	228a      	movs	r2, #138	@ 0x8a
 80064fc:	601a      	str	r2, [r3, #0]
 80064fe:	f04f 30ff 	mov.w	r0, #4294967295	@ 0xffffffff
 8006502:	4770      	bx	lr
 8006504:	700a      	strb	r2, [r1, #0]
 8006506:	2001      	movs	r0, #1
 8006508:	4770      	bx	lr
	...

0800650c <fiprintf>:
 800650c:	b40e      	push	{r1, r2, r3}
 800650e:	b503      	push	{r0, r1, lr}
 8006510:	4601      	mov	r1, r0
 8006512:	ab03      	add	r3, sp, #12
 8006514:	4805      	ldr	r0, [pc, #20]	@ (800652c <fiprintf+0x20>)
 8006516:	f853 2b04 	ldr.w	r2, [r3], #4
 800651a:	6800      	ldr	r0, [r0, #0]
 800651c:	9301      	str	r3, [sp, #4]
 800651e:	f000 f83f 	bl	80065a0 <_vfiprintf_r>
 8006522:	b002      	add	sp, #8
 8006524:	f85d eb04 	ldr.w	lr, [sp], #4
 8006528:	b003      	add	sp, #12
 800652a:	4770      	bx	lr
 800652c:	20000018 	.word	0x20000018

08006530 <abort>:
 8006530:	b508      	push	{r3, lr}
 8006532:	2006      	movs	r0, #6
 8006534:	f000 fa06 	bl	8006944 <raise>
 8006538:	2001      	movs	r0, #1
 800653a:	f7fd fa69 	bl	8003a10 <_exit>

0800653e <_malloc_usable_size_r>:
 800653e:	f851 3c04 	ldr.w	r3, [r1, #-4]
 8006542:	1f18      	subs	r0, r3, #4
 8006544:	2b00      	cmp	r3, #0
 8006546:	bfbc      	itt	lt
 8006548:	580b      	ldrlt	r3, [r1, r0]
 800654a:	18c0      	addlt	r0, r0, r3
 800654c:	4770      	bx	lr

0800654e <__sfputc_r>:
 800654e:	6893      	ldr	r3, [r2, #8]
 8006550:	3b01      	subs	r3, #1
 8006552:	2b00      	cmp	r3, #0
 8006554:	b410      	push	{r4}
 8006556:	6093      	str	r3, [r2, #8]
 8006558:	da08      	bge.n	800656c <__sfputc_r+0x1e>
 800655a:	6994      	ldr	r4, [r2, #24]
 800655c:	42a3      	cmp	r3, r4
 800655e:	db01      	blt.n	8006564 <__sfputc_r+0x16>
 8006560:	290a      	cmp	r1, #10
 8006562:	d103      	bne.n	800656c <__sfputc_r+0x1e>
 8006564:	f85d 4b04 	ldr.w	r4, [sp], #4
 8006568:	f000 b932 	b.w	80067d0 <__swbuf_r>
 800656c:	6813      	ldr	r3, [r2, #0]
 800656e:	1c58      	adds	r0, r3, #1
 8006570:	6010      	str	r0, [r2, #0]
 8006572:	7019      	strb	r1, [r3, #0]
 8006574:	4608      	mov	r0, r1
 8006576:	f85d 4b04 	ldr.w	r4, [sp], #4
 800657a:	4770      	bx	lr

0800657c <__sfputs_r>:
 800657c:	b5f8      	push	{r3, r4, r5, r6, r7, lr}
 800657e:	4606      	mov	r6, r0
 8006580:	460f      	mov	r7, r1
 8006582:	4614      	mov	r4, r2
 8006584:	18d5      	adds	r5, r2, r3
 8006586:	42ac      	cmp	r4, r5
 8006588:	d101      	bne.n	800658e <__sfputs_r+0x12>
 800658a:	2000      	movs	r0, #0
 800658c:	e007      	b.n	800659e <__sfputs_r+0x22>
 800658e:	f814 1b01 	ldrb.w	r1, [r4], #1
 8006592:	463a      	mov	r2, r7
 8006594:	4630      	mov	r0, r6
 8006596:	f7ff ffda 	bl	800654e <__sfputc_r>
 800659a:	1c43      	adds	r3, r0, #1
 800659c:	d1f3      	bne.n	8006586 <__sfputs_r+0xa>
 800659e:	bdf8      	pop	{r3, r4, r5, r6, r7, pc}

080065a0 <_vfiprintf_r>:
 80065a0:	e92d 4ff0 	stmdb	sp!, {r4, r5, r6, r7, r8, r9, sl, fp, lr}
 80065a4:	460d      	mov	r5, r1
 80065a6:	b09d      	sub	sp, #116	@ 0x74
 80065a8:	4614      	mov	r4, r2
 80065aa:	4698      	mov	r8, r3
 80065ac:	4606      	mov	r6, r0
 80065ae:	b118      	cbz	r0, 80065b8 <_vfiprintf_r+0x18>
 80065b0:	6a03      	ldr	r3, [r0, #32]
 80065b2:	b90b      	cbnz	r3, 80065b8 <_vfiprintf_r+0x18>
 80065b4:	f7fe f8c6 	bl	8004744 <__sinit>
 80065b8:	6e6b      	ldr	r3, [r5, #100]	@ 0x64
 80065ba:	07d9      	lsls	r1, r3, #31
 80065bc:	d405      	bmi.n	80065ca <_vfiprintf_r+0x2a>
 80065be:	89ab      	ldrh	r3, [r5, #12]
 80065c0:	059a      	lsls	r2, r3, #22
 80065c2:	d402      	bmi.n	80065ca <_vfiprintf_r+0x2a>
 80065c4:	6da8      	ldr	r0, [r5, #88]	@ 0x58
 80065c6:	f7fe f9e6 	bl	8004996 <__retarget_lock_acquire_recursive>
 80065ca:	89ab      	ldrh	r3, [r5, #12]
 80065cc:	071b      	lsls	r3, r3, #28
 80065ce:	d501      	bpl.n	80065d4 <_vfiprintf_r+0x34>
 80065d0:	692b      	ldr	r3, [r5, #16]
 80065d2:	b99b      	cbnz	r3, 80065fc <_vfiprintf_r+0x5c>
 80065d4:	4629      	mov	r1, r5
 80065d6:	4630      	mov	r0, r6
 80065d8:	f000 f938 	bl	800684c <__swsetup_r>
 80065dc:	b170      	cbz	r0, 80065fc <_vfiprintf_r+0x5c>
 80065de:	6e6b      	ldr	r3, [r5, #100]	@ 0x64
 80065e0:	07dc      	lsls	r4, r3, #31
 80065e2:	d504      	bpl.n	80065ee <_vfiprintf_r+0x4e>
 80065e4:	f04f 30ff 	mov.w	r0, #4294967295	@ 0xffffffff
 80065e8:	b01d      	add	sp, #116	@ 0x74
 80065ea:	e8bd 8ff0 	ldmia.w	sp!, {r4, r5, r6, r7, r8, r9, sl, fp, pc}
 80065ee:	89ab      	ldrh	r3, [r5, #12]
 80065f0:	0598      	lsls	r0, r3, #22
 80065f2:	d4f7      	bmi.n	80065e4 <_vfiprintf_r+0x44>
 80065f4:	6da8      	ldr	r0, [r5, #88]	@ 0x58
 80065f6:	f7fe f9cf 	bl	8004998 <__retarget_lock_release_recursive>
 80065fa:	e7f3      	b.n	80065e4 <_vfiprintf_r+0x44>
 80065fc:	2300      	movs	r3, #0
 80065fe:	9309      	str	r3, [sp, #36]	@ 0x24
 8006600:	2320      	movs	r3, #32
 8006602:	f88d 3029 	strb.w	r3, [sp, #41]	@ 0x29
 8006606:	f8cd 800c 	str.w	r8, [sp, #12]
 800660a:	2330      	movs	r3, #48	@ 0x30
 800660c:	f8df 81ac 	ldr.w	r8, [pc, #428]	@ 80067bc <_vfiprintf_r+0x21c>
 8006610:	f88d 302a 	strb.w	r3, [sp, #42]	@ 0x2a
 8006614:	f04f 0901 	mov.w	r9, #1
 8006618:	4623      	mov	r3, r4
 800661a:	469a      	mov	sl, r3
 800661c:	f813 2b01 	ldrb.w	r2, [r3], #1
 8006620:	b10a      	cbz	r2, 8006626 <_vfiprintf_r+0x86>
 8006622:	2a25      	cmp	r2, #37	@ 0x25
 8006624:	d1f9      	bne.n	800661a <_vfiprintf_r+0x7a>
 8006626:	ebba 0b04 	subs.w	fp, sl, r4
 800662a:	d00b      	beq.n	8006644 <_vfiprintf_r+0xa4>
 800662c:	465b      	mov	r3, fp
 800662e:	4622      	mov	r2, r4
 8006630:	4629      	mov	r1, r5
 8006632:	4630      	mov	r0, r6
 8006634:	f7ff ffa2 	bl	800657c <__sfputs_r>
 8006638:	3001      	adds	r0, #1
 800663a:	f000 80a7 	beq.w	800678c <_vfiprintf_r+0x1ec>
 800663e:	9a09      	ldr	r2, [sp, #36]	@ 0x24
 8006640:	445a      	add	r2, fp
 8006642:	9209      	str	r2, [sp, #36]	@ 0x24
 8006644:	f89a 3000 	ldrb.w	r3, [sl]
 8006648:	2b00      	cmp	r3, #0
 800664a:	f000 809f 	beq.w	800678c <_vfiprintf_r+0x1ec>
 800664e:	2300      	movs	r3, #0
 8006650:	f04f 32ff 	mov.w	r2, #4294967295	@ 0xffffffff
 8006654:	e9cd 2305 	strd	r2, r3, [sp, #20]
 8006658:	f10a 0a01 	add.w	sl, sl, #1
 800665c:	9304      	str	r3, [sp, #16]
 800665e:	9307      	str	r3, [sp, #28]
 8006660:	f88d 3053 	strb.w	r3, [sp, #83]	@ 0x53
 8006664:	931a      	str	r3, [sp, #104]	@ 0x68
 8006666:	4654      	mov	r4, sl
 8006668:	2205      	movs	r2, #5
 800666a:	f814 1b01 	ldrb.w	r1, [r4], #1
 800666e:	4853      	ldr	r0, [pc, #332]	@ (80067bc <_vfiprintf_r+0x21c>)
 8006670:	f7f9 fd96 	bl	80001a0 <memchr>
 8006674:	9a04      	ldr	r2, [sp, #16]
 8006676:	b9d8      	cbnz	r0, 80066b0 <_vfiprintf_r+0x110>
 8006678:	06d1      	lsls	r1, r2, #27
 800667a:	bf44      	itt	mi
 800667c:	2320      	movmi	r3, #32
 800667e:	f88d 3053 	strbmi.w	r3, [sp, #83]	@ 0x53
 8006682:	0713      	lsls	r3, r2, #28
 8006684:	bf44      	itt	mi
 8006686:	232b      	movmi	r3, #43	@ 0x2b
 8006688:	f88d 3053 	strbmi.w	r3, [sp, #83]	@ 0x53
 800668c:	f89a 3000 	ldrb.w	r3, [sl]
 8006690:	2b2a      	cmp	r3, #42	@ 0x2a
 8006692:	d015      	beq.n	80066c0 <_vfiprintf_r+0x120>
 8006694:	9a07      	ldr	r2, [sp, #28]
 8006696:	4654      	mov	r4, sl
 8006698:	2000      	movs	r0, #0
 800669a:	f04f 0c0a 	mov.w	ip, #10
 800669e:	4621      	mov	r1, r4
 80066a0:	f811 3b01 	ldrb.w	r3, [r1], #1
 80066a4:	3b30      	subs	r3, #48	@ 0x30
 80066a6:	2b09      	cmp	r3, #9
 80066a8:	d94b      	bls.n	8006742 <_vfiprintf_r+0x1a2>
 80066aa:	b1b0      	cbz	r0, 80066da <_vfiprintf_r+0x13a>
 80066ac:	9207      	str	r2, [sp, #28]
 80066ae:	e014      	b.n	80066da <_vfiprintf_r+0x13a>
 80066b0:	eba0 0308 	sub.w	r3, r0, r8
 80066b4:	fa09 f303 	lsl.w	r3, r9, r3
 80066b8:	4313      	orrs	r3, r2
 80066ba:	9304      	str	r3, [sp, #16]
 80066bc:	46a2      	mov	sl, r4
 80066be:	e7d2      	b.n	8006666 <_vfiprintf_r+0xc6>
 80066c0:	9b03      	ldr	r3, [sp, #12]
 80066c2:	1d19      	adds	r1, r3, #4
 80066c4:	681b      	ldr	r3, [r3, #0]
 80066c6:	9103      	str	r1, [sp, #12]
 80066c8:	2b00      	cmp	r3, #0
 80066ca:	bfbb      	ittet	lt
 80066cc:	425b      	neglt	r3, r3
 80066ce:	f042 0202 	orrlt.w	r2, r2, #2
 80066d2:	9307      	strge	r3, [sp, #28]
 80066d4:	9307      	strlt	r3, [sp, #28]
 80066d6:	bfb8      	it	lt
 80066d8:	9204      	strlt	r2, [sp, #16]
 80066da:	7823      	ldrb	r3, [r4, #0]
 80066dc:	2b2e      	cmp	r3, #46	@ 0x2e
 80066de:	d10a      	bne.n	80066f6 <_vfiprintf_r+0x156>
 80066e0:	7863      	ldrb	r3, [r4, #1]
 80066e2:	2b2a      	cmp	r3, #42	@ 0x2a
 80066e4:	d132      	bne.n	800674c <_vfiprintf_r+0x1ac>
 80066e6:	9b03      	ldr	r3, [sp, #12]
 80066e8:	1d1a      	adds	r2, r3, #4
 80066ea:	681b      	ldr	r3, [r3, #0]
 80066ec:	9203      	str	r2, [sp, #12]
 80066ee:	ea43 73e3 	orr.w	r3, r3, r3, asr #31
 80066f2:	3402      	adds	r4, #2
 80066f4:	9305      	str	r3, [sp, #20]
 80066f6:	f8df a0d4 	ldr.w	sl, [pc, #212]	@ 80067cc <_vfiprintf_r+0x22c>
 80066fa:	7821      	ldrb	r1, [r4, #0]
 80066fc:	2203      	movs	r2, #3
 80066fe:	4650      	mov	r0, sl
 8006700:	f7f9 fd4e 	bl	80001a0 <memchr>
 8006704:	b138      	cbz	r0, 8006716 <_vfiprintf_r+0x176>
 8006706:	9b04      	ldr	r3, [sp, #16]
 8006708:	eba0 000a 	sub.w	r0, r0, sl
 800670c:	2240      	movs	r2, #64	@ 0x40
 800670e:	4082      	lsls	r2, r0
 8006710:	4313      	orrs	r3, r2
 8006712:	3401      	adds	r4, #1
 8006714:	9304      	str	r3, [sp, #16]
 8006716:	f814 1b01 	ldrb.w	r1, [r4], #1
 800671a:	4829      	ldr	r0, [pc, #164]	@ (80067c0 <_vfiprintf_r+0x220>)
 800671c:	f88d 1028 	strb.w	r1, [sp, #40]	@ 0x28
 8006720:	2206      	movs	r2, #6
 8006722:	f7f9 fd3d 	bl	80001a0 <memchr>
 8006726:	2800      	cmp	r0, #0
 8006728:	d03f      	beq.n	80067aa <_vfiprintf_r+0x20a>
 800672a:	4b26      	ldr	r3, [pc, #152]	@ (80067c4 <_vfiprintf_r+0x224>)
 800672c:	bb1b      	cbnz	r3, 8006776 <_vfiprintf_r+0x1d6>
 800672e:	9b03      	ldr	r3, [sp, #12]
 8006730:	3307      	adds	r3, #7
 8006732:	f023 0307 	bic.w	r3, r3, #7
 8006736:	3308      	adds	r3, #8
 8006738:	9303      	str	r3, [sp, #12]
 800673a:	9b09      	ldr	r3, [sp, #36]	@ 0x24
 800673c:	443b      	add	r3, r7
 800673e:	9309      	str	r3, [sp, #36]	@ 0x24
 8006740:	e76a      	b.n	8006618 <_vfiprintf_r+0x78>
 8006742:	fb0c 3202 	mla	r2, ip, r2, r3
 8006746:	460c      	mov	r4, r1
 8006748:	2001      	movs	r0, #1
 800674a:	e7a8      	b.n	800669e <_vfiprintf_r+0xfe>
 800674c:	2300      	movs	r3, #0
 800674e:	3401      	adds	r4, #1
 8006750:	9305      	str	r3, [sp, #20]
 8006752:	4619      	mov	r1, r3
 8006754:	f04f 0c0a 	mov.w	ip, #10
 8006758:	4620      	mov	r0, r4
 800675a:	f810 2b01 	ldrb.w	r2, [r0], #1
 800675e:	3a30      	subs	r2, #48	@ 0x30
 8006760:	2a09      	cmp	r2, #9
 8006762:	d903      	bls.n	800676c <_vfiprintf_r+0x1cc>
 8006764:	2b00      	cmp	r3, #0
 8006766:	d0c6      	beq.n	80066f6 <_vfiprintf_r+0x156>
 8006768:	9105      	str	r1, [sp, #20]
 800676a:	e7c4      	b.n	80066f6 <_vfiprintf_r+0x156>
 800676c:	fb0c 2101 	mla	r1, ip, r1, r2
 8006770:	4604      	mov	r4, r0
 8006772:	2301      	movs	r3, #1
 8006774:	e7f0      	b.n	8006758 <_vfiprintf_r+0x1b8>
 8006776:	ab03      	add	r3, sp, #12
 8006778:	9300      	str	r3, [sp, #0]
 800677a:	462a      	mov	r2, r5
 800677c:	4b12      	ldr	r3, [pc, #72]	@ (80067c8 <_vfiprintf_r+0x228>)
 800677e:	a904      	add	r1, sp, #16
 8006780:	4630      	mov	r0, r6
 8006782:	f7fd fb9b 	bl	8003ebc <_printf_float>
 8006786:	4607      	mov	r7, r0
 8006788:	1c78      	adds	r0, r7, #1
 800678a:	d1d6      	bne.n	800673a <_vfiprintf_r+0x19a>
 800678c:	6e6b      	ldr	r3, [r5, #100]	@ 0x64
 800678e:	07d9      	lsls	r1, r3, #31
 8006790:	d405      	bmi.n	800679e <_vfiprintf_r+0x1fe>
 8006792:	89ab      	ldrh	r3, [r5, #12]
 8006794:	059a      	lsls	r2, r3, #22
 8006796:	d402      	bmi.n	800679e <_vfiprintf_r+0x1fe>
 8006798:	6da8      	ldr	r0, [r5, #88]	@ 0x58
 800679a:	f7fe f8fd 	bl	8004998 <__retarget_lock_release_recursive>
 800679e:	89ab      	ldrh	r3, [r5, #12]
 80067a0:	065b      	lsls	r3, r3, #25
 80067a2:	f53f af1f 	bmi.w	80065e4 <_vfiprintf_r+0x44>
 80067a6:	9809      	ldr	r0, [sp, #36]	@ 0x24
 80067a8:	e71e      	b.n	80065e8 <_vfiprintf_r+0x48>
 80067aa:	ab03      	add	r3, sp, #12
 80067ac:	9300      	str	r3, [sp, #0]
 80067ae:	462a      	mov	r2, r5
 80067b0:	4b05      	ldr	r3, [pc, #20]	@ (80067c8 <_vfiprintf_r+0x228>)
 80067b2:	a904      	add	r1, sp, #16
 80067b4:	4630      	mov	r0, r6
 80067b6:	f7fd fe17 	bl	80043e8 <_printf_i>
 80067ba:	e7e4      	b.n	8006786 <_vfiprintf_r+0x1e6>
 80067bc:	0800716e 	.word	0x0800716e
 80067c0:	08007178 	.word	0x08007178
 80067c4:	08003ebd 	.word	0x08003ebd
 80067c8:	0800657d 	.word	0x0800657d
 80067cc:	08007174 	.word	0x08007174

080067d0 <__swbuf_r>:
 80067d0:	b5f8      	push	{r3, r4, r5, r6, r7, lr}
 80067d2:	460e      	mov	r6, r1
 80067d4:	4614      	mov	r4, r2
 80067d6:	4605      	mov	r5, r0
 80067d8:	b118      	cbz	r0, 80067e2 <__swbuf_r+0x12>
 80067da:	6a03      	ldr	r3, [r0, #32]
 80067dc:	b90b      	cbnz	r3, 80067e2 <__swbuf_r+0x12>
 80067de:	f7fd ffb1 	bl	8004744 <__sinit>
 80067e2:	69a3      	ldr	r3, [r4, #24]
 80067e4:	60a3      	str	r3, [r4, #8]
 80067e6:	89a3      	ldrh	r3, [r4, #12]
 80067e8:	071a      	lsls	r2, r3, #28
 80067ea:	d501      	bpl.n	80067f0 <__swbuf_r+0x20>
 80067ec:	6923      	ldr	r3, [r4, #16]
 80067ee:	b943      	cbnz	r3, 8006802 <__swbuf_r+0x32>
 80067f0:	4621      	mov	r1, r4
 80067f2:	4628      	mov	r0, r5
 80067f4:	f000 f82a 	bl	800684c <__swsetup_r>
 80067f8:	b118      	cbz	r0, 8006802 <__swbuf_r+0x32>
 80067fa:	f04f 37ff 	mov.w	r7, #4294967295	@ 0xffffffff
 80067fe:	4638      	mov	r0, r7
 8006800:	bdf8      	pop	{r3, r4, r5, r6, r7, pc}
 8006802:	6823      	ldr	r3, [r4, #0]
 8006804:	6922      	ldr	r2, [r4, #16]
 8006806:	1a98      	subs	r0, r3, r2
 8006808:	6963      	ldr	r3, [r4, #20]
 800680a:	b2f6      	uxtb	r6, r6
 800680c:	4283      	cmp	r3, r0
 800680e:	4637      	mov	r7, r6
 8006810:	dc05      	bgt.n	800681e <__swbuf_r+0x4e>
 8006812:	4621      	mov	r1, r4
 8006814:	4628      	mov	r0, r5
 8006816:	f7ff fd99 	bl	800634c <_fflush_r>
 800681a:	2800      	cmp	r0, #0
 800681c:	d1ed      	bne.n	80067fa <__swbuf_r+0x2a>
 800681e:	68a3      	ldr	r3, [r4, #8]
 8006820:	3b01      	subs	r3, #1
 8006822:	60a3      	str	r3, [r4, #8]
 8006824:	6823      	ldr	r3, [r4, #0]
 8006826:	1c5a      	adds	r2, r3, #1
 8006828:	6022      	str	r2, [r4, #0]
 800682a:	701e      	strb	r6, [r3, #0]
 800682c:	6962      	ldr	r2, [r4, #20]
 800682e:	1c43      	adds	r3, r0, #1
 8006830:	429a      	cmp	r2, r3
 8006832:	d004      	beq.n	800683e <__swbuf_r+0x6e>
 8006834:	89a3      	ldrh	r3, [r4, #12]
 8006836:	07db      	lsls	r3, r3, #31
 8006838:	d5e1      	bpl.n	80067fe <__swbuf_r+0x2e>
 800683a:	2e0a      	cmp	r6, #10
 800683c:	d1df      	bne.n	80067fe <__swbuf_r+0x2e>
 800683e:	4621      	mov	r1, r4
 8006840:	4628      	mov	r0, r5
 8006842:	f7ff fd83 	bl	800634c <_fflush_r>
 8006846:	2800      	cmp	r0, #0
 8006848:	d0d9      	beq.n	80067fe <__swbuf_r+0x2e>
 800684a:	e7d6      	b.n	80067fa <__swbuf_r+0x2a>

0800684c <__swsetup_r>:
 800684c:	b538      	push	{r3, r4, r5, lr}
 800684e:	4b28      	ldr	r3, [pc, #160]	@ (80068f0 <__swsetup_r+0xa4>)
 8006850:	4605      	mov	r5, r0
 8006852:	6818      	ldr	r0, [r3, #0]
 8006854:	460c      	mov	r4, r1
 8006856:	b118      	cbz	r0, 8006860 <__swsetup_r+0x14>
 8006858:	6a03      	ldr	r3, [r0, #32]
 800685a:	b90b      	cbnz	r3, 8006860 <__swsetup_r+0x14>
 800685c:	f7fd ff72 	bl	8004744 <__sinit>
 8006860:	f9b4 300c 	ldrsh.w	r3, [r4, #12]
 8006864:	0719      	lsls	r1, r3, #28
 8006866:	d421      	bmi.n	80068ac <__swsetup_r+0x60>
 8006868:	06da      	lsls	r2, r3, #27
 800686a:	d407      	bmi.n	800687c <__swsetup_r+0x30>
 800686c:	2209      	movs	r2, #9
 800686e:	602a      	str	r2, [r5, #0]
 8006870:	f043 0340 	orr.w	r3, r3, #64	@ 0x40
 8006874:	81a3      	strh	r3, [r4, #12]
 8006876:	f04f 30ff 	mov.w	r0, #4294967295	@ 0xffffffff
 800687a:	e031      	b.n	80068e0 <__swsetup_r+0x94>
 800687c:	0758      	lsls	r0, r3, #29
 800687e:	d512      	bpl.n	80068a6 <__swsetup_r+0x5a>
 8006880:	6b61      	ldr	r1, [r4, #52]	@ 0x34
 8006882:	b141      	cbz	r1, 8006896 <__swsetup_r+0x4a>
 8006884:	f104 0344 	add.w	r3, r4, #68	@ 0x44
 8006888:	4299      	cmp	r1, r3
 800688a:	d002      	beq.n	8006892 <__swsetup_r+0x46>
 800688c:	4628      	mov	r0, r5
 800688e:	f7fe fef7 	bl	8005680 <_free_r>
 8006892:	2300      	movs	r3, #0
 8006894:	6363      	str	r3, [r4, #52]	@ 0x34
 8006896:	2200      	movs	r2, #0
 8006898:	f9b4 300c 	ldrsh.w	r3, [r4, #12]
 800689c:	6062      	str	r2, [r4, #4]
 800689e:	6922      	ldr	r2, [r4, #16]
 80068a0:	6022      	str	r2, [r4, #0]
 80068a2:	f023 0324 	bic.w	r3, r3, #36	@ 0x24
 80068a6:	f043 0308 	orr.w	r3, r3, #8
 80068aa:	81a3      	strh	r3, [r4, #12]
 80068ac:	6922      	ldr	r2, [r4, #16]
 80068ae:	b942      	cbnz	r2, 80068c2 <__swsetup_r+0x76>
 80068b0:	f403 7320 	and.w	r3, r3, #640	@ 0x280
 80068b4:	f5b3 7f00 	cmp.w	r3, #512	@ 0x200
 80068b8:	d003      	beq.n	80068c2 <__swsetup_r+0x76>
 80068ba:	4621      	mov	r1, r4
 80068bc:	4628      	mov	r0, r5
 80068be:	f000 f881 	bl	80069c4 <__smakebuf_r>
 80068c2:	f9b4 300c 	ldrsh.w	r3, [r4, #12]
 80068c6:	f013 0201 	ands.w	r2, r3, #1
 80068ca:	d00a      	beq.n	80068e2 <__swsetup_r+0x96>
 80068cc:	2200      	movs	r2, #0
 80068ce:	60a2      	str	r2, [r4, #8]
 80068d0:	6962      	ldr	r2, [r4, #20]
 80068d2:	4252      	negs	r2, r2
 80068d4:	61a2      	str	r2, [r4, #24]
 80068d6:	6922      	ldr	r2, [r4, #16]
 80068d8:	b942      	cbnz	r2, 80068ec <__swsetup_r+0xa0>
 80068da:	f013 0080 	ands.w	r0, r3, #128	@ 0x80
 80068de:	d1c7      	bne.n	8006870 <__swsetup_r+0x24>
 80068e0:	bd38      	pop	{r3, r4, r5, pc}
 80068e2:	0799      	lsls	r1, r3, #30
 80068e4:	bf58      	it	pl
 80068e6:	6962      	ldrpl	r2, [r4, #20]
 80068e8:	60a2      	str	r2, [r4, #8]
 80068ea:	e7f4      	b.n	80068d6 <__swsetup_r+0x8a>
 80068ec:	2000      	movs	r0, #0
 80068ee:	e7f7      	b.n	80068e0 <__swsetup_r+0x94>
 80068f0:	20000018 	.word	0x20000018

080068f4 <_raise_r>:
 80068f4:	291f      	cmp	r1, #31
 80068f6:	b538      	push	{r3, r4, r5, lr}
 80068f8:	4605      	mov	r5, r0
 80068fa:	460c      	mov	r4, r1
 80068fc:	d904      	bls.n	8006908 <_raise_r+0x14>
 80068fe:	2316      	movs	r3, #22
 8006900:	6003      	str	r3, [r0, #0]
 8006902:	f04f 30ff 	mov.w	r0, #4294967295	@ 0xffffffff
 8006906:	bd38      	pop	{r3, r4, r5, pc}
 8006908:	6bc2      	ldr	r2, [r0, #60]	@ 0x3c
 800690a:	b112      	cbz	r2, 8006912 <_raise_r+0x1e>
 800690c:	f852 3021 	ldr.w	r3, [r2, r1, lsl #2]
 8006910:	b94b      	cbnz	r3, 8006926 <_raise_r+0x32>
 8006912:	4628      	mov	r0, r5
 8006914:	f000 f830 	bl	8006978 <_getpid_r>
 8006918:	4622      	mov	r2, r4
 800691a:	4601      	mov	r1, r0
 800691c:	4628      	mov	r0, r5
 800691e:	e8bd 4038 	ldmia.w	sp!, {r3, r4, r5, lr}
 8006922:	f000 b817 	b.w	8006954 <_kill_r>
 8006926:	2b01      	cmp	r3, #1
 8006928:	d00a      	beq.n	8006940 <_raise_r+0x4c>
 800692a:	1c59      	adds	r1, r3, #1
 800692c:	d103      	bne.n	8006936 <_raise_r+0x42>
 800692e:	2316      	movs	r3, #22
 8006930:	6003      	str	r3, [r0, #0]
 8006932:	2001      	movs	r0, #1
 8006934:	e7e7      	b.n	8006906 <_raise_r+0x12>
 8006936:	2100      	movs	r1, #0
 8006938:	f842 1024 	str.w	r1, [r2, r4, lsl #2]
 800693c:	4620      	mov	r0, r4
 800693e:	4798      	blx	r3
 8006940:	2000      	movs	r0, #0
 8006942:	e7e0      	b.n	8006906 <_raise_r+0x12>

08006944 <raise>:
 8006944:	4b02      	ldr	r3, [pc, #8]	@ (8006950 <raise+0xc>)
 8006946:	4601      	mov	r1, r0
 8006948:	6818      	ldr	r0, [r3, #0]
 800694a:	f7ff bfd3 	b.w	80068f4 <_raise_r>
 800694e:	bf00      	nop
 8006950:	20000018 	.word	0x20000018

08006954 <_kill_r>:
 8006954:	b538      	push	{r3, r4, r5, lr}
 8006956:	4d07      	ldr	r5, [pc, #28]	@ (8006974 <_kill_r+0x20>)
 8006958:	2300      	movs	r3, #0
 800695a:	4604      	mov	r4, r0
 800695c:	4608      	mov	r0, r1
 800695e:	4611      	mov	r1, r2
 8006960:	602b      	str	r3, [r5, #0]
 8006962:	f7fd f84d 	bl	8003a00 <_kill>
 8006966:	1c43      	adds	r3, r0, #1
 8006968:	d102      	bne.n	8006970 <_kill_r+0x1c>
 800696a:	682b      	ldr	r3, [r5, #0]
 800696c:	b103      	cbz	r3, 8006970 <_kill_r+0x1c>
 800696e:	6023      	str	r3, [r4, #0]
 8006970:	bd38      	pop	{r3, r4, r5, pc}
 8006972:	bf00      	nop
 8006974:	20000434 	.word	0x20000434

08006978 <_getpid_r>:
 8006978:	f7fd b840 	b.w	80039fc <_getpid>

0800697c <__swhatbuf_r>:
 800697c:	b570      	push	{r4, r5, r6, lr}
 800697e:	460c      	mov	r4, r1
 8006980:	f9b1 100e 	ldrsh.w	r1, [r1, #14]
 8006984:	2900      	cmp	r1, #0
 8006986:	b096      	sub	sp, #88	@ 0x58
 8006988:	4615      	mov	r5, r2
 800698a:	461e      	mov	r6, r3
 800698c:	da0a      	bge.n	80069a4 <__swhatbuf_r+0x28>
 800698e:	89a1      	ldrh	r1, [r4, #12]
 8006990:	f011 0180 	ands.w	r1, r1, #128	@ 0x80
 8006994:	d113      	bne.n	80069be <__swhatbuf_r+0x42>
 8006996:	f44f 6280 	mov.w	r2, #1024	@ 0x400
 800699a:	2000      	movs	r0, #0
 800699c:	6031      	str	r1, [r6, #0]
 800699e:	602a      	str	r2, [r5, #0]
 80069a0:	b016      	add	sp, #88	@ 0x58
 80069a2:	bd70      	pop	{r4, r5, r6, pc}
 80069a4:	466a      	mov	r2, sp
 80069a6:	f000 f847 	bl	8006a38 <_fstat_r>
 80069aa:	2800      	cmp	r0, #0
 80069ac:	dbef      	blt.n	800698e <__swhatbuf_r+0x12>
 80069ae:	9901      	ldr	r1, [sp, #4]
 80069b0:	f401 4170 	and.w	r1, r1, #61440	@ 0xf000
 80069b4:	f5a1 5300 	sub.w	r3, r1, #8192	@ 0x2000
 80069b8:	4259      	negs	r1, r3
 80069ba:	4159      	adcs	r1, r3
 80069bc:	e7eb      	b.n	8006996 <__swhatbuf_r+0x1a>
 80069be:	2100      	movs	r1, #0
 80069c0:	2240      	movs	r2, #64	@ 0x40
 80069c2:	e7ea      	b.n	800699a <__swhatbuf_r+0x1e>

080069c4 <__smakebuf_r>:
 80069c4:	898b      	ldrh	r3, [r1, #12]
 80069c6:	b573      	push	{r0, r1, r4, r5, r6, lr}
 80069c8:	079e      	lsls	r6, r3, #30
 80069ca:	4605      	mov	r5, r0
 80069cc:	460c      	mov	r4, r1
 80069ce:	d507      	bpl.n	80069e0 <__smakebuf_r+0x1c>
 80069d0:	f104 0347 	add.w	r3, r4, #71	@ 0x47
 80069d4:	6023      	str	r3, [r4, #0]
 80069d6:	6123      	str	r3, [r4, #16]
 80069d8:	2301      	movs	r3, #1
 80069da:	6163      	str	r3, [r4, #20]
 80069dc:	b002      	add	sp, #8
 80069de:	bd70      	pop	{r4, r5, r6, pc}
 80069e0:	ab01      	add	r3, sp, #4
 80069e2:	466a      	mov	r2, sp
 80069e4:	f7ff ffca 	bl	800697c <__swhatbuf_r>
 80069e8:	9e00      	ldr	r6, [sp, #0]
 80069ea:	4628      	mov	r0, r5
 80069ec:	4631      	mov	r1, r6
 80069ee:	f7fe febb 	bl	8005768 <_malloc_r>
 80069f2:	f9b4 300c 	ldrsh.w	r3, [r4, #12]
 80069f6:	b938      	cbnz	r0, 8006a08 <__smakebuf_r+0x44>
 80069f8:	059a      	lsls	r2, r3, #22
 80069fa:	d4ef      	bmi.n	80069dc <__smakebuf_r+0x18>
 80069fc:	f023 0303 	bic.w	r3, r3, #3
 8006a00:	f043 0302 	orr.w	r3, r3, #2
 8006a04:	81a3      	strh	r3, [r4, #12]
 8006a06:	e7e3      	b.n	80069d0 <__smakebuf_r+0xc>
 8006a08:	f043 0380 	orr.w	r3, r3, #128	@ 0x80
 8006a0c:	81a3      	strh	r3, [r4, #12]
 8006a0e:	9b01      	ldr	r3, [sp, #4]
 8006a10:	6020      	str	r0, [r4, #0]
 8006a12:	e9c4 0604 	strd	r0, r6, [r4, #16]
 8006a16:	2b00      	cmp	r3, #0
 8006a18:	d0e0      	beq.n	80069dc <__smakebuf_r+0x18>
 8006a1a:	f9b4 100e 	ldrsh.w	r1, [r4, #14]
 8006a1e:	4628      	mov	r0, r5
 8006a20:	f000 f81c 	bl	8006a5c <_isatty_r>
 8006a24:	2800      	cmp	r0, #0
 8006a26:	d0d9      	beq.n	80069dc <__smakebuf_r+0x18>
 8006a28:	89a3      	ldrh	r3, [r4, #12]
 8006a2a:	f023 0303 	bic.w	r3, r3, #3
 8006a2e:	f043 0301 	orr.w	r3, r3, #1
 8006a32:	81a3      	strh	r3, [r4, #12]
 8006a34:	e7d2      	b.n	80069dc <__smakebuf_r+0x18>
	...

08006a38 <_fstat_r>:
 8006a38:	b538      	push	{r3, r4, r5, lr}
 8006a3a:	4d07      	ldr	r5, [pc, #28]	@ (8006a58 <_fstat_r+0x20>)
 8006a3c:	2300      	movs	r3, #0
 8006a3e:	4604      	mov	r4, r0
 8006a40:	4608      	mov	r0, r1
 8006a42:	4611      	mov	r1, r2
 8006a44:	602b      	str	r3, [r5, #0]
 8006a46:	f7fd f80a 	bl	8003a5e <_fstat>
 8006a4a:	1c43      	adds	r3, r0, #1
 8006a4c:	d102      	bne.n	8006a54 <_fstat_r+0x1c>
 8006a4e:	682b      	ldr	r3, [r5, #0]
 8006a50:	b103      	cbz	r3, 8006a54 <_fstat_r+0x1c>
 8006a52:	6023      	str	r3, [r4, #0]
 8006a54:	bd38      	pop	{r3, r4, r5, pc}
 8006a56:	bf00      	nop
 8006a58:	20000434 	.word	0x20000434

08006a5c <_isatty_r>:
 8006a5c:	b538      	push	{r3, r4, r5, lr}
 8006a5e:	4d06      	ldr	r5, [pc, #24]	@ (8006a78 <_isatty_r+0x1c>)
 8006a60:	2300      	movs	r3, #0
 8006a62:	4604      	mov	r4, r0
 8006a64:	4608      	mov	r0, r1
 8006a66:	602b      	str	r3, [r5, #0]
 8006a68:	f7fc fffe 	bl	8003a68 <_isatty>
 8006a6c:	1c43      	adds	r3, r0, #1
 8006a6e:	d102      	bne.n	8006a76 <_isatty_r+0x1a>
 8006a70:	682b      	ldr	r3, [r5, #0]
 8006a72:	b103      	cbz	r3, 8006a76 <_isatty_r+0x1a>
 8006a74:	6023      	str	r3, [r4, #0]
 8006a76:	bd38      	pop	{r3, r4, r5, pc}
 8006a78:	20000434 	.word	0x20000434

08006a7c <__udivmoddi4>:
 8006a7c:	e92d 47f0 	stmdb	sp!, {r4, r5, r6, r7, r8, r9, sl, lr}
 8006a80:	468c      	mov	ip, r1
 8006a82:	468e      	mov	lr, r1
 8006a84:	9e08      	ldr	r6, [sp, #32]
 8006a86:	4615      	mov	r5, r2
 8006a88:	4604      	mov	r4, r0
 8006a8a:	4619      	mov	r1, r3
 8006a8c:	2b00      	cmp	r3, #0
 8006a8e:	f040 80d0 	bne.w	8006c32 <__udivmoddi4+0x1b6>
 8006a92:	4572      	cmp	r2, lr
 8006a94:	d947      	bls.n	8006b26 <__udivmoddi4+0xaa>
 8006a96:	fab2 f782 	clz	r7, r2
 8006a9a:	b14f      	cbz	r7, 8006ab0 <__udivmoddi4+0x34>
 8006a9c:	f1c7 0320 	rsb	r3, r7, #32
 8006aa0:	fa0e fc07 	lsl.w	ip, lr, r7
 8006aa4:	fa20 f303 	lsr.w	r3, r0, r3
 8006aa8:	40bd      	lsls	r5, r7
 8006aaa:	ea43 0c0c 	orr.w	ip, r3, ip
 8006aae:	40bc      	lsls	r4, r7
 8006ab0:	ea4f 4e15 	mov.w	lr, r5, lsr #16
 8006ab4:	b2a8      	uxth	r0, r5
 8006ab6:	fbbc f8fe 	udiv	r8, ip, lr
 8006aba:	0c23      	lsrs	r3, r4, #16
 8006abc:	fb0e cc18 	mls	ip, lr, r8, ip
 8006ac0:	fb08 f900 	mul.w	r9, r8, r0
 8006ac4:	ea43 430c 	orr.w	r3, r3, ip, lsl #16
 8006ac8:	4599      	cmp	r9, r3
 8006aca:	d928      	bls.n	8006b1e <__udivmoddi4+0xa2>
 8006acc:	18eb      	adds	r3, r5, r3
 8006ace:	f108 32ff 	add.w	r2, r8, #4294967295	@ 0xffffffff
 8006ad2:	d204      	bcs.n	8006ade <__udivmoddi4+0x62>
 8006ad4:	4599      	cmp	r9, r3
 8006ad6:	d902      	bls.n	8006ade <__udivmoddi4+0x62>
 8006ad8:	f1a8 0202 	sub.w	r2, r8, #2
 8006adc:	442b      	add	r3, r5
 8006ade:	eba3 0309 	sub.w	r3, r3, r9
 8006ae2:	b2a4      	uxth	r4, r4
 8006ae4:	fbb3 fcfe 	udiv	ip, r3, lr
 8006ae8:	fb0e 331c 	mls	r3, lr, ip, r3
 8006aec:	fb0c f000 	mul.w	r0, ip, r0
 8006af0:	ea44 4403 	orr.w	r4, r4, r3, lsl #16
 8006af4:	42a0      	cmp	r0, r4
 8006af6:	d914      	bls.n	8006b22 <__udivmoddi4+0xa6>
 8006af8:	192c      	adds	r4, r5, r4
 8006afa:	f10c 33ff 	add.w	r3, ip, #4294967295	@ 0xffffffff
 8006afe:	d204      	bcs.n	8006b0a <__udivmoddi4+0x8e>
 8006b00:	42a0      	cmp	r0, r4
 8006b02:	d902      	bls.n	8006b0a <__udivmoddi4+0x8e>
 8006b04:	f1ac 0302 	sub.w	r3, ip, #2
 8006b08:	442c      	add	r4, r5
 8006b0a:	1a24      	subs	r4, r4, r0
 8006b0c:	ea43 4002 	orr.w	r0, r3, r2, lsl #16
 8006b10:	b11e      	cbz	r6, 8006b1a <__udivmoddi4+0x9e>
 8006b12:	40fc      	lsrs	r4, r7
 8006b14:	2300      	movs	r3, #0
 8006b16:	6034      	str	r4, [r6, #0]
 8006b18:	6073      	str	r3, [r6, #4]
 8006b1a:	e8bd 87f0 	ldmia.w	sp!, {r4, r5, r6, r7, r8, r9, sl, pc}
 8006b1e:	4642      	mov	r2, r8
 8006b20:	e7dd      	b.n	8006ade <__udivmoddi4+0x62>
 8006b22:	4663      	mov	r3, ip
 8006b24:	e7f1      	b.n	8006b0a <__udivmoddi4+0x8e>
 8006b26:	2a00      	cmp	r2, #0
 8006b28:	d079      	beq.n	8006c1e <__udivmoddi4+0x1a2>
 8006b2a:	fab2 f382 	clz	r3, r2
 8006b2e:	2b00      	cmp	r3, #0
 8006b30:	d03f      	beq.n	8006bb2 <__udivmoddi4+0x136>
 8006b32:	4619      	mov	r1, r3
 8006b34:	f1c1 0320 	rsb	r3, r1, #32
 8006b38:	fa02 f501 	lsl.w	r5, r2, r1
 8006b3c:	fa2e f203 	lsr.w	r2, lr, r3
 8006b40:	fa0e fe01 	lsl.w	lr, lr, r1
 8006b44:	fa20 f303 	lsr.w	r3, r0, r3
 8006b48:	ea43 030e 	orr.w	r3, r3, lr
 8006b4c:	ea4f 4e15 	mov.w	lr, r5, lsr #16
 8006b50:	fa00 f401 	lsl.w	r4, r0, r1
 8006b54:	fbb2 fcfe 	udiv	ip, r2, lr
 8006b58:	b2af      	uxth	r7, r5
 8006b5a:	fb0e 201c 	mls	r0, lr, ip, r2
 8006b5e:	0c1a      	lsrs	r2, r3, #16
 8006b60:	fb0c f807 	mul.w	r8, ip, r7
 8006b64:	ea42 4200 	orr.w	r2, r2, r0, lsl #16
 8006b68:	4590      	cmp	r8, r2
 8006b6a:	d95a      	bls.n	8006c22 <__udivmoddi4+0x1a6>
 8006b6c:	18aa      	adds	r2, r5, r2
 8006b6e:	f10c 30ff 	add.w	r0, ip, #4294967295	@ 0xffffffff
 8006b72:	d204      	bcs.n	8006b7e <__udivmoddi4+0x102>
 8006b74:	4590      	cmp	r8, r2
 8006b76:	d902      	bls.n	8006b7e <__udivmoddi4+0x102>
 8006b78:	f1ac 0002 	sub.w	r0, ip, #2
 8006b7c:	442a      	add	r2, r5
 8006b7e:	eba2 0208 	sub.w	r2, r2, r8
 8006b82:	b29b      	uxth	r3, r3
 8006b84:	fbb2 fcfe 	udiv	ip, r2, lr
 8006b88:	fb0e 221c 	mls	r2, lr, ip, r2
 8006b8c:	fb0c f707 	mul.w	r7, ip, r7
 8006b90:	ea43 4302 	orr.w	r3, r3, r2, lsl #16
 8006b94:	429f      	cmp	r7, r3
 8006b96:	d946      	bls.n	8006c26 <__udivmoddi4+0x1aa>
 8006b98:	18eb      	adds	r3, r5, r3
 8006b9a:	f10c 32ff 	add.w	r2, ip, #4294967295	@ 0xffffffff
 8006b9e:	d204      	bcs.n	8006baa <__udivmoddi4+0x12e>
 8006ba0:	429f      	cmp	r7, r3
 8006ba2:	d902      	bls.n	8006baa <__udivmoddi4+0x12e>
 8006ba4:	f1ac 0202 	sub.w	r2, ip, #2
 8006ba8:	442b      	add	r3, r5
 8006baa:	1bdb      	subs	r3, r3, r7
 8006bac:	ea42 4200 	orr.w	r2, r2, r0, lsl #16
 8006bb0:	e002      	b.n	8006bb8 <__udivmoddi4+0x13c>
 8006bb2:	ebae 0302 	sub.w	r3, lr, r2
 8006bb6:	2201      	movs	r2, #1
 8006bb8:	ea4f 4e15 	mov.w	lr, r5, lsr #16
 8006bbc:	b2af      	uxth	r7, r5
 8006bbe:	fbb3 fcfe 	udiv	ip, r3, lr
 8006bc2:	0c20      	lsrs	r0, r4, #16
 8006bc4:	fb0e 331c 	mls	r3, lr, ip, r3
 8006bc8:	fb0c f807 	mul.w	r8, ip, r7
 8006bcc:	ea40 4303 	orr.w	r3, r0, r3, lsl #16
 8006bd0:	4598      	cmp	r8, r3
 8006bd2:	d92a      	bls.n	8006c2a <__udivmoddi4+0x1ae>
 8006bd4:	18eb      	adds	r3, r5, r3
 8006bd6:	f10c 30ff 	add.w	r0, ip, #4294967295	@ 0xffffffff
 8006bda:	d204      	bcs.n	8006be6 <__udivmoddi4+0x16a>
 8006bdc:	4598      	cmp	r8, r3
 8006bde:	d902      	bls.n	8006be6 <__udivmoddi4+0x16a>
 8006be0:	f1ac 0002 	sub.w	r0, ip, #2
 8006be4:	442b      	add	r3, r5
 8006be6:	eba3 0308 	sub.w	r3, r3, r8
 8006bea:	b2a4      	uxth	r4, r4
 8006bec:	fbb3 fcfe 	udiv	ip, r3, lr
 8006bf0:	fb0e 331c 	mls	r3, lr, ip, r3
 8006bf4:	fb0c f707 	mul.w	r7, ip, r7
 8006bf8:	ea44 4403 	orr.w	r4, r4, r3, lsl #16
 8006bfc:	42a7      	cmp	r7, r4
 8006bfe:	d916      	bls.n	8006c2e <__udivmoddi4+0x1b2>
 8006c00:	192c      	adds	r4, r5, r4
 8006c02:	f10c 33ff 	add.w	r3, ip, #4294967295	@ 0xffffffff
 8006c06:	d204      	bcs.n	8006c12 <__udivmoddi4+0x196>
 8006c08:	42a7      	cmp	r7, r4
 8006c0a:	d902      	bls.n	8006c12 <__udivmoddi4+0x196>
 8006c0c:	f1ac 0302 	sub.w	r3, ip, #2
 8006c10:	442c      	add	r4, r5
 8006c12:	1be4      	subs	r4, r4, r7
 8006c14:	ea43 4000 	orr.w	r0, r3, r0, lsl #16
 8006c18:	460f      	mov	r7, r1
 8006c1a:	4611      	mov	r1, r2
 8006c1c:	e778      	b.n	8006b10 <__udivmoddi4+0x94>
 8006c1e:	211f      	movs	r1, #31
 8006c20:	e788      	b.n	8006b34 <__udivmoddi4+0xb8>
 8006c22:	4660      	mov	r0, ip
 8006c24:	e7ab      	b.n	8006b7e <__udivmoddi4+0x102>
 8006c26:	4662      	mov	r2, ip
 8006c28:	e7bf      	b.n	8006baa <__udivmoddi4+0x12e>
 8006c2a:	4660      	mov	r0, ip
 8006c2c:	e7db      	b.n	8006be6 <__udivmoddi4+0x16a>
 8006c2e:	4663      	mov	r3, ip
 8006c30:	e7ef      	b.n	8006c12 <__udivmoddi4+0x196>
 8006c32:	4573      	cmp	r3, lr
 8006c34:	d906      	bls.n	8006c44 <__udivmoddi4+0x1c8>
 8006c36:	b916      	cbnz	r6, 8006c3e <__udivmoddi4+0x1c2>
 8006c38:	2100      	movs	r1, #0
 8006c3a:	4608      	mov	r0, r1
 8006c3c:	e76d      	b.n	8006b1a <__udivmoddi4+0x9e>
 8006c3e:	e9c6 0e00 	strd	r0, lr, [r6]
 8006c42:	e7f9      	b.n	8006c38 <__udivmoddi4+0x1bc>
 8006c44:	fab3 f783 	clz	r7, r3
 8006c48:	b987      	cbnz	r7, 8006c6c <__udivmoddi4+0x1f0>
 8006c4a:	4573      	cmp	r3, lr
 8006c4c:	d301      	bcc.n	8006c52 <__udivmoddi4+0x1d6>
 8006c4e:	4282      	cmp	r2, r0
 8006c50:	d807      	bhi.n	8006c62 <__udivmoddi4+0x1e6>
 8006c52:	1a84      	subs	r4, r0, r2
 8006c54:	eb6e 0303 	sbc.w	r3, lr, r3
 8006c58:	2001      	movs	r0, #1
 8006c5a:	469c      	mov	ip, r3
 8006c5c:	b91e      	cbnz	r6, 8006c66 <__udivmoddi4+0x1ea>
 8006c5e:	2100      	movs	r1, #0
 8006c60:	e75b      	b.n	8006b1a <__udivmoddi4+0x9e>
 8006c62:	4638      	mov	r0, r7
 8006c64:	e7fa      	b.n	8006c5c <__udivmoddi4+0x1e0>
 8006c66:	e9c6 4c00 	strd	r4, ip, [r6]
 8006c6a:	e7f8      	b.n	8006c5e <__udivmoddi4+0x1e2>
 8006c6c:	f1c7 0c20 	rsb	ip, r7, #32
 8006c70:	40bb      	lsls	r3, r7
 8006c72:	fa22 f50c 	lsr.w	r5, r2, ip
 8006c76:	431d      	orrs	r5, r3
 8006c78:	fa20 f10c 	lsr.w	r1, r0, ip
 8006c7c:	fa2e f30c 	lsr.w	r3, lr, ip
 8006c80:	fa0e fe07 	lsl.w	lr, lr, r7
 8006c84:	ea41 010e 	orr.w	r1, r1, lr
 8006c88:	ea4f 4915 	mov.w	r9, r5, lsr #16
 8006c8c:	fa00 f407 	lsl.w	r4, r0, r7
 8006c90:	fbb3 f8f9 	udiv	r8, r3, r9
 8006c94:	fa1f fe85 	uxth.w	lr, r5
 8006c98:	fb09 3018 	mls	r0, r9, r8, r3
 8006c9c:	0c0b      	lsrs	r3, r1, #16
 8006c9e:	fb08 fa0e 	mul.w	sl, r8, lr
 8006ca2:	ea43 4300 	orr.w	r3, r3, r0, lsl #16
 8006ca6:	459a      	cmp	sl, r3
 8006ca8:	fa02 f207 	lsl.w	r2, r2, r7
 8006cac:	d940      	bls.n	8006d30 <__udivmoddi4+0x2b4>
 8006cae:	18eb      	adds	r3, r5, r3
 8006cb0:	f108 30ff 	add.w	r0, r8, #4294967295	@ 0xffffffff
 8006cb4:	d204      	bcs.n	8006cc0 <__udivmoddi4+0x244>
 8006cb6:	459a      	cmp	sl, r3
 8006cb8:	d902      	bls.n	8006cc0 <__udivmoddi4+0x244>
 8006cba:	f1a8 0002 	sub.w	r0, r8, #2
 8006cbe:	442b      	add	r3, r5
 8006cc0:	eba3 030a 	sub.w	r3, r3, sl
 8006cc4:	b289      	uxth	r1, r1
 8006cc6:	fbb3 f8f9 	udiv	r8, r3, r9
 8006cca:	fb09 3318 	mls	r3, r9, r8, r3
 8006cce:	fb08 fe0e 	mul.w	lr, r8, lr
 8006cd2:	ea41 4103 	orr.w	r1, r1, r3, lsl #16
 8006cd6:	458e      	cmp	lr, r1
 8006cd8:	d92c      	bls.n	8006d34 <__udivmoddi4+0x2b8>
 8006cda:	1869      	adds	r1, r5, r1
 8006cdc:	f108 33ff 	add.w	r3, r8, #4294967295	@ 0xffffffff
 8006ce0:	d204      	bcs.n	8006cec <__udivmoddi4+0x270>
 8006ce2:	458e      	cmp	lr, r1
 8006ce4:	d902      	bls.n	8006cec <__udivmoddi4+0x270>
 8006ce6:	f1a8 0302 	sub.w	r3, r8, #2
 8006cea:	4429      	add	r1, r5
 8006cec:	ea43 4000 	orr.w	r0, r3, r0, lsl #16
 8006cf0:	fba0 9802 	umull	r9, r8, r0, r2
 8006cf4:	eba1 010e 	sub.w	r1, r1, lr
 8006cf8:	4541      	cmp	r1, r8
 8006cfa:	46ce      	mov	lr, r9
 8006cfc:	4643      	mov	r3, r8
 8006cfe:	d302      	bcc.n	8006d06 <__udivmoddi4+0x28a>
 8006d00:	d106      	bne.n	8006d10 <__udivmoddi4+0x294>
 8006d02:	454c      	cmp	r4, r9
 8006d04:	d204      	bcs.n	8006d10 <__udivmoddi4+0x294>
 8006d06:	ebb9 0e02 	subs.w	lr, r9, r2
 8006d0a:	eb68 0305 	sbc.w	r3, r8, r5
 8006d0e:	3801      	subs	r0, #1
 8006d10:	2e00      	cmp	r6, #0
 8006d12:	d0a4      	beq.n	8006c5e <__udivmoddi4+0x1e2>
 8006d14:	ebb4 020e 	subs.w	r2, r4, lr
 8006d18:	eb61 0103 	sbc.w	r1, r1, r3
 8006d1c:	fa01 fc0c 	lsl.w	ip, r1, ip
 8006d20:	fa22 f307 	lsr.w	r3, r2, r7
 8006d24:	ea4c 0303 	orr.w	r3, ip, r3
 8006d28:	40f9      	lsrs	r1, r7
 8006d2a:	e9c6 3100 	strd	r3, r1, [r6]
 8006d2e:	e796      	b.n	8006c5e <__udivmoddi4+0x1e2>
 8006d30:	4640      	mov	r0, r8
 8006d32:	e7c5      	b.n	8006cc0 <__udivmoddi4+0x244>
 8006d34:	4643      	mov	r3, r8
 8006d36:	e7d9      	b.n	8006cec <__udivmoddi4+0x270>

08006d38 <_init>:
 8006d38:	b5f8      	push	{r3, r4, r5, r6, r7, lr}
 8006d3a:	bf00      	nop
 8006d3c:	bcf8      	pop	{r3, r4, r5, r6, r7}
 8006d3e:	bc08      	pop	{r3}
 8006d40:	469e      	mov	lr, r3
 8006d42:	4770      	bx	lr

08006d44 <_fini>:
 8006d44:	b5f8      	push	{r3, r4, r5, r6, r7, lr}
 8006d46:	bf00      	nop
 8006d48:	bcf8      	pop	{r3, r4, r5, r6, r7}
 8006d4a:	bc08      	pop	{r3}
 8006d4c:	469e      	mov	lr, r3
 8006d4e:	4770      	bx	lr
