ARM GAS  /tmp/cc1qHkPc.s 			page 1


   1              		.cpu cortex-m4
   2              		.arch armv7e-m
   3              		.fpu fpv4-sp-d16
   4              		.eabi_attribute 27, 1
   5              		.eabi_attribute 28, 1
   6              		.eabi_attribute 20, 1
   7              		.eabi_attribute 21, 1
   8              		.eabi_attribute 23, 3
   9              		.eabi_attribute 24, 1
  10              		.eabi_attribute 25, 1
  11              		.eabi_attribute 26, 1
  12              		.eabi_attribute 30, 1
  13              		.eabi_attribute 34, 1
  14              		.eabi_attribute 18, 4
  15              		.file	"main.c"
  16              		.text
  17              		.section	.text.bmp280_compensate_T_int32,"ax",%progbits
  18              		.align	1
  19              		.global	bmp280_compensate_T_int32
  20              		.syntax unified
  21              		.thumb
  22              		.thumb_func
  24              	bmp280_compensate_T_int32:
  25              		@ args = 0, pretend = 0, frame = 0
  26              		@ frame_needed = 0, uses_anonymous_args = 0
  27              		@ link register save eliminated.
  28 0000 0E4B     		ldr	r3, .L2
  29 0002 1B88     		ldrh	r3, [r3]
  30 0004 5A00     		lsls	r2, r3, #1
  31 0006 C2EBE002 		rsb	r2, r2, r0, asr #3
  32 000a 0D49     		ldr	r1, .L2+4
  33 000c B1F90010 		ldrsh	r1, [r1]
  34 0010 01FB02F2 		mul	r2, r1, r2
  35 0014 C3EB2010 		rsb	r0, r3, r0, asr #4
  36 0018 00FB00F0 		mul	r0, r0, r0
  37 001c 0013     		asrs	r0, r0, #12
  38 001e 094B     		ldr	r3, .L2+8
  39 0020 B3F90030 		ldrsh	r3, [r3]
  40 0024 03FB00F0 		mul	r0, r3, r0
  41 0028 8013     		asrs	r0, r0, #14
  42 002a 00EBE220 		add	r0, r0, r2, asr #11
  43 002e 064B     		ldr	r3, .L2+12
  44 0030 1860     		str	r0, [r3]
  45 0032 00EB8000 		add	r0, r0, r0, lsl #2
  46 0036 8030     		adds	r0, r0, #128
  47 0038 0012     		asrs	r0, r0, #8
  48 003a 7047     		bx	lr
  49              	.L3:
  50              		.align	2
  51              	.L2:
  52 003c 00000000 		.word	dig_T1
  53 0040 00000000 		.word	dig_T2
  54 0044 00000000 		.word	dig_T3
  55 0048 00000000 		.word	t_fine
  57              		.section	.text.bmp280_compensate_P_int64,"ax",%progbits
  58              		.align	1
  59              		.global	bmp280_compensate_P_int64
ARM GAS  /tmp/cc1qHkPc.s 			page 2


  60              		.syntax unified
  61              		.thumb
  62              		.thumb_func
  64              	bmp280_compensate_P_int64:
  65              		@ args = 0, pretend = 0, frame = 0
  66              		@ frame_needed = 0, uses_anonymous_args = 0
  67 0000 F8B5     		push	{r3, r4, r5, r6, r7, lr}
  68 0002 664B     		ldr	r3, .L8
  69 0004 1968     		ldr	r1, [r3]
  70 0006 CB17     		asrs	r3, r1, #31
  71 0008 B1F5FA31 		subs	r1, r1, #128000
  72 000c 43F1FF33 		adc	r3, r3, #-1
  73 0010 01FB03F4 		mul	r4, r1, r3
  74 0014 A1FB0126 		umull	r2, r6, r1, r1
  75 0018 06EB4406 		add	r6, r6, r4, lsl #1
  76 001c 604C     		ldr	r4, .L8+4
  77 001e B4F90050 		ldrsh	r5, [r4]
  78 0022 EC17     		asrs	r4, r5, #31
  79 0024 02FB04F4 		mul	r4, r2, r4
  80 0028 05FB0644 		mla	r4, r5, r6, r4
  81 002c A2FB0575 		umull	r7, r5, r2, r5
  82 0030 2C44     		add	r4, r4, r5
  83 0032 5C4D     		ldr	r5, .L8+8
  84 0034 B5F900C0 		ldrsh	ip, [r5]
  85 0038 4FEAEC75 		asr	r5, ip, #31
  86 003c 0CFB03FE 		mul	lr, ip, r3
  87 0040 01FB05EE 		mla	lr, r1, r5, lr
  88 0044 ACFB01C5 		umull	ip, r5, ip, r1
  89 0048 AE44     		add	lr, lr, r5
  90 004a 4FEA4E4E 		lsl	lr, lr, #17
  91 004e 4EEADC3E 		orr	lr, lr, ip, lsr #15
  92 0052 4FEA4C4C 		lsl	ip, ip, #17
  93 0056 1CEB070C 		adds	ip, ip, r7
  94 005a 44EB0E04 		adc	r4, r4, lr
  95 005e 524D     		ldr	r5, .L8+12
  96 0060 B5F90050 		ldrsh	r5, [r5]
  97 0064 04EBC504 		add	r4, r4, r5, lsl #3
  98 0068 504D     		ldr	r5, .L8+16
  99 006a B5F900E0 		ldrsh	lr, [r5]
 100 006e 4FEAEE75 		asr	r5, lr, #31
 101 0072 02FB05F5 		mul	r5, r2, r5
 102 0076 0EFB0655 		mla	r5, lr, r6, r5
 103 007a A2FB0E2E 		umull	r2, lr, r2, lr
 104 007e 7544     		add	r5, r5, lr
 105 0080 120A     		lsrs	r2, r2, #8
 106 0082 42EA0562 		orr	r2, r2, r5, lsl #24
 107 0086 4A4E     		ldr	r6, .L8+20
 108 0088 B6F900E0 		ldrsh	lr, [r6]
 109 008c 4FEAEE76 		asr	r6, lr, #31
 110 0090 0EFB03F3 		mul	r3, lr, r3
 111 0094 01FB0633 		mla	r3, r1, r6, r3
 112 0098 AEFB01E1 		umull	lr, r1, lr, r1
 113 009c 0B44     		add	r3, r3, r1
 114 009e 1B03     		lsls	r3, r3, #12
 115 00a0 43EA1E53 		orr	r3, r3, lr, lsr #20
 116 00a4 4FEA0E3E 		lsl	lr, lr, #12
 117 00a8 12EB0E02 		adds	r2, r2, lr
ARM GAS  /tmp/cc1qHkPc.s 			page 3


 118 00ac 43EB2523 		adc	r3, r3, r5, asr #8
 119 00b0 03F50043 		add	r3, r3, #32768
 120 00b4 3F49     		ldr	r1, .L8+24
 121 00b6 0D88     		ldrh	r5, [r1]
 122 00b8 A2FB0521 		umull	r2, r1, r2, r5
 123 00bc 05FB0311 		mla	r1, r5, r3, r1
 124 00c0 4A10     		asrs	r2, r1, #1
 125 00c2 CB17     		asrs	r3, r1, #31
 126 00c4 53EA6101 		orrs	r1, r3, r1, asr #1
 127 00c8 65D0     		beq	.L6
 128 00ca C0F5801E 		rsb	lr, r0, #1048576
 129 00ce 4FEA6E01 		asr	r1, lr, #1
 130 00d2 4FEACE7E 		lsl	lr, lr, #31
 131 00d6 BEEB0C0E 		subs	lr, lr, ip
 132 00da 61EB0404 		sbc	r4, r1, r4
 133 00de 1EEB0E0C 		adds	ip, lr, lr
 134 00e2 44EB0401 		adc	r1, r4, r4
 135 00e6 1CEB0E0C 		adds	ip, ip, lr
 136 00ea 44EB0101 		adc	r1, r4, r1
 137 00ee 8801     		lsls	r0, r1, #6
 138 00f0 40EA9C60 		orr	r0, r0, ip, lsr #26
 139 00f4 4FEA8C15 		lsl	r5, ip, #6
 140 00f8 1CEB050C 		adds	ip, ip, r5
 141 00fc 41EB0001 		adc	r1, r1, r0
 142 0100 8900     		lsls	r1, r1, #2
 143 0102 41EA9C71 		orr	r1, r1, ip, lsr #30
 144 0106 4FEA8C0C 		lsl	ip, ip, #2
 145 010a 1CEB0E0C 		adds	ip, ip, lr
 146 010e 44EB0101 		adc	r1, r4, r1
 147 0112 8900     		lsls	r1, r1, #2
 148 0114 41EA9C71 		orr	r1, r1, ip, lsr #30
 149 0118 4FEA8C00 		lsl	r0, ip, #2
 150 011c 10EB0E00 		adds	r0, r0, lr
 151 0120 44EB0101 		adc	r1, r4, r1
 152 0124 FFF7FEFF 		bl	__aeabi_ldivmod
 153 0128 0346     		mov	r3, r0
 154 012a 234A     		ldr	r2, .L8+28
 155 012c B2F90050 		ldrsh	r5, [r2]
 156 0130 EF17     		asrs	r7, r5, #31
 157 0132 420B     		lsrs	r2, r0, #13
 158 0134 42EAC142 		orr	r2, r2, r1, lsl #19
 159 0138 4E13     		asrs	r6, r1, #13
 160 013a 05FB06F4 		mul	r4, r5, r6
 161 013e 02FB0744 		mla	r4, r2, r7, r4
 162 0142 A5FB0257 		umull	r5, r7, r5, r2
 163 0146 3C44     		add	r4, r4, r7
 164 0148 02FB04F4 		mul	r4, r2, r4
 165 014c 05FB0644 		mla	r4, r5, r6, r4
 166 0150 A2FB0525 		umull	r2, r5, r2, r5
 167 0154 2C44     		add	r4, r4, r5
 168 0156 520E     		lsrs	r2, r2, #25
 169 0158 42EAC412 		orr	r2, r2, r4, lsl #7
 170 015c 174D     		ldr	r5, .L8+32
 171 015e B5F90050 		ldrsh	r5, [r5]
 172 0162 EF17     		asrs	r7, r5, #31
 173 0164 05FB01F6 		mul	r6, r5, r1
 174 0168 07FB0060 		mla	r0, r7, r0, r6
ARM GAS  /tmp/cc1qHkPc.s 			page 4


 175 016c A5FB0356 		umull	r5, r6, r5, r3
 176 0170 3044     		add	r0, r0, r6
 177 0172 ED0C     		lsrs	r5, r5, #19
 178 0174 45EA4035 		orr	r5, r5, r0, lsl #13
 179 0178 9B18     		adds	r3, r3, r2
 180 017a 41EB6461 		adc	r1, r1, r4, asr #25
 181 017e 5B19     		adds	r3, r3, r5
 182 0180 41EBE041 		adc	r1, r1, r0, asr #19
 183 0184 180A     		lsrs	r0, r3, #8
 184 0186 40EA0160 		orr	r0, r0, r1, lsl #24
 185 018a 0D4B     		ldr	r3, .L8+36
 186 018c B3F90030 		ldrsh	r3, [r3]
 187 0190 00EB0310 		add	r0, r0, r3, lsl #4
 188              	.L4:
 189 0194 F8BD     		pop	{r3, r4, r5, r6, r7, pc}
 190              	.L6:
 191 0196 0020     		movs	r0, #0
 192 0198 FCE7     		b	.L4
 193              	.L9:
 194 019a 00BF     		.align	2
 195              	.L8:
 196 019c 00000000 		.word	t_fine
 197 01a0 00000000 		.word	dig_P6
 198 01a4 00000000 		.word	dig_P5
 199 01a8 00000000 		.word	dig_P4
 200 01ac 00000000 		.word	dig_P3
 201 01b0 00000000 		.word	dig_P2
 202 01b4 00000000 		.word	dig_P1
 203 01b8 00000000 		.word	dig_P9
 204 01bc 00000000 		.word	dig_P8
 205 01c0 00000000 		.word	dig_P7
 207              		.section	.rodata.Read_Dig_Variables.str1.4,"aMS",%progbits,1
 208              		.align	2
 209              	.LC0:
 210 0000 6469675F 		.ascii	"dig_T1\000"
 210      543100
 211 0007 00       		.align	2
 212              	.LC1:
 213 0008 6469675F 		.ascii	"dig_T2\000"
 213      543200
 214 000f 00       		.align	2
 215              	.LC2:
 216 0010 6469675F 		.ascii	"dig_T3\000"
 216      543300
 217 0017 00       		.align	2
 218              	.LC3:
 219 0018 6469675F 		.ascii	"dig_P1\000"
 219      503100
 220 001f 00       		.align	2
 221              	.LC4:
 222 0020 6469675F 		.ascii	"dig_P2\000"
 222      503200
 223 0027 00       		.align	2
 224              	.LC5:
 225 0028 6469675F 		.ascii	"dig_P3\000"
 225      503300
 226 002f 00       		.align	2
ARM GAS  /tmp/cc1qHkPc.s 			page 5


 227              	.LC6:
 228 0030 6469675F 		.ascii	"dig_P4\000"
 228      503400
 229 0037 00       		.align	2
 230              	.LC7:
 231 0038 6469675F 		.ascii	"dig_P5\000"
 231      503500
 232 003f 00       		.align	2
 233              	.LC8:
 234 0040 6469675F 		.ascii	"dig_P6\000"
 234      503600
 235 0047 00       		.align	2
 236              	.LC9:
 237 0048 6469675F 		.ascii	"dig_P7\000"
 237      503700
 238 004f 00       		.align	2
 239              	.LC10:
 240 0050 6469675F 		.ascii	"dig_P8\000"
 240      503800
 241 0057 00       		.align	2
 242              	.LC11:
 243 0058 6469675F 		.ascii	"dig_P9\000"
 243      503900
 244              		.section	.text.Read_Dig_Variables,"ax",%progbits
 245              		.align	1
 246              		.global	Read_Dig_Variables
 247              		.syntax unified
 248              		.thumb
 249              		.thumb_func
 251              	Read_Dig_Variables:
 252              		@ args = 0, pretend = 0, frame = 0
 253              		@ frame_needed = 0, uses_anonymous_args = 0
 254 0000 70B5     		push	{r4, r5, r6, lr}
 255 0002 84B0     		sub	sp, sp, #16
 256 0004 504C     		ldr	r4, .L12
 257 0006 FF26     		movs	r6, #255
 258 0008 0296     		str	r6, [sp, #8]
 259 000a 0225     		movs	r5, #2
 260 000c 0195     		str	r5, [sp, #4]
 261 000e 4F4B     		ldr	r3, .L12+4
 262 0010 0093     		str	r3, [sp]
 263 0012 0123     		movs	r3, #1
 264 0014 8822     		movs	r2, #136
 265 0016 EC21     		movs	r1, #236
 266 0018 2046     		mov	r0, r4
 267 001a FFF7FEFF 		bl	HAL_I2C_Mem_Read
 268 001e 4C49     		ldr	r1, .L12+8
 269 0020 FFF7FEFF 		bl	send_reg_log
 270 0024 0296     		str	r6, [sp, #8]
 271 0026 0195     		str	r5, [sp, #4]
 272 0028 4A4B     		ldr	r3, .L12+12
 273 002a 0093     		str	r3, [sp]
 274 002c 0123     		movs	r3, #1
 275 002e 8A22     		movs	r2, #138
 276 0030 EC21     		movs	r1, #236
 277 0032 2046     		mov	r0, r4
 278 0034 FFF7FEFF 		bl	HAL_I2C_Mem_Read
ARM GAS  /tmp/cc1qHkPc.s 			page 6


 279 0038 4749     		ldr	r1, .L12+16
 280 003a FFF7FEFF 		bl	send_reg_log
 281 003e 0296     		str	r6, [sp, #8]
 282 0040 0195     		str	r5, [sp, #4]
 283 0042 464B     		ldr	r3, .L12+20
 284 0044 0093     		str	r3, [sp]
 285 0046 0123     		movs	r3, #1
 286 0048 8C22     		movs	r2, #140
 287 004a EC21     		movs	r1, #236
 288 004c 2046     		mov	r0, r4
 289 004e FFF7FEFF 		bl	HAL_I2C_Mem_Read
 290 0052 4349     		ldr	r1, .L12+24
 291 0054 FFF7FEFF 		bl	send_reg_log
 292 0058 0296     		str	r6, [sp, #8]
 293 005a 0195     		str	r5, [sp, #4]
 294 005c 414B     		ldr	r3, .L12+28
 295 005e 0093     		str	r3, [sp]
 296 0060 0123     		movs	r3, #1
 297 0062 8E22     		movs	r2, #142
 298 0064 EC21     		movs	r1, #236
 299 0066 2046     		mov	r0, r4
 300 0068 FFF7FEFF 		bl	HAL_I2C_Mem_Read
 301 006c 3E49     		ldr	r1, .L12+32
 302 006e FFF7FEFF 		bl	send_reg_log
 303 0072 0296     		str	r6, [sp, #8]
 304 0074 0195     		str	r5, [sp, #4]
 305 0076 3D4B     		ldr	r3, .L12+36
 306 0078 0093     		str	r3, [sp]
 307 007a 0123     		movs	r3, #1
 308 007c 9022     		movs	r2, #144
 309 007e EC21     		movs	r1, #236
 310 0080 2046     		mov	r0, r4
 311 0082 FFF7FEFF 		bl	HAL_I2C_Mem_Read
 312 0086 3A49     		ldr	r1, .L12+40
 313 0088 FFF7FEFF 		bl	send_reg_log
 314 008c 0296     		str	r6, [sp, #8]
 315 008e 0195     		str	r5, [sp, #4]
 316 0090 384B     		ldr	r3, .L12+44
 317 0092 0093     		str	r3, [sp]
 318 0094 0123     		movs	r3, #1
 319 0096 9222     		movs	r2, #146
 320 0098 EC21     		movs	r1, #236
 321 009a 2046     		mov	r0, r4
 322 009c FFF7FEFF 		bl	HAL_I2C_Mem_Read
 323 00a0 3549     		ldr	r1, .L12+48
 324 00a2 FFF7FEFF 		bl	send_reg_log
 325 00a6 0296     		str	r6, [sp, #8]
 326 00a8 0195     		str	r5, [sp, #4]
 327 00aa 344B     		ldr	r3, .L12+52
 328 00ac 0093     		str	r3, [sp]
 329 00ae 0123     		movs	r3, #1
 330 00b0 9422     		movs	r2, #148
 331 00b2 EC21     		movs	r1, #236
 332 00b4 2046     		mov	r0, r4
 333 00b6 FFF7FEFF 		bl	HAL_I2C_Mem_Read
 334 00ba 3149     		ldr	r1, .L12+56
 335 00bc FFF7FEFF 		bl	send_reg_log
ARM GAS  /tmp/cc1qHkPc.s 			page 7


 336 00c0 0296     		str	r6, [sp, #8]
 337 00c2 0195     		str	r5, [sp, #4]
 338 00c4 2F4B     		ldr	r3, .L12+60
 339 00c6 0093     		str	r3, [sp]
 340 00c8 0123     		movs	r3, #1
 341 00ca 9622     		movs	r2, #150
 342 00cc EC21     		movs	r1, #236
 343 00ce 2046     		mov	r0, r4
 344 00d0 FFF7FEFF 		bl	HAL_I2C_Mem_Read
 345 00d4 2C49     		ldr	r1, .L12+64
 346 00d6 FFF7FEFF 		bl	send_reg_log
 347 00da 0296     		str	r6, [sp, #8]
 348 00dc 0195     		str	r5, [sp, #4]
 349 00de 2B4B     		ldr	r3, .L12+68
 350 00e0 0093     		str	r3, [sp]
 351 00e2 0123     		movs	r3, #1
 352 00e4 9822     		movs	r2, #152
 353 00e6 EC21     		movs	r1, #236
 354 00e8 2046     		mov	r0, r4
 355 00ea FFF7FEFF 		bl	HAL_I2C_Mem_Read
 356 00ee 2849     		ldr	r1, .L12+72
 357 00f0 FFF7FEFF 		bl	send_reg_log
 358 00f4 0296     		str	r6, [sp, #8]
 359 00f6 0195     		str	r5, [sp, #4]
 360 00f8 264B     		ldr	r3, .L12+76
 361 00fa 0093     		str	r3, [sp]
 362 00fc 0123     		movs	r3, #1
 363 00fe 9A22     		movs	r2, #154
 364 0100 EC21     		movs	r1, #236
 365 0102 2046     		mov	r0, r4
 366 0104 FFF7FEFF 		bl	HAL_I2C_Mem_Read
 367 0108 2349     		ldr	r1, .L12+80
 368 010a FFF7FEFF 		bl	send_reg_log
 369 010e 0296     		str	r6, [sp, #8]
 370 0110 0195     		str	r5, [sp, #4]
 371 0112 224B     		ldr	r3, .L12+84
 372 0114 0093     		str	r3, [sp]
 373 0116 0123     		movs	r3, #1
 374 0118 9C22     		movs	r2, #156
 375 011a EC21     		movs	r1, #236
 376 011c 2046     		mov	r0, r4
 377 011e FFF7FEFF 		bl	HAL_I2C_Mem_Read
 378 0122 1F49     		ldr	r1, .L12+88
 379 0124 FFF7FEFF 		bl	send_reg_log
 380 0128 0296     		str	r6, [sp, #8]
 381 012a 0195     		str	r5, [sp, #4]
 382 012c 1D4B     		ldr	r3, .L12+92
 383 012e 0093     		str	r3, [sp]
 384 0130 0123     		movs	r3, #1
 385 0132 9E22     		movs	r2, #158
 386 0134 EC21     		movs	r1, #236
 387 0136 2046     		mov	r0, r4
 388 0138 FFF7FEFF 		bl	HAL_I2C_Mem_Read
 389 013c 1A49     		ldr	r1, .L12+96
 390 013e FFF7FEFF 		bl	send_reg_log
 391 0142 04B0     		add	sp, sp, #16
 392              		@ sp needed
ARM GAS  /tmp/cc1qHkPc.s 			page 8


 393 0144 70BD     		pop	{r4, r5, r6, pc}
 394              	.L13:
 395 0146 00BF     		.align	2
 396              	.L12:
 397 0148 00000000 		.word	hi2c1
 398 014c 00000000 		.word	dig_T1
 399 0150 00000000 		.word	.LC0
 400 0154 00000000 		.word	dig_T2
 401 0158 08000000 		.word	.LC1
 402 015c 00000000 		.word	dig_T3
 403 0160 10000000 		.word	.LC2
 404 0164 00000000 		.word	dig_P1
 405 0168 18000000 		.word	.LC3
 406 016c 00000000 		.word	dig_P2
 407 0170 20000000 		.word	.LC4
 408 0174 00000000 		.word	dig_P3
 409 0178 28000000 		.word	.LC5
 410 017c 00000000 		.word	dig_P4
 411 0180 30000000 		.word	.LC6
 412 0184 00000000 		.word	dig_P5
 413 0188 38000000 		.word	.LC7
 414 018c 00000000 		.word	dig_P6
 415 0190 40000000 		.word	.LC8
 416 0194 00000000 		.word	dig_P7
 417 0198 48000000 		.word	.LC9
 418 019c 00000000 		.word	dig_P8
 419 01a0 50000000 		.word	.LC10
 420 01a4 00000000 		.word	dig_P9
 421 01a8 58000000 		.word	.LC11
 423              		.section	.rodata.Read_Acc.str1.4,"aMS",%progbits,1
 424              		.align	2
 425              	.LC12:
 426 0000 4F555458 		.ascii	"OUTX_L_XL\000"
 426      5F4C5F58 
 426      4C00
 427 000a 0000     		.align	2
 428              	.LC13:
 429 000c 4F555458 		.ascii	"OUTX_H_XL\000"
 429      5F485F58 
 429      4C00
 430 0016 0000     		.align	2
 431              	.LC14:
 432 0018 4F555459 		.ascii	"OUTY_L_XL\000"
 432      5F4C5F58 
 432      4C00
 433 0022 0000     		.align	2
 434              	.LC15:
 435 0024 4F555459 		.ascii	"OUTY_H_XL\000"
 435      5F485F58 
 435      4C00
 436 002e 0000     		.align	2
 437              	.LC16:
 438 0030 4F55545A 		.ascii	"OUTZ_L_XL\000"
 438      5F4C5F58 
 438      4C00
 439 003a 0000     		.align	2
 440              	.LC17:
ARM GAS  /tmp/cc1qHkPc.s 			page 9


 441 003c 4F55545A 		.ascii	"OUTZ_H_XL\000"
 441      5F485F58 
 441      4C00
 442              		.section	.text.Read_Acc,"ax",%progbits
 443              		.align	1
 444              		.global	Read_Acc
 445              		.syntax unified
 446              		.thumb
 447              		.thumb_func
 449              	Read_Acc:
 450              		@ args = 0, pretend = 0, frame = 16
 451              		@ frame_needed = 0, uses_anonymous_args = 0
 452 0000 2DE9F04F 		push	{r4, r5, r6, r7, r8, r9, r10, fp, lr}
 453 0004 89B0     		sub	sp, sp, #36
 454 0006 8046     		mov	r8, r0
 455 0008 5D4E     		ldr	r6, .L16+16
 456 000a FF27     		movs	r7, #255
 457 000c 0297     		str	r7, [sp, #8]
 458 000e 0124     		movs	r4, #1
 459 0010 0194     		str	r4, [sp, #4]
 460 0012 0DF11C0B 		add	fp, sp, #28
 461 0016 CDF800B0 		str	fp, [sp]
 462 001a 2346     		mov	r3, r4
 463 001c 2822     		movs	r2, #40
 464 001e D421     		movs	r1, #212
 465 0020 3046     		mov	r0, r6
 466 0022 FFF7FEFF 		bl	HAL_I2C_Mem_Read
 467 0026 5749     		ldr	r1, .L16+20
 468 0028 FFF7FEFF 		bl	send_reg_log
 469 002c 0297     		str	r7, [sp, #8]
 470 002e 0194     		str	r4, [sp, #4]
 471 0030 0DF11D0A 		add	r10, sp, #29
 472 0034 CDF800A0 		str	r10, [sp]
 473 0038 2346     		mov	r3, r4
 474 003a 2922     		movs	r2, #41
 475 003c D421     		movs	r1, #212
 476 003e 3046     		mov	r0, r6
 477 0040 FFF7FEFF 		bl	HAL_I2C_Mem_Read
 478 0044 5049     		ldr	r1, .L16+24
 479 0046 FFF7FEFF 		bl	send_reg_log
 480 004a BDF81E50 		ldrh	r5, [sp, #30]
 481 004e 2D02     		lsls	r5, r5, #8
 482 0050 2DB2     		sxth	r5, r5
 483 0052 BDF91C30 		ldrsh	r3, [sp, #28]
 484 0056 1D43     		orrs	r5, r5, r3
 485 0058 4FF00009 		mov	r9, #0
 486 005c ADF81E90 		strh	r9, [sp, #30]	@ movhi
 487 0060 ADF81C90 		strh	r9, [sp, #28]	@ movhi
 488 0064 0297     		str	r7, [sp, #8]
 489 0066 0194     		str	r4, [sp, #4]
 490 0068 CDF800B0 		str	fp, [sp]
 491 006c 2346     		mov	r3, r4
 492 006e 2A22     		movs	r2, #42
 493 0070 D421     		movs	r1, #212
 494 0072 3046     		mov	r0, r6
 495 0074 FFF7FEFF 		bl	HAL_I2C_Mem_Read
 496 0078 4449     		ldr	r1, .L16+28
ARM GAS  /tmp/cc1qHkPc.s 			page 10


 497 007a FFF7FEFF 		bl	send_reg_log
 498 007e 0297     		str	r7, [sp, #8]
 499 0080 0194     		str	r4, [sp, #4]
 500 0082 CDF800A0 		str	r10, [sp]
 501 0086 2346     		mov	r3, r4
 502 0088 2B22     		movs	r2, #43
 503 008a D421     		movs	r1, #212
 504 008c 3046     		mov	r0, r6
 505 008e FFF7FEFF 		bl	HAL_I2C_Mem_Read
 506 0092 3F49     		ldr	r1, .L16+32
 507 0094 FFF7FEFF 		bl	send_reg_log
 508 0098 BDF81E30 		ldrh	r3, [sp, #30]
 509 009c 1B02     		lsls	r3, r3, #8
 510 009e 1BB2     		sxth	r3, r3
 511 00a0 BDF91C20 		ldrsh	r2, [sp, #28]
 512 00a4 1343     		orrs	r3, r3, r2
 513 00a6 0593     		str	r3, [sp, #20]
 514 00a8 ADF81E90 		strh	r9, [sp, #30]	@ movhi
 515 00ac ADF81C90 		strh	r9, [sp, #28]	@ movhi
 516 00b0 0297     		str	r7, [sp, #8]
 517 00b2 0194     		str	r4, [sp, #4]
 518 00b4 CDF800B0 		str	fp, [sp]
 519 00b8 2346     		mov	r3, r4
 520 00ba 2C22     		movs	r2, #44
 521 00bc D421     		movs	r1, #212
 522 00be 3046     		mov	r0, r6
 523 00c0 FFF7FEFF 		bl	HAL_I2C_Mem_Read
 524 00c4 3349     		ldr	r1, .L16+36
 525 00c6 FFF7FEFF 		bl	send_reg_log
 526 00ca 0297     		str	r7, [sp, #8]
 527 00cc 0194     		str	r4, [sp, #4]
 528 00ce CDF800A0 		str	r10, [sp]
 529 00d2 2346     		mov	r3, r4
 530 00d4 2D22     		movs	r2, #45
 531 00d6 D421     		movs	r1, #212
 532 00d8 3046     		mov	r0, r6
 533 00da FFF7FEFF 		bl	HAL_I2C_Mem_Read
 534 00de 2E49     		ldr	r1, .L16+40
 535 00e0 FFF7FEFF 		bl	send_reg_log
 536 00e4 BDF81E40 		ldrh	r4, [sp, #30]
 537 00e8 2402     		lsls	r4, r4, #8
 538 00ea 24B2     		sxth	r4, r4
 539 00ec BDF91C30 		ldrsh	r3, [sp, #28]
 540 00f0 1C43     		orrs	r4, r4, r3
 541 00f2 2846     		mov	r0, r5
 542 00f4 FFF7FEFF 		bl	__aeabi_i2d
 543 00f8 1DA3     		adr	r3, .L16
 544 00fa D3E90023 		ldrd	r2, [r3]
 545 00fe FFF7FEFF 		bl	__aeabi_dmul
 546 0102 0022     		movs	r2, #0
 547 0104 254B     		ldr	r3, .L16+44
 548 0106 FFF7FEFF 		bl	__aeabi_ddiv
 549 010a 1BA3     		adr	r3, .L16+8
 550 010c D3E90023 		ldrd	r2, [r3]
 551 0110 FFF7FEFF 		bl	__aeabi_dmul
 552 0114 C8E90001 		strd	r0, [r8]
 553 0118 0598     		ldr	r0, [sp, #20]
ARM GAS  /tmp/cc1qHkPc.s 			page 11


 554 011a FFF7FEFF 		bl	__aeabi_i2d
 555 011e 14A3     		adr	r3, .L16
 556 0120 D3E90023 		ldrd	r2, [r3]
 557 0124 FFF7FEFF 		bl	__aeabi_dmul
 558 0128 0022     		movs	r2, #0
 559 012a 1C4B     		ldr	r3, .L16+44
 560 012c FFF7FEFF 		bl	__aeabi_ddiv
 561 0130 11A3     		adr	r3, .L16+8
 562 0132 D3E90023 		ldrd	r2, [r3]
 563 0136 FFF7FEFF 		bl	__aeabi_dmul
 564 013a C8E90201 		strd	r0, [r8, #8]
 565 013e 2046     		mov	r0, r4
 566 0140 FFF7FEFF 		bl	__aeabi_i2d
 567 0144 0AA3     		adr	r3, .L16
 568 0146 D3E90023 		ldrd	r2, [r3]
 569 014a FFF7FEFF 		bl	__aeabi_dmul
 570 014e 0022     		movs	r2, #0
 571 0150 124B     		ldr	r3, .L16+44
 572 0152 FFF7FEFF 		bl	__aeabi_ddiv
 573 0156 08A3     		adr	r3, .L16+8
 574 0158 D3E90023 		ldrd	r2, [r3]
 575 015c FFF7FEFF 		bl	__aeabi_dmul
 576 0160 C8E90401 		strd	r0, [r8, #16]
 577 0164 09B0     		add	sp, sp, #36
 578              		@ sp needed
 579 0166 BDE8F08F 		pop	{r4, r5, r6, r7, r8, r9, r10, fp, pc}
 580              	.L17:
 581 016a 00BFAFF3 		.align	3
 581      0080
 582              	.L16:
 583 0170 08AC1C5A 		.word	1511828488
 584 0174 643BDF3F 		.word	1071594340
 585 0178 1F85EB51 		.word	1374389535
 586 017c B89E2340 		.word	1076076216
 587 0180 00000000 		.word	hi2c1
 588 0184 00000000 		.word	.LC12
 589 0188 0C000000 		.word	.LC13
 590 018c 18000000 		.word	.LC14
 591 0190 24000000 		.word	.LC15
 592 0194 30000000 		.word	.LC16
 593 0198 3C000000 		.word	.LC17
 594 019c 00408F40 		.word	1083129856
 596              		.section	.text.Error_Handler,"ax",%progbits
 597              		.align	1
 598              		.global	Error_Handler
 599              		.syntax unified
 600              		.thumb
 601              		.thumb_func
 603              	Error_Handler:
 604              		@ Volatile: function does not return.
 605              		@ args = 0, pretend = 0, frame = 0
 606              		@ frame_needed = 0, uses_anonymous_args = 0
 607              		@ link register save eliminated.
 608              		.syntax unified
 609              	@ 962 "Drivers/CMSIS/Include/cmsis_gcc.h" 1
 610 0000 72B6     		cpsid i
 611              	@ 0 "" 2
ARM GAS  /tmp/cc1qHkPc.s 			page 12


 612              		.thumb
 613              		.syntax unified
 614              	.L19:
 615 0002 FEE7     		b	.L19
 617              		.section	.text.SystemClock_Config,"ax",%progbits
 618              		.align	1
 619              		.global	SystemClock_Config
 620              		.syntax unified
 621              		.thumb
 622              		.thumb_func
 624              	SystemClock_Config:
 625              		@ args = 0, pretend = 0, frame = 80
 626              		@ frame_needed = 0, uses_anonymous_args = 0
 627 0000 10B5     		push	{r4, lr}
 628 0002 94B0     		sub	sp, sp, #80
 629 0004 08AC     		add	r4, sp, #32
 630 0006 3022     		movs	r2, #48
 631 0008 0021     		movs	r1, #0
 632 000a 2046     		mov	r0, r4
 633 000c FFF7FEFF 		bl	memset
 634 0010 0023     		movs	r3, #0
 635 0012 0393     		str	r3, [sp, #12]
 636 0014 0493     		str	r3, [sp, #16]
 637 0016 0593     		str	r3, [sp, #20]
 638 0018 0693     		str	r3, [sp, #24]
 639 001a 0793     		str	r3, [sp, #28]
 640 001c 0193     		str	r3, [sp, #4]
 641 001e 1E4A     		ldr	r2, .L26
 642 0020 116C     		ldr	r1, [r2, #64]
 643 0022 41F08051 		orr	r1, r1, #268435456
 644 0026 1164     		str	r1, [r2, #64]
 645 0028 126C     		ldr	r2, [r2, #64]
 646 002a 02F08052 		and	r2, r2, #268435456
 647 002e 0192     		str	r2, [sp, #4]
 648 0030 019A     		ldr	r2, [sp, #4]
 649 0032 0293     		str	r3, [sp, #8]
 650 0034 194A     		ldr	r2, .L26+4
 651 0036 1168     		ldr	r1, [r2]
 652 0038 41F44041 		orr	r1, r1, #49152
 653 003c 1160     		str	r1, [r2]
 654 003e 1268     		ldr	r2, [r2]
 655 0040 02F44042 		and	r2, r2, #49152
 656 0044 0292     		str	r2, [sp, #8]
 657 0046 029A     		ldr	r2, [sp, #8]
 658 0048 0222     		movs	r2, #2
 659 004a 0892     		str	r2, [sp, #32]
 660 004c 0121     		movs	r1, #1
 661 004e 0B91     		str	r1, [sp, #44]
 662 0050 1021     		movs	r1, #16
 663 0052 0C91     		str	r1, [sp, #48]
 664 0054 0E92     		str	r2, [sp, #56]
 665 0056 0F93     		str	r3, [sp, #60]
 666 0058 0823     		movs	r3, #8
 667 005a 1093     		str	r3, [sp, #64]
 668 005c 6423     		movs	r3, #100
 669 005e 1193     		str	r3, [sp, #68]
 670 0060 1292     		str	r2, [sp, #72]
ARM GAS  /tmp/cc1qHkPc.s 			page 13


 671 0062 0423     		movs	r3, #4
 672 0064 1393     		str	r3, [sp, #76]
 673 0066 2046     		mov	r0, r4
 674 0068 FFF7FEFF 		bl	HAL_RCC_OscConfig
 675 006c 80B9     		cbnz	r0, .L24
 676 006e 0F23     		movs	r3, #15
 677 0070 0393     		str	r3, [sp, #12]
 678 0072 0223     		movs	r3, #2
 679 0074 0493     		str	r3, [sp, #16]
 680 0076 0023     		movs	r3, #0
 681 0078 0593     		str	r3, [sp, #20]
 682 007a 4FF48052 		mov	r2, #4096
 683 007e 0692     		str	r2, [sp, #24]
 684 0080 0793     		str	r3, [sp, #28]
 685 0082 0321     		movs	r1, #3
 686 0084 03A8     		add	r0, sp, #12
 687 0086 FFF7FEFF 		bl	HAL_RCC_ClockConfig
 688 008a 18B9     		cbnz	r0, .L25
 689 008c 14B0     		add	sp, sp, #80
 690              		@ sp needed
 691 008e 10BD     		pop	{r4, pc}
 692              	.L24:
 693 0090 FFF7FEFF 		bl	Error_Handler
 694              	.L25:
 695 0094 FFF7FEFF 		bl	Error_Handler
 696              	.L27:
 697              		.align	2
 698              	.L26:
 699 0098 00380240 		.word	1073887232
 700 009c 00700040 		.word	1073770496
 702              		.section	.rodata.main.str1.4,"aMS",%progbits,1
 703              		.align	2
 704              	.LC25:
 705 0000 74656D70 		.ascii	"temp_msb\000"
 705      5F6D7362 
 705      00
 706 0009 000000   		.align	2
 707              	.LC26:
 708 000c 74656D70 		.ascii	"temp_lsb\000"
 708      5F6C7362 
 708      00
 709 0015 000000   		.align	2
 710              	.LC27:
 711 0018 74656D70 		.ascii	"temp_xlsb\000"
 711      5F786C73 
 711      6200
 712 0022 0000     		.align	2
 713              	.LC28:
 714 0024 54656D70 		.ascii	"Temperature: %.2f Celsius\012\012\015\000"
 714      65726174 
 714      7572653A 
 714      20252E32 
 714      66204365 
 715 0041 000000   		.align	2
 716              	.LC29:
 717 0044 70726573 		.ascii	"press_msb\000"
 717      735F6D73 
ARM GAS  /tmp/cc1qHkPc.s 			page 14


 717      6200
 718 004e 0000     		.align	2
 719              	.LC30:
 720 0050 70726573 		.ascii	"press_lsb\000"
 720      735F6C73 
 720      6200
 721 005a 0000     		.align	2
 722              	.LC31:
 723 005c 70726573 		.ascii	"press_xlsb\000"
 723      735F786C 
 723      736200
 724 0067 00       		.align	2
 725              	.LC32:
 726 0068 50726573 		.ascii	"Pressure: %.4f Pa\012\012\015\000"
 726      73757265 
 726      3A20252E 
 726      34662050 
 726      610A0A0D 
 727 007d 000000   		.align	2
 728              	.LC34:
 729 0080 41636365 		.ascii	"Acceleration: (%0.4f, %0.4f, %0.4f) \012\012\015\000"
 729      6C657261 
 729      74696F6E 
 729      3A202825 
 729      302E3466 
 730              		.align	2
 731              	.LC19:
 732 00a8 2D2D2D2D 		.ascii	"--------------------LSM6DS33 init------------------"
 732      2D2D2D2D 
 732      2D2D2D2D 
 732      2D2D2D2D 
 732      2D2D2D2D 
 733 00db 2D2D2D2D 		.ascii	"--------\012\015\000"
 733      2D2D2D2D 
 733      0A0D00
 734 00e6 0000     		.align	2
 735              	.LC20:
 736 00e8 41434345 		.ascii	"ACCELEROMETER READ SUCCESSFULLY (nice)\012\015\000"
 736      4C45524F 
 736      4D455445 
 736      52205245 
 736      41442053 
 737              		.section	.text.main,"ax",%progbits
 738              		.align	1
 739              		.global	main
 740              		.syntax unified
 741              		.thumb
 742              		.thumb_func
 744              	main:
 745              		@ args = 0, pretend = 0, frame = 736
 746              		@ frame_needed = 0, uses_anonymous_args = 0
 747 0000 2DE9F041 		push	{r4, r5, r6, r7, r8, lr}
 748 0004 ADF53C7D 		sub	sp, sp, #752
 749 0008 324D     		ldr	r5, .L39
 750 000a A3AC     		add	r4, sp, #652
 751 000c 2868     		ldr	r0, [r5]	@ unaligned
 752 000e 6968     		ldr	r1, [r5, #4]	@ unaligned
ARM GAS  /tmp/cc1qHkPc.s 			page 15


 753 0010 AA68     		ldr	r2, [r5, #8]	@ unaligned
 754 0012 EB68     		ldr	r3, [r5, #12]	@ unaligned
 755 0014 0FC4     		stmia	r4!, {r0, r1, r2, r3}
 756 0016 2869     		ldr	r0, [r5, #16]	@ unaligned
 757 0018 6969     		ldr	r1, [r5, #20]	@ unaligned
 758 001a 03C4     		stmia	r4!, {r0, r1}
 759 001c 4C22     		movs	r2, #76
 760 001e 0021     		movs	r1, #0
 761 0020 2046     		mov	r0, r4
 762 0022 FFF7FEFF 		bl	memset
 763 0026 0221     		movs	r1, #2
 764 0028 A3A8     		add	r0, sp, #652
 765 002a FFF7FEFF 		bl	send_message
 766 002e FFF7FEFF 		bl	HAL_Init
 767 0032 FFF7FEFF 		bl	SystemClock_Config
 768 0036 FFF7FEFF 		bl	MX_GPIO_Init
 769 003a FFF7FEFF 		bl	MX_I2C1_Init
 770 003e FFF7FEFF 		bl	MX_USART1_UART_Init
 771 0042 FFF7FEFF 		bl	MX_TIM1_Init
 772 0046 0021     		movs	r1, #0
 773 0048 2348     		ldr	r0, .L39+4
 774 004a FFF7FEFF 		bl	HAL_TIM_PWM_Start
 775 004e 234C     		ldr	r4, .L39+8
 776 0050 8AAE     		add	r6, sp, #552
 777 0052 04F13007 		add	r7, r4, #48
 778              	.L29:
 779 0056 3546     		mov	r5, r6
 780 0058 2068     		ldr	r0, [r4]	@ unaligned
 781 005a 6168     		ldr	r1, [r4, #4]	@ unaligned
 782 005c A268     		ldr	r2, [r4, #8]	@ unaligned
 783 005e E368     		ldr	r3, [r4, #12]	@ unaligned
 784 0060 0FC5     		stmia	r5!, {r0, r1, r2, r3}
 785 0062 1034     		adds	r4, r4, #16
 786 0064 2E46     		mov	r6, r5
 787 0066 BC42     		cmp	r4, r7
 788 0068 F5D1     		bne	.L29
 789 006a 2068     		ldr	r0, [r4]	@ unaligned
 790 006c 6168     		ldr	r1, [r4, #4]	@ unaligned
 791 006e A268     		ldr	r2, [r4, #8]	@ unaligned
 792 0070 07C6     		stmia	r6!, {r0, r1, r2}
 793 0072 A389     		ldrh	r3, [r4, #12]	@ unaligned
 794 0074 3380     		strh	r3, [r6]	@ unaligned
 795 0076 2622     		movs	r2, #38
 796 0078 0021     		movs	r1, #0
 797 007a 0DF26620 		addw	r0, sp, #614
 798 007e FFF7FEFF 		bl	memset
 799 0082 0221     		movs	r1, #2
 800 0084 8AA8     		add	r0, sp, #552
 801 0086 FFF7FEFF 		bl	send_message
 802 008a FFF7FEFF 		bl	check_acc_identity
 803 008e 48B3     		cbz	r0, .L30
 804 0090 71AF     		add	r7, sp, #452
 805 0092 134C     		ldr	r4, .L39+12
 806 0094 3E46     		mov	r6, r7
 807 0096 04F1200C 		add	ip, r4, #32
 808              	.L31:
 809 009a 3546     		mov	r5, r6
ARM GAS  /tmp/cc1qHkPc.s 			page 16


 810 009c 2068     		ldr	r0, [r4]	@ unaligned
 811 009e 6168     		ldr	r1, [r4, #4]	@ unaligned
 812 00a0 A268     		ldr	r2, [r4, #8]	@ unaligned
 813 00a2 E368     		ldr	r3, [r4, #12]	@ unaligned
 814 00a4 0FC5     		stmia	r5!, {r0, r1, r2, r3}
 815 00a6 1034     		adds	r4, r4, #16
 816 00a8 2E46     		mov	r6, r5
 817 00aa 6445     		cmp	r4, ip
 818 00ac F5D1     		bne	.L31
 819 00ae 2068     		ldr	r0, [r4]	@ unaligned
 820 00b0 6168     		ldr	r1, [r4, #4]	@ unaligned
 821 00b2 03C6     		stmia	r6!, {r0, r1}
 822 00b4 237A     		ldrb	r3, [r4, #8]	@ zero_extendqisi2
 823 00b6 3370     		strb	r3, [r6]
 824 00b8 3B22     		movs	r2, #59
 825 00ba 0021     		movs	r1, #0
 826 00bc 07F12900 		add	r0, r7, #41
 827 00c0 FFF7FEFF 		bl	memset
 828 00c4 0221     		movs	r1, #2
 829 00c6 71A8     		add	r0, sp, #452
 830 00c8 FFF7FEFF 		bl	send_message
 831 00cc FFF7FEFF 		bl	acc_power_on
 832 00d0 25E0     		b	.L32
 833              	.L40:
 834 00d2 00BF     		.align	2
 835              	.L39:
 836 00d4 00000000 		.word	.LANCHOR0
 837 00d8 00000000 		.word	htim1
 838 00dc A8000000 		.word	.LC19
 839 00e0 E8000000 		.word	.LC20
 840              	.L30:
 841 00e4 71AE     		add	r6, sp, #452
 842 00e6 3446     		mov	r4, r6
 843 00e8 A74D     		ldr	r5, .L41
 844 00ea 0FCD     		ldmia	r5!, {r0, r1, r2, r3}
 845 00ec 0FC4     		stmia	r4!, {r0, r1, r2, r3}
 846 00ee 95E80700 		ldm	r5, {r0, r1, r2}
 847 00f2 03C4     		stmia	r4!, {r0, r1}
 848 00f4 24F8022B 		strh	r2, [r4], #2	@ movhi
 849 00f8 120C     		lsrs	r2, r2, #16
 850 00fa 2270     		strb	r2, [r4]
 851 00fc 0022     		movs	r2, #0
 852 00fe CDF8DF21 		str	r2, [sp, #479]	@ unaligned
 853 0102 CDF8E321 		str	r2, [sp, #483]	@ unaligned
 854 0106 CDF8E721 		str	r2, [sp, #487]	@ unaligned
 855 010a CDF8EB21 		str	r2, [sp, #491]	@ unaligned
 856 010e CDF8EF21 		str	r2, [sp, #495]	@ unaligned
 857 0112 CDF8F221 		str	r2, [sp, #498]	@ unaligned
 858 0116 0221     		movs	r1, #2
 859 0118 3046     		mov	r0, r6
 860 011a FFF7FEFF 		bl	send_message
 861              	.L32:
 862 011e FFF7FEFF 		bl	check_barometer_identity
 863 0122 0028     		cmp	r0, #0
 864 0124 00F01F81 		beq	.L33
 865 0128 71AE     		add	r6, sp, #452
 866 012a 3446     		mov	r4, r6
ARM GAS  /tmp/cc1qHkPc.s 			page 17


 867 012c 974D     		ldr	r5, .L41+4
 868 012e 0FCD     		ldmia	r5!, {r0, r1, r2, r3}
 869 0130 0FC4     		stmia	r4!, {r0, r1, r2, r3}
 870 0132 95E80300 		ldm	r5, {r0, r1}
 871 0136 84E80300 		stm	r4, {r0, r1}
 872 013a 0023     		movs	r3, #0
 873 013c 7793     		str	r3, [sp, #476]
 874 013e 0221     		movs	r1, #2
 875 0140 3046     		mov	r0, r6
 876 0142 FFF7FEFF 		bl	send_message
 877              	.L34:
 878 0146 FFF7FEFF 		bl	barometer_power_on
 879              	.L37:
 880 014a 4FF47A70 		mov	r0, #1000
 881 014e FFF7FEFF 		bl	HAL_Delay
 882 0152 0DAE     		add	r6, sp, #52
 883 0154 8E4C     		ldr	r4, .L41+8
 884 0156 04F17C0C 		add	ip, r4, #124
 885 015a 3546     		mov	r5, r6
 886 015c AC34     		adds	r4, r4, #172
 887              	.L35:
 888 015e AE46     		mov	lr, r5
 889 0160 DCF80000 		ldr	r0, [ip]	@ unaligned
 890 0164 DCF80410 		ldr	r1, [ip, #4]	@ unaligned
 891 0168 DCF80820 		ldr	r2, [ip, #8]	@ unaligned
 892 016c DCF80C30 		ldr	r3, [ip, #12]	@ unaligned
 893 0170 AEE80F00 		stmia	lr!, {r0, r1, r2, r3}
 894 0174 0CF1100C 		add	ip, ip, #16
 895 0178 7546     		mov	r5, lr
 896 017a A445     		cmp	ip, r4
 897 017c EFD1     		bne	.L35
 898 017e DCF80000 		ldr	r0, [ip]	@ unaligned
 899 0182 CEF80000 		str	r0, [lr]
 900 0186 9CF80430 		ldrb	r3, [ip, #4]	@ zero_extendqisi2
 901 018a 8EF80430 		strb	r3, [lr, #4]
 902 018e 2F22     		movs	r2, #47
 903 0190 0021     		movs	r1, #0
 904 0192 06F13500 		add	r0, r6, #53
 905 0196 FFF7FEFF 		bl	memset
 906 019a 0221     		movs	r1, #2
 907 019c 0DA8     		add	r0, sp, #52
 908 019e FFF7FEFF 		bl	send_message
 909 01a2 04AD     		add	r5, sp, #16
 910 01a4 4FF00008 		mov	r8, #0
 911 01a8 8DF81280 		strb	r8, [sp, #18]
 912 01ac 8DF81180 		strb	r8, [sp, #17]
 913 01b0 8DF81080 		strb	r8, [sp, #16]
 914 01b4 774E     		ldr	r6, .L41+12
 915 01b6 FF27     		movs	r7, #255
 916 01b8 0297     		str	r7, [sp, #8]
 917 01ba 0124     		movs	r4, #1
 918 01bc 0194     		str	r4, [sp, #4]
 919 01be 0095     		str	r5, [sp]
 920 01c0 2346     		mov	r3, r4
 921 01c2 FA22     		movs	r2, #250
 922 01c4 EC21     		movs	r1, #236
 923 01c6 3046     		mov	r0, r6
ARM GAS  /tmp/cc1qHkPc.s 			page 18


 924 01c8 FFF7FEFF 		bl	HAL_I2C_Mem_Read
 925 01cc 7249     		ldr	r1, .L41+16
 926 01ce FFF7FEFF 		bl	send_reg_log
 927 01d2 0297     		str	r7, [sp, #8]
 928 01d4 0194     		str	r4, [sp, #4]
 929 01d6 0DF11103 		add	r3, sp, #17
 930 01da 0093     		str	r3, [sp]
 931 01dc 2346     		mov	r3, r4
 932 01de FB22     		movs	r2, #251
 933 01e0 EC21     		movs	r1, #236
 934 01e2 3046     		mov	r0, r6
 935 01e4 FFF7FEFF 		bl	HAL_I2C_Mem_Read
 936 01e8 6C49     		ldr	r1, .L41+20
 937 01ea FFF7FEFF 		bl	send_reg_log
 938 01ee 0297     		str	r7, [sp, #8]
 939 01f0 0194     		str	r4, [sp, #4]
 940 01f2 0DF11203 		add	r3, sp, #18
 941 01f6 0093     		str	r3, [sp]
 942 01f8 2346     		mov	r3, r4
 943 01fa FC22     		movs	r2, #252
 944 01fc EC21     		movs	r1, #236
 945 01fe 3046     		mov	r0, r6
 946 0200 FFF7FEFF 		bl	HAL_I2C_Mem_Read
 947 0204 6649     		ldr	r1, .L41+24
 948 0206 FFF7FEFF 		bl	send_reg_log
 949 020a 9DF81020 		ldrb	r2, [sp, #16]	@ zero_extendqisi2
 950 020e 9DF81130 		ldrb	r3, [sp, #17]	@ zero_extendqisi2
 951 0212 1B01     		lsls	r3, r3, #4
 952 0214 43EA0233 		orr	r3, r3, r2, lsl #12
 953 0218 9DF81200 		ldrb	r0, [sp, #18]	@ zero_extendqisi2
 954 021c 614D     		ldr	r5, .L41+28
 955 021e C5F80080 		str	r8, [r5]
 956 0222 43EA1010 		orr	r0, r3, r0, lsr #4
 957 0226 FFF7FEFF 		bl	bmp280_compensate_T_int32
 958 022a 2860     		str	r0, [r5]
 959 022c 07EE900A 		vmov	s15, r0	@ int
 960 0230 F8EEE77A 		vcvt.f32.s32	s15, s15
 961 0234 9FED5C7A 		vldr.32	s14, .L41+32
 962 0238 C7EE877A 		vdiv.f32	s15, s15, s14
 963 023c 17EE900A 		vmov	r0, s15
 964 0240 FFF7FEFF 		bl	__aeabi_f2d
 965 0244 0246     		mov	r2, r0
 966 0246 0B46     		mov	r3, r1
 967 0248 26AD     		add	r5, sp, #152
 968 024a 5849     		ldr	r1, .L41+36
 969 024c 2846     		mov	r0, r5
 970 024e FFF7FEFF 		bl	sprintf
 971 0252 0221     		movs	r1, #2
 972 0254 2846     		mov	r0, r5
 973 0256 FFF7FEFF 		bl	send_message
 974 025a 0297     		str	r7, [sp, #8]
 975 025c 0194     		str	r4, [sp, #4]
 976 025e 05AD     		add	r5, sp, #20
 977 0260 0095     		str	r5, [sp]
 978 0262 2346     		mov	r3, r4
 979 0264 F722     		movs	r2, #247
 980 0266 EC21     		movs	r1, #236
ARM GAS  /tmp/cc1qHkPc.s 			page 19


 981 0268 3046     		mov	r0, r6
 982 026a FFF7FEFF 		bl	HAL_I2C_Mem_Read
 983 026e 5049     		ldr	r1, .L41+40
 984 0270 FFF7FEFF 		bl	send_reg_log
 985 0274 0297     		str	r7, [sp, #8]
 986 0276 0194     		str	r4, [sp, #4]
 987 0278 0DF11503 		add	r3, sp, #21
 988 027c 0093     		str	r3, [sp]
 989 027e 2346     		mov	r3, r4
 990 0280 F822     		movs	r2, #248
 991 0282 EC21     		movs	r1, #236
 992 0284 3046     		mov	r0, r6
 993 0286 FFF7FEFF 		bl	HAL_I2C_Mem_Read
 994 028a 4A49     		ldr	r1, .L41+44
 995 028c FFF7FEFF 		bl	send_reg_log
 996 0290 0297     		str	r7, [sp, #8]
 997 0292 0194     		str	r4, [sp, #4]
 998 0294 0DF11603 		add	r3, sp, #22
 999 0298 0093     		str	r3, [sp]
 1000 029a 2346     		mov	r3, r4
 1001 029c F922     		movs	r2, #249
 1002 029e EC21     		movs	r1, #236
 1003 02a0 3046     		mov	r0, r6
 1004 02a2 FFF7FEFF 		bl	HAL_I2C_Mem_Read
 1005 02a6 4449     		ldr	r1, .L41+48
 1006 02a8 FFF7FEFF 		bl	send_reg_log
 1007 02ac 9DF81420 		ldrb	r2, [sp, #20]	@ zero_extendqisi2
 1008 02b0 9DF81530 		ldrb	r3, [sp, #21]	@ zero_extendqisi2
 1009 02b4 1B01     		lsls	r3, r3, #4
 1010 02b6 43EA0233 		orr	r3, r3, r2, lsl #12
 1011 02ba 9DF81600 		ldrb	r0, [sp, #22]	@ zero_extendqisi2
 1012 02be 43EA1010 		orr	r0, r3, r0, lsr #4
 1013 02c2 FFF7FEFF 		bl	bmp280_compensate_P_int64
 1014 02c6 3D4B     		ldr	r3, .L41+52
 1015 02c8 1860     		str	r0, [r3]
 1016 02ca 07EE900A 		vmov	s15, r0	@ int
 1017 02ce F8EE677A 		vcvt.f32.u32	s15, s15
 1018 02d2 9FED3B7A 		vldr.32	s14, .L41+56
 1019 02d6 67EE877A 		vmul.f32	s15, s15, s14
 1020 02da 17EE900A 		vmov	r0, s15
 1021 02de FFF7FEFF 		bl	__aeabi_f2d
 1022 02e2 0246     		mov	r2, r0
 1023 02e4 0B46     		mov	r3, r1
 1024 02e6 3FAC     		add	r4, sp, #252
 1025 02e8 3649     		ldr	r1, .L41+60
 1026 02ea 2046     		mov	r0, r4
 1027 02ec FFF7FEFF 		bl	sprintf
 1028 02f0 0221     		movs	r1, #2
 1029 02f2 2046     		mov	r0, r4
 1030 02f4 FFF7FEFF 		bl	send_message
 1031 02f8 0DF5B07C 		add	ip, sp, #352
 1032 02fc 244E     		ldr	r6, .L41+8
 1033 02fe 06F1B404 		add	r4, r6, #180
 1034 0302 6746     		mov	r7, ip
 1035 0304 E436     		adds	r6, r6, #228
 1036              	.L36:
 1037 0306 3D46     		mov	r5, r7
ARM GAS  /tmp/cc1qHkPc.s 			page 20


 1038 0308 2068     		ldr	r0, [r4]	@ unaligned
 1039 030a 6168     		ldr	r1, [r4, #4]	@ unaligned
 1040 030c A268     		ldr	r2, [r4, #8]	@ unaligned
 1041 030e E368     		ldr	r3, [r4, #12]	@ unaligned
 1042 0310 0FC5     		stmia	r5!, {r0, r1, r2, r3}
 1043 0312 1034     		adds	r4, r4, #16
 1044 0314 2F46     		mov	r7, r5
 1045 0316 B442     		cmp	r4, r6
 1046 0318 F5D1     		bne	.L36
 1047 031a 2068     		ldr	r0, [r4]	@ unaligned
 1048 031c 2860     		str	r0, [r5]
 1049 031e 2379     		ldrb	r3, [r4, #4]	@ zero_extendqisi2
 1050 0320 2B71     		strb	r3, [r5, #4]
 1051 0322 2F22     		movs	r2, #47
 1052 0324 0021     		movs	r1, #0
 1053 0326 0CF13500 		add	r0, ip, #53
 1054 032a FFF7FEFF 		bl	memset
 1055 032e 0221     		movs	r1, #2
 1056 0330 58A8     		add	r0, sp, #352
 1057 0332 FFF7FEFF 		bl	send_message
 1058 0336 06AC     		add	r4, sp, #24
 1059 0338 2046     		mov	r0, r4
 1060 033a FFF7FEFF 		bl	Read_Acc
 1061 033e 71AD     		add	r5, sp, #452
 1062 0340 DDE90A23 		ldrd	r2, [sp, #40]
 1063 0344 CDE90223 		strd	r2, [sp, #8]
 1064 0348 DDE90823 		ldrd	r2, [sp, #32]
 1065 034c CDE90023 		strd	r2, [sp]
 1066 0350 DDE90623 		ldrd	r2, [sp, #24]
 1067 0354 1C49     		ldr	r1, .L41+64
 1068 0356 2846     		mov	r0, r5
 1069 0358 FFF7FEFF 		bl	sprintf
 1070 035c 0221     		movs	r1, #2
 1071 035e 2846     		mov	r0, r5
 1072 0360 FFF7FEFF 		bl	send_message
 1073 0364 F1E6     		b	.L37
 1074              	.L33:
 1075 0366 71AE     		add	r6, sp, #452
 1076 0368 3446     		mov	r4, r6
 1077 036a 184D     		ldr	r5, .L41+68
 1078 036c 0FCD     		ldmia	r5!, {r0, r1, r2, r3}
 1079 036e 0FC4     		stmia	r4!, {r0, r1, r2, r3}
 1080 0370 2B68     		ldr	r3, [r5]
 1081 0372 2370     		strb	r3, [r4]
 1082 0374 0022     		movs	r2, #0
 1083 0376 ADF8D521 		strh	r2, [sp, #469]	@ unaligned
 1084 037a 8DF8D721 		strb	r2, [sp, #471]
 1085 037e 0221     		movs	r1, #2
 1086 0380 3046     		mov	r0, r6
 1087 0382 FFF7FEFF 		bl	send_message
 1088 0386 DEE6     		b	.L34
 1089              	.L42:
 1090              		.align	2
 1091              	.L41:
 1092 0388 18000000 		.word	.LANCHOR0+24
 1093 038c 4C000000 		.word	.LANCHOR0+76
 1094 0390 00000000 		.word	.LANCHOR0
ARM GAS  /tmp/cc1qHkPc.s 			page 21


 1095 0394 00000000 		.word	hi2c1
 1096 0398 00000000 		.word	.LC25
 1097 039c 0C000000 		.word	.LC26
 1098 03a0 18000000 		.word	.LC27
 1099 03a4 00000000 		.word	actual_temp
 1100 03a8 0000C842 		.word	1120403456
 1101 03ac 24000000 		.word	.LC28
 1102 03b0 44000000 		.word	.LC29
 1103 03b4 50000000 		.word	.LC30
 1104 03b8 5C000000 		.word	.LC31
 1105 03bc 00000000 		.word	actual_pressure
 1106 03c0 0000803B 		.word	998244352
 1107 03c4 68000000 		.word	.LC32
 1108 03c8 80000000 		.word	.LC34
 1109 03cc 68000000 		.word	.LANCHOR0+104
 1111              		.global	t_fine
 1112              		.section	.bss.t_fine,"aw",%nobits
 1113              		.align	2
 1116              	t_fine:
 1117 0000 00000000 		.space	4
 1118              		.global	actual_pressure
 1119              		.section	.bss.actual_pressure,"aw",%nobits
 1120              		.align	2
 1123              	actual_pressure:
 1124 0000 00000000 		.space	4
 1125              		.global	actual_temp
 1126              		.section	.bss.actual_temp,"aw",%nobits
 1127              		.align	2
 1130              	actual_temp:
 1131 0000 00000000 		.space	4
 1132              		.global	dig_P9
 1133              		.section	.bss.dig_P9,"aw",%nobits
 1134              		.align	1
 1137              	dig_P9:
 1138 0000 0000     		.space	2
 1139              		.global	dig_P8
 1140              		.section	.bss.dig_P8,"aw",%nobits
 1141              		.align	1
 1144              	dig_P8:
 1145 0000 0000     		.space	2
 1146              		.global	dig_P7
 1147              		.section	.bss.dig_P7,"aw",%nobits
 1148              		.align	1
 1151              	dig_P7:
 1152 0000 0000     		.space	2
 1153              		.global	dig_P6
 1154              		.section	.bss.dig_P6,"aw",%nobits
 1155              		.align	1
 1158              	dig_P6:
 1159 0000 0000     		.space	2
 1160              		.global	dig_P5
 1161              		.section	.bss.dig_P5,"aw",%nobits
 1162              		.align	1
 1165              	dig_P5:
 1166 0000 0000     		.space	2
 1167              		.global	dig_P4
 1168              		.section	.bss.dig_P4,"aw",%nobits
ARM GAS  /tmp/cc1qHkPc.s 			page 22


 1169              		.align	1
 1172              	dig_P4:
 1173 0000 0000     		.space	2
 1174              		.global	dig_P3
 1175              		.section	.bss.dig_P3,"aw",%nobits
 1176              		.align	1
 1179              	dig_P3:
 1180 0000 0000     		.space	2
 1181              		.global	dig_P2
 1182              		.section	.bss.dig_P2,"aw",%nobits
 1183              		.align	1
 1186              	dig_P2:
 1187 0000 0000     		.space	2
 1188              		.global	dig_P1
 1189              		.section	.bss.dig_P1,"aw",%nobits
 1190              		.align	1
 1193              	dig_P1:
 1194 0000 0000     		.space	2
 1195              		.global	dig_T3
 1196              		.section	.bss.dig_T3,"aw",%nobits
 1197              		.align	1
 1200              	dig_T3:
 1201 0000 0000     		.space	2
 1202              		.global	dig_T2
 1203              		.section	.bss.dig_T2,"aw",%nobits
 1204              		.align	1
 1207              	dig_T2:
 1208 0000 0000     		.space	2
 1209              		.global	dig_T1
 1210              		.section	.bss.dig_T1,"aw",%nobits
 1211              		.align	1
 1214              	dig_T1:
 1215 0000 0000     		.space	2
 1216              		.section	.rodata
 1217              		.align	2
 1218              		.set	.LANCHOR0,. + 0
 1219              	.LC18:
 1220 0000 46343131 		.ascii	"F411 says: I'm alive\012\015\000\000"
 1220      20736179 
 1220      733A2049 
 1220      276D2061 
 1220      6C697665 
 1221              	.LC21:
 1222 0018 41434345 		.ascii	"ACCELEROMETER READ ERROR\012\015\000"
 1222      4C45524F 
 1222      4D455445 
 1222      52205245 
 1222      41442045 
 1223 0033 00000000 		.space	23
 1223      00000000 
 1223      00000000 
 1223      00000000 
 1223      00000000 
 1224 004a 0000     		.space	2
 1225              	.LC22:
 1226 004c 424D5020 		.ascii	"BMP READ SUCCESSFULLY\012\015\000"
 1226      52454144 
ARM GAS  /tmp/cc1qHkPc.s 			page 23


 1226      20535543 
 1226      43455353 
 1226      46554C4C 
 1227 0064 00000000 		.space	4
 1228              	.LC23:
 1229 0068 424D5020 		.ascii	"BMP READ ERROR\012\015\000"
 1229      52454144 
 1229      20455252 
 1229      4F520A0D 
 1229      00
 1230 0079 000000   		.space	3
 1231              	.LC24:
 1232 007c 2D2D2D2D 		.ascii	"------------------------BMP----------------------\012"
 1232      2D2D2D2D 
 1232      2D2D2D2D 
 1232      2D2D2D2D 
 1232      2D2D2D2D 
 1233 00ae 0D0000   		.ascii	"\015\000\000"
 1234 00b1 000000   		.space	3
 1235              	.LC33:
 1236 00b4 2D2D2D2D 		.ascii	"------------------------ACC----------------------\012"
 1236      2D2D2D2D 
 1236      2D2D2D2D 
 1236      2D2D2D2D 
 1236      2D2D2D2D 
 1237 00e6 0D0000   		.ascii	"\015\000\000"
 1238              		.global	__aeabi_f2d
 1239              		.global	__aeabi_ddiv
 1240              		.global	__aeabi_dmul
 1241              		.global	__aeabi_i2d
 1242              		.global	__aeabi_ldivmod
 1243              		.ident	"GCC: (Arch Repository) 14.2.0"
ARM GAS  /tmp/cc1qHkPc.s 			page 24

