ARM GAS  /tmp/cc5WLSba.s 			page 1


   1              		.cpu cortex-m4
   2              		.arch armv7e-m
   3              		.fpu fpv4-sp-d16
   4              		.eabi_attribute 27, 1
   5              		.eabi_attribute 28, 1
   6              		.eabi_attribute 20, 1
   7              		.eabi_attribute 21, 1
   8              		.eabi_attribute 23, 3
   9              		.eabi_attribute 24, 1
  10              		.eabi_attribute 25, 1
  11              		.eabi_attribute 26, 1
  12              		.eabi_attribute 30, 1
  13              		.eabi_attribute 34, 1
  14              		.eabi_attribute 18, 4
  15              		.file	"tim.c"
  16              		.text
  17              		.section	.text.HAL_TIM_Base_MspInit,"ax",%progbits
  18              		.align	1
  19              		.global	HAL_TIM_Base_MspInit
  20              		.syntax unified
  21              		.thumb
  22              		.thumb_func
  24              	HAL_TIM_Base_MspInit:
  25              		@ args = 0, pretend = 0, frame = 8
  26              		@ frame_needed = 0, uses_anonymous_args = 0
  27 0000 0268     		ldr	r2, [r0]
  28 0002 1A4B     		ldr	r3, .L8
  29 0004 9A42     		cmp	r2, r3
  30 0006 00D0     		beq	.L7
  31 0008 7047     		bx	lr
  32              	.L7:
  33 000a 10B5     		push	{r4, lr}
  34 000c 82B0     		sub	sp, sp, #8
  35 000e 0024     		movs	r4, #0
  36 0010 0194     		str	r4, [sp, #4]
  37 0012 03F59C33 		add	r3, r3, #79872
  38 0016 5A6C     		ldr	r2, [r3, #68]
  39 0018 42F00102 		orr	r2, r2, #1
  40 001c 5A64     		str	r2, [r3, #68]
  41 001e 5B6C     		ldr	r3, [r3, #68]
  42 0020 03F00103 		and	r3, r3, #1
  43 0024 0193     		str	r3, [sp, #4]
  44 0026 019B     		ldr	r3, [sp, #4]
  45 0028 2246     		mov	r2, r4
  46 002a 2146     		mov	r1, r4
  47 002c 1820     		movs	r0, #24
  48 002e FFF7FEFF 		bl	HAL_NVIC_SetPriority
  49 0032 1820     		movs	r0, #24
  50 0034 FFF7FEFF 		bl	HAL_NVIC_EnableIRQ
  51 0038 2246     		mov	r2, r4
  52 003a 2146     		mov	r1, r4
  53 003c 1920     		movs	r0, #25
  54 003e FFF7FEFF 		bl	HAL_NVIC_SetPriority
  55 0042 1920     		movs	r0, #25
  56 0044 FFF7FEFF 		bl	HAL_NVIC_EnableIRQ
  57 0048 2246     		mov	r2, r4
  58 004a 2146     		mov	r1, r4
ARM GAS  /tmp/cc5WLSba.s 			page 2


  59 004c 1A20     		movs	r0, #26
  60 004e FFF7FEFF 		bl	HAL_NVIC_SetPriority
  61 0052 1A20     		movs	r0, #26
  62 0054 FFF7FEFF 		bl	HAL_NVIC_EnableIRQ
  63 0058 2246     		mov	r2, r4
  64 005a 2146     		mov	r1, r4
  65 005c 1B20     		movs	r0, #27
  66 005e FFF7FEFF 		bl	HAL_NVIC_SetPriority
  67 0062 1B20     		movs	r0, #27
  68 0064 FFF7FEFF 		bl	HAL_NVIC_EnableIRQ
  69 0068 02B0     		add	sp, sp, #8
  70              		@ sp needed
  71 006a 10BD     		pop	{r4, pc}
  72              	.L9:
  73              		.align	2
  74              	.L8:
  75 006c 00000140 		.word	1073807360
  77              		.section	.text.HAL_TIM_MspPostInit,"ax",%progbits
  78              		.align	1
  79              		.global	HAL_TIM_MspPostInit
  80              		.syntax unified
  81              		.thumb
  82              		.thumb_func
  84              	HAL_TIM_MspPostInit:
  85              		@ args = 0, pretend = 0, frame = 24
  86              		@ frame_needed = 0, uses_anonymous_args = 0
  87 0000 00B5     		push	{lr}
  88 0002 87B0     		sub	sp, sp, #28
  89 0004 0023     		movs	r3, #0
  90 0006 0193     		str	r3, [sp, #4]
  91 0008 0293     		str	r3, [sp, #8]
  92 000a 0393     		str	r3, [sp, #12]
  93 000c 0493     		str	r3, [sp, #16]
  94 000e 0593     		str	r3, [sp, #20]
  95 0010 0268     		ldr	r2, [r0]
  96 0012 0F4B     		ldr	r3, .L14
  97 0014 9A42     		cmp	r2, r3
  98 0016 02D0     		beq	.L13
  99              	.L10:
 100 0018 07B0     		add	sp, sp, #28
 101              		@ sp needed
 102 001a 5DF804FB 		ldr	pc, [sp], #4
 103              	.L13:
 104 001e 0023     		movs	r3, #0
 105 0020 0093     		str	r3, [sp]
 106 0022 0C4B     		ldr	r3, .L14+4
 107 0024 1A6B     		ldr	r2, [r3, #48]
 108 0026 42F00102 		orr	r2, r2, #1
 109 002a 1A63     		str	r2, [r3, #48]
 110 002c 1B6B     		ldr	r3, [r3, #48]
 111 002e 03F00103 		and	r3, r3, #1
 112 0032 0093     		str	r3, [sp]
 113 0034 009B     		ldr	r3, [sp]
 114 0036 4FF48073 		mov	r3, #256
 115 003a 0193     		str	r3, [sp, #4]
 116 003c 0223     		movs	r3, #2
 117 003e 0293     		str	r3, [sp, #8]
ARM GAS  /tmp/cc5WLSba.s 			page 3


 118 0040 0123     		movs	r3, #1
 119 0042 0593     		str	r3, [sp, #20]
 120 0044 01A9     		add	r1, sp, #4
 121 0046 0448     		ldr	r0, .L14+8
 122 0048 FFF7FEFF 		bl	HAL_GPIO_Init
 123 004c E4E7     		b	.L10
 124              	.L15:
 125 004e 00BF     		.align	2
 126              	.L14:
 127 0050 00000140 		.word	1073807360
 128 0054 00380240 		.word	1073887232
 129 0058 00000240 		.word	1073872896
 131              		.section	.text.MX_TIM1_Init,"ax",%progbits
 132              		.align	1
 133              		.global	MX_TIM1_Init
 134              		.syntax unified
 135              		.thumb
 136              		.thumb_func
 138              	MX_TIM1_Init:
 139              		@ args = 0, pretend = 0, frame = 88
 140              		@ frame_needed = 0, uses_anonymous_args = 0
 141 0000 10B5     		push	{r4, lr}
 142 0002 96B0     		sub	sp, sp, #88
 143 0004 0024     		movs	r4, #0
 144 0006 1294     		str	r4, [sp, #72]
 145 0008 1394     		str	r4, [sp, #76]
 146 000a 1494     		str	r4, [sp, #80]
 147 000c 1594     		str	r4, [sp, #84]
 148 000e 1094     		str	r4, [sp, #64]
 149 0010 1194     		str	r4, [sp, #68]
 150 0012 0994     		str	r4, [sp, #36]
 151 0014 0A94     		str	r4, [sp, #40]
 152 0016 0B94     		str	r4, [sp, #44]
 153 0018 0C94     		str	r4, [sp, #48]
 154 001a 0D94     		str	r4, [sp, #52]
 155 001c 0E94     		str	r4, [sp, #56]
 156 001e 0F94     		str	r4, [sp, #60]
 157 0020 2022     		movs	r2, #32
 158 0022 2146     		mov	r1, r4
 159 0024 01A8     		add	r0, sp, #4
 160 0026 FFF7FEFF 		bl	memset
 161 002a 2E48     		ldr	r0, .L30
 162 002c 2E4B     		ldr	r3, .L30+4
 163 002e 0360     		str	r3, [r0]
 164 0030 40F2E733 		movw	r3, #999
 165 0034 4360     		str	r3, [r0, #4]
 166 0036 8460     		str	r4, [r0, #8]
 167 0038 40F2CF73 		movw	r3, #1999
 168 003c C360     		str	r3, [r0, #12]
 169 003e 0461     		str	r4, [r0, #16]
 170 0040 4461     		str	r4, [r0, #20]
 171 0042 8461     		str	r4, [r0, #24]
 172 0044 FFF7FEFF 		bl	HAL_TIM_Base_Init
 173 0048 0028     		cmp	r0, #0
 174 004a 38D1     		bne	.L24
 175              	.L17:
 176 004c 4FF48053 		mov	r3, #4096
ARM GAS  /tmp/cc5WLSba.s 			page 4


 177 0050 1293     		str	r3, [sp, #72]
 178 0052 12A9     		add	r1, sp, #72
 179 0054 2348     		ldr	r0, .L30
 180 0056 FFF7FEFF 		bl	HAL_TIM_ConfigClockSource
 181 005a 0028     		cmp	r0, #0
 182 005c 32D1     		bne	.L25
 183              	.L18:
 184 005e 2148     		ldr	r0, .L30
 185 0060 FFF7FEFF 		bl	HAL_TIM_PWM_Init
 186 0064 0028     		cmp	r0, #0
 187 0066 30D1     		bne	.L26
 188              	.L19:
 189 0068 0023     		movs	r3, #0
 190 006a 1093     		str	r3, [sp, #64]
 191 006c 1193     		str	r3, [sp, #68]
 192 006e 10A9     		add	r1, sp, #64
 193 0070 1C48     		ldr	r0, .L30
 194 0072 FFF7FEFF 		bl	HAL_TIMEx_MasterConfigSynchronization
 195 0076 58BB     		cbnz	r0, .L27
 196              	.L20:
 197 0078 6023     		movs	r3, #96
 198 007a 0993     		str	r3, [sp, #36]
 199 007c E123     		movs	r3, #225
 200 007e 0A93     		str	r3, [sp, #40]
 201 0080 0022     		movs	r2, #0
 202 0082 0B92     		str	r2, [sp, #44]
 203 0084 0C92     		str	r2, [sp, #48]
 204 0086 0D92     		str	r2, [sp, #52]
 205 0088 0E92     		str	r2, [sp, #56]
 206 008a 0F92     		str	r2, [sp, #60]
 207 008c 09A9     		add	r1, sp, #36
 208 008e 1548     		ldr	r0, .L30
 209 0090 FFF7FEFF 		bl	HAL_TIM_PWM_ConfigChannel
 210 0094 F8B9     		cbnz	r0, .L28
 211              	.L21:
 212 0096 0023     		movs	r3, #0
 213 0098 0193     		str	r3, [sp, #4]
 214 009a 0293     		str	r3, [sp, #8]
 215 009c 0393     		str	r3, [sp, #12]
 216 009e 0493     		str	r3, [sp, #16]
 217 00a0 0593     		str	r3, [sp, #20]
 218 00a2 4FF40052 		mov	r2, #8192
 219 00a6 0692     		str	r2, [sp, #24]
 220 00a8 0893     		str	r3, [sp, #32]
 221 00aa 01A9     		add	r1, sp, #4
 222 00ac 0D48     		ldr	r0, .L30
 223 00ae FFF7FEFF 		bl	HAL_TIMEx_ConfigBreakDeadTime
 224 00b2 98B9     		cbnz	r0, .L29
 225              	.L22:
 226 00b4 0B48     		ldr	r0, .L30
 227 00b6 FFF7FEFF 		bl	HAL_TIM_MspPostInit
 228 00ba 16B0     		add	sp, sp, #88
 229              		@ sp needed
 230 00bc 10BD     		pop	{r4, pc}
 231              	.L24:
 232 00be FFF7FEFF 		bl	Error_Handler
 233 00c2 C3E7     		b	.L17
ARM GAS  /tmp/cc5WLSba.s 			page 5


 234              	.L25:
 235 00c4 FFF7FEFF 		bl	Error_Handler
 236 00c8 C9E7     		b	.L18
 237              	.L26:
 238 00ca FFF7FEFF 		bl	Error_Handler
 239 00ce CBE7     		b	.L19
 240              	.L27:
 241 00d0 FFF7FEFF 		bl	Error_Handler
 242 00d4 D0E7     		b	.L20
 243              	.L28:
 244 00d6 FFF7FEFF 		bl	Error_Handler
 245 00da DCE7     		b	.L21
 246              	.L29:
 247 00dc FFF7FEFF 		bl	Error_Handler
 248 00e0 E8E7     		b	.L22
 249              	.L31:
 250 00e2 00BF     		.align	2
 251              	.L30:
 252 00e4 00000000 		.word	htim1
 253 00e8 00000140 		.word	1073807360
 255              		.section	.text.HAL_TIM_Base_MspDeInit,"ax",%progbits
 256              		.align	1
 257              		.global	HAL_TIM_Base_MspDeInit
 258              		.syntax unified
 259              		.thumb
 260              		.thumb_func
 262              	HAL_TIM_Base_MspDeInit:
 263              		@ args = 0, pretend = 0, frame = 0
 264              		@ frame_needed = 0, uses_anonymous_args = 0
 265 0000 08B5     		push	{r3, lr}
 266 0002 0268     		ldr	r2, [r0]
 267 0004 0A4B     		ldr	r3, .L36
 268 0006 9A42     		cmp	r2, r3
 269 0008 00D0     		beq	.L35
 270              	.L32:
 271 000a 08BD     		pop	{r3, pc}
 272              	.L35:
 273 000c 094A     		ldr	r2, .L36+4
 274 000e 536C     		ldr	r3, [r2, #68]
 275 0010 23F00103 		bic	r3, r3, #1
 276 0014 5364     		str	r3, [r2, #68]
 277 0016 1820     		movs	r0, #24
 278 0018 FFF7FEFF 		bl	HAL_NVIC_DisableIRQ
 279 001c 1920     		movs	r0, #25
 280 001e FFF7FEFF 		bl	HAL_NVIC_DisableIRQ
 281 0022 1A20     		movs	r0, #26
 282 0024 FFF7FEFF 		bl	HAL_NVIC_DisableIRQ
 283 0028 1B20     		movs	r0, #27
 284 002a FFF7FEFF 		bl	HAL_NVIC_DisableIRQ
 285 002e ECE7     		b	.L32
 286              	.L37:
 287              		.align	2
 288              	.L36:
 289 0030 00000140 		.word	1073807360
 290 0034 00380240 		.word	1073887232
 292              		.global	htim1
 293              		.section	.bss.htim1,"aw",%nobits
ARM GAS  /tmp/cc5WLSba.s 			page 6


 294              		.align	2
 297              	htim1:
 298 0000 00000000 		.space	72
 298      00000000 
 298      00000000 
 298      00000000 
 298      00000000 
 299              		.ident	"GCC: (Arch Repository) 14.2.0"
ARM GAS  /tmp/cc5WLSba.s 			page 7

